(dp0
S'WA'
p1
(dp2
S'San Juan'
p3
(S'48.5342662'
p4
S'-123.0171242'
p5
tp6
sS'Pend Oreille'
p7
(S'48.1796277'
p8
S'-117.0432583'
p9
tp10
sS'Snohomish'
p11
(S'47.9128756'
p12
S'-122.0981848'
p13
tp14
sS'Grant'
p15
(S'47.1301417'
p16
S'-119.2780771'
p17
tp18
sS'Lincoln'
p19
(S'47.6540456'
p20
S'-118.149973'
p21
tp22
sS'Douglas'
p23
(S'47.4156824'
p24
S'-120.2931263'
p25
tp26
sS'Kittitas'
p27
(S'46.9965144'
p28
S'-120.5478474'
p29
tp30
sS'Jefferson'
p31
(S'48.1170387'
p32
S'-122.7604472'
p33
tp34
sS'Wahkiakum'
p35
(S'46.2031656'
p36
S'-123.3831834'
p37
tp38
sS'Whatcom'
p39
(S'48.7595529'
p40
S'-122.4882249'
p41
tp42
sS'Adams'
p43
(S'46.8259742'
p44
S'-119.1752913'
p45
tp46
sS'Cowlitz'
p47
(S'46.1381677'
p48
S'-122.9381672'
p49
tp50
sS'Thurston'
p51
(S'47.0378741'
p52
S'-122.9006951'
p53
tp54
sS'Yakima'
p55
(S'46.6540153'
p56
S'-120.5300666'
p57
tp58
sS'Klickitat'
p59
(S'45.8206794'
p60
S'-120.8217312'
p61
tp62
sS'Okanogan'
p63
(S'47.9654304'
p64
S'-118.9761322'
p65
tp66
sS'Kitsap'
p67
(S'47.5673176'
p68
S'-122.6326391'
p69
tp70
sS'Clallam'
p71
(S'48.0795365'
p72
S'-123.1018437'
p73
tp74
sS'King'
p75
(S'47.5301011'
p76
S'-122.0326191'
p77
tp78
sS'Pierce'
p79
(S'47.0978795'
p80
S'-122.2042824'
p81
tp82
sS'Spokane'
p83
(S'47.6587803'
p84
S'-117.4260466'
p85
tp86
sS'Whitman'
p87
(S'46.9101688'
p88
S'-117.0757252'
p89
tp90
sS'Grays Harbor'
p91
(S'46.9809247'
p92
S'-123.8893348'
p93
tp94
sS'Island'
p95
(S'48.0400945'
p96
S'-122.406257'
p97
tp98
sS'Benton'
p99
(S'46.2112458'
p100
S'-119.1372338'
p101
tp102
sS'Franklin'
p103
(S'46.2395793'
p104
S'-119.1005657'
p105
tp106
sS'Ferry'
p107
(S'48.6482183'
p108
S'-118.7378067'
p109
tp110
sS'Mason'
p111
(S'47.2150945'
p112
S'-123.1007066'
p113
tp114
sS'Skagit'
p115
(S'48.5126045'
p116
S'-122.6126718'
p117
tp118
sS'Skamania'
p119
(S'45.7253947'
p120
S'-121.8192443'
p121
tp122
sS'Clark'
p123
(S'45.6387281'
p124
S'-122.6614861'
p125
tp126
sS'Walla Walla'
p127
(S'46.0493026'
p128
S'-118.3883012'
p129
tp130
sS'Lewis'
p131
(S'46.7162136'
p132
S'-122.9542972'
p133
tp134
sS'Stevens'
p135
(S'48.0393344'
p136
S'-117.8594101'
p137
tp138
sS'Pacific'
p139
(S'46.3523219'
p140
S'-124.0543234'
p141
tp142
sS'Chelan'
p143
(S'47.4234599'
p144
S'-120.3103494'
p145
tp146
sS'Asotin'
p147
(S'46.4162724'
p148
S'-117.0451581'
p149
tp150
ssS'DE'
p151
(dp152
S'New Castle'
p153
(S'39.6620572'
p154
S'-75.5663132'
p155
tp156
sS'Sussex'
p157
(S'38.8698352'
p158
S'-75.4229746'
p159
tp160
sS'Kent'
p161
(S'39.158168'
p162
S'-75.5243682'
p163
tp164
ssS'WI'
p165
(dp166
S'Marinette'
p167
(S'45.099985'
p168
S'-87.6306623'
p169
tp170
sS'Jackson'
p171
(S'44.2127373'
p172
S'-91.1237621'
p173
tp174
sS'Richland'
p175
(S'43.5258118'
p176
S'-90.221516'
p177
tp178
sS'Grant'
p179
(S'42.5327799'
p180
S'-90.4345722'
p181
tp182
sS'Iron'
p183
(S'46.4280033'
p184
S'-90.2460097'
p185
tp186
sS'Portage'
p187
(S'44.5235792'
p188
S'-89.574563'
p189
tp190
sS'Rock'
p191
(S'42.6827885'
p192
S'-89.0187223'
p193
tp194
sS'Trempealeau'
p195
(S'44.367461'
p196
S'-91.3165482'
p197
tp198
sS'Douglas'
p199
(S'46.7207737'
p200
S'-92.1040796'
p201
tp202
sS'Ozaukee'
p203
(S'43.3872247'
p204
S'-87.875644'
p205
tp206
sS'Bayfield'
p207
(S'46.8107671'
p208
S'-90.81824'
p209
tp210
sS'St. Croix'
p211
(S'44.9746896'
p212
S'-92.7568703'
p213
tp214
sS'Jefferson'
p215
(S'42.9802852'
p216
S'-88.6312126'
p217
tp218
sS'Forest'
p219
(S'45.5719072'
p220
S'-88.9028922'
p221
tp222
sS'Vilas'
p223
(S'45.9171763'
p224
S'-89.2442988'
p225
tp226
sS'Waushara'
p227
(S'44.133584'
p228
S'-89.523177'
p229
tp230
sS'Fond du Lac'
p231
(S'43.7730448'
p232
S'-88.4470508'
p233
tp234
sS'Lincoln'
p235
(S'45.4710792'
p236
S'-89.7298594'
p237
tp238
sS'Racine'
p239
(S'42.7261309'
p240
S'-87.7828523'
p241
tp242
sS'Waupaca'
p243
(S'44.6205349'
p244
S'-88.7623228'
p245
tp246
sS'Dodge'
p247
(S'43.4941611'
p248
S'-88.5448237'
p249
tp250
sS'Brown'
p251
(S'44.519159'
p252
S'-88.019826'
p253
tp254
sS'Iowa'
p255
(S'42.9177726'
p256
S'-90.2734579'
p257
tp258
sS'Dunn'
p259
(S'44.6921869'
p260
S'-92.0115629'
p261
tp262
sS'Barron'
p263
(S'45.3141273'
p264
S'-91.6510007'
p265
tp266
sS'Winnebago'
p267
(S'44.2022084'
p268
S'-88.4464973'
p269
tp270
sS'Manitowoc'
p271
(S'44.199439'
p272
S'-87.7214755'
p273
tp274
sS'Oconto'
p275
(S'45.1846963'
p276
S'-88.4737157'
p277
tp278
sS'Walworth'
p279
(S'42.6727927'
p280
S'-88.5445447'
p281
tp282
sS'Vernon'
p283
(S'43.5746959'
p284
S'-90.6404083'
p285
tp286
sS'Columbia'
p287
(S'43.6274794'
p288
S'-89.7709579'
p289
tp290
sS'Sheboygan'
p291
(S'43.8338831'
p292
S'-87.8200887'
p293
tp294
sS'Waukesha'
p295
(S'43.0116784'
p296
S'-88.2314813'
p297
tp298
sS'Rusk'
p299
(S'45.4830249'
p300
S'-90.9926422'
p301
tp302
sS'Pierce'
p303
(S'44.8613563'
p304
S'-92.6238083'
p305
tp306
sS'Langlade'
p307
(S'45.140245'
p308
S'-89.1523353'
p309
tp310
sS'Adams'
p311
(S'44.2205996'
p312
S'-89.8084259'
p313
tp314
sS'Oneida'
p315
(S'45.6366228'
p316
S'-89.4120753'
p317
tp318
sS'Sawyer'
p319
(S'46.0130065'
p320
S'-91.4846208'
p321
tp322
sS'Green'
p323
(S'42.6011194'
p324
S'-89.6384532'
p325
tp326
sS'Kenosha'
p327
(S'42.5847425'
p328
S'-87.8211854'
p329
tp330
sS'Burnett'
p331
(S'45.7763419'
p332
S'-92.6827041'
p333
tp334
sS'Sauk'
p335
(S'43.4710944'
p336
S'-89.7442907'
p337
tp338
sS'Door'
p339
(S'45.2547094'
p340
S'-87.0715033'
p341
tp342
sS'Dane'
p343
(S'42.9261116'
p344
S'-89.3845634'
p345
tp346
sS'Eau Claire'
p347
(S'44.811349'
p348
S'-91.4984941'
p349
tp350
sS'Buffalo'
p351
(S'44.3199654'
p352
S'-91.9148839'
p353
tp354
sS'Menominee'
p355
(S'44.8838712'
p356
S'-88.6337152'
p357
tp358
sS'La Crosse'
p359
(S'43.8013556'
p360
S'-91.2395807'
p361
tp362
sS'Taylor'
p363
(S'45.1385798'
p364
S'-90.3401404'
p365
tp366
sS'Green Lake'
p367
(S'43.9680365'
p368
S'-88.9434477'
p369
tp370
sS'Calumet'
p371
(S'44.0288803'
p372
S'-88.1628785'
p373
tp374
sS'Clark'
p375
(S'44.5888512'
p376
S'-90.4612469'
p377
tp378
sS'Chippewa'
p379
(S'44.9369054'
p380
S'-91.3929348'
p381
tp382
sS'Washington'
p383
(S'43.2286174'
p384
S'-88.1103691'
p385
tp386
sS'Outagamie'
p387
(S'44.2619309'
p388
S'-88.4153847'
p389
tp390
sS'Ashland'
p391
(S'46.5924428'
p392
S'-90.8837982'
p393
tp394
sS'Shawano'
p395
(S'44.7822064'
p396
S'-88.6089917'
p397
tp398
sS'Wood'
p399
(S'44.6269065'
p400
S'-90.0076294'
p401
tp402
sS'Marathon'
p403
(S'44.9591352'
p404
S'-89.6301221'
p405
tp406
sS'Juneau'
p407
(S'43.7121987'
p408
S'-89.8995699'
p409
tp410
sS'Milwaukee'
p411
(S'43.0389025'
p412
S'-87.9064736'
p413
tp414
sS'Washburn'
p415
(S'45.7110618'
p416
S'-91.8065608'
p417
tp418
sS'Polk'
p419
(S'45.3069062'
p420
S'-92.3621369'
p421
tp422
sS'Monroe'
p423
(S'43.978576'
p424
S'-90.5040214'
p425
tp426
sS'Kewaunee'
p427
(S'44.6088884'
p428
S'-87.4325891'
p429
tp430
ssS'WV'
p431
(dp432
S'Summers'
p433
(S'37.674008'
p434
S'-80.889254'
p435
tp436
sS'Jackson'
p437
(S'38.7914742'
p438
S'-81.7098518'
p439
tp440
sS'Morgan'
p441
(S'39.5320379'
p442
S'-78.4583445'
p443
tp444
sS'Grant'
p445
(S'39.1367737'
p446
S'-79.1522579'
p447
tp448
sS'Pendleton'
p449
(S'38.6248402'
p450
S'-79.2447608'
p451
tp452
sS'Calhoun'
p453
(S'38.9223096'
p454
S'-81.018443'
p455
tp456
sS'Hampshire'
p457
(S'39.1384388'
p458
S'-78.6700147'
p459
tp460
sS'Mason'
p461
(S'38.8445251'
p462
S'-82.1370889'
p463
tp464
sS'Roane'
p465
(S'38.6389816'
p466
S'-81.4020653'
p467
tp468
sS'Wirt'
p469
(S'39.0070253'
p470
S'-81.369564'
p471
tp472
sS'Jefferson'
p473
(S'39.3881556'
p474
S'-77.8855516'
p475
tp476
sS'Webster'
p477
(S'38.4095529'
p478
S'-80.5578662'
p479
tp480
sS'Nicholas'
p481
(S'38.2812203'
p482
S'-80.8525981'
p483
tp484
sS'Putnam'
p485
(S'38.4417575'
p486
S'-81.9168002'
p487
tp488
sS'McDowell'
p489
(S'37.2084482'
p490
S'-81.5601083'
p491
tp492
sS'Greenbrier'
p493
(S'37.9348405'
p494
S'-80.6520294'
p495
tp496
sS'Gilmer'
p497
(S'38.9342573'
p498
S'-80.8376033'
p499
tp500
sS'Fayette'
p501
(S'38.1362201'
p502
S'-81.0995479'
p503
tp504
sS'Tucker'
p505
(S'39.128719'
p506
S'-79.4647739'
p507
tp508
sS'Wetzel'
p509
(S'39.7075815'
p510
S'-80.5811945'
p511
tp512
sS'Barbour'
p513
(S'39.0251028'
p514
S'-79.9356301'
p515
tp516
sS'Berkeley'
p517
(S'39.3578781'
p518
S'-78.0399994'
p519
tp520
sS'Brooke'
p521
(S'40.3275693'
p522
S'-80.5959065'
p523
tp524
sS'Ritchie'
p525
(S'39.2850799'
p526
S'-80.9684422'
p527
tp528
sS'Pocahontas'
p529
(S'38.1887328'
p530
S'-80.0161727'
p531
tp532
sS'Randolph'
p533
(S'38.9259397'
p534
S'-79.8467349'
p535
tp536
sS'Wayne'
p537
(S'38.3228619'
p538
S'-82.4468201'
p539
tp540
sS'Lincoln'
p541
(S'38.2387052'
p542
S'-81.9892984'
p543
tp544
sS'Mineral'
p545
(S'39.4409277'
p546
S'-78.9739156'
p547
tp548
sS'Braxton'
p549
(S'38.6645444'
p550
S'-80.7098191'
p551
tp552
sS'Hancock'
p553
(S'40.4967329'
p554
S'-80.6067392'
p555
tp556
sS'Pleasants'
p557
(S'39.391742'
p558
S'-81.2051132'
p559
tp560
sS'Raleigh'
p561
(S'37.7431716'
p562
S'-81.1228751'
p563
tp564
sS'Boone'
p565
(S'37.9748295'
p566
S'-81.5290005'
p567
tp568
sS'Ohio'
p569
(S'40.0639616'
p570
S'-80.7209149'
p571
tp572
sS'Monongalia'
p573
(S'39.629526'
p574
S'-79.9558968'
p575
tp576
sS'Upshur'
p577
(S'38.9939872'
p578
S'-80.2320276'
p579
tp580
sS'Taylor'
p581
(S'39.3409249'
p582
S'-80.0189659'
p583
tp584
sS'Lewis'
p585
(S'39.0384274'
p586
S'-80.467313'
p587
tp588
sS'Marshall'
p589
(S'39.9203526'
p590
S'-80.7431407'
p591
tp592
sS'Mingo'
p593
(S'37.6742682'
p594
S'-82.2773629'
p595
tp596
sS'Cabell'
p597
(S'38.4095298'
p598
S'-82.2945923'
p599
tp600
sS'Tyler'
p601
(S'39.4922999'
p602
S'-80.9037181'
p603
tp604
sS'Logan'
p605
(S'37.9737114'
p606
S'-82.0173502'
p607
tp608
sS'Wood'
p609
(S'39.2667418'
p610
S'-81.5615135'
p611
tp612
sS'Marion'
p613
(S'39.4850848'
p614
S'-80.1425781'
p615
tp616
sS'Harrison'
p617
(S'39.4209193'
p618
S'-80.2778632'
p619
tp620
sS'Kanawha'
p621
(S'38.4234318'
p622
S'-81.4262309'
p623
tp624
sS'Mercer'
p625
(S'37.3662293'
p626
S'-81.1025918'
p627
tp628
sS'Preston'
p629
(S'39.552306'
p630
S'-79.7978358'
p631
tp632
ssS'HI'
p633
(dp634
S'Maui'
p635
(S'20.8896075'
p636
S'-156.5010595'
p637
tp638
sS'Kauai'
p639
(S'22.1422622'
p640
S'-159.3138837'
p641
tp642
sS'Hawaii'
p643
(S'19.722474'
p644
S'-155.0868273'
p645
tp646
sS'Honolulu'
p647
(S'21.3069444'
p648
S'-157.8583333'
p649
tp650
ssS'FL'
p651
(dp652
S'Alachua'
p653
(S'29.6516344'
p654
S'-82.3248262'
p655
tp656
sS'Pasco'
p657
(S'28.2441768'
p658
S'-82.7192671'
p659
tp660
sS'Jackson'
p661
(S'30.7743596'
p662
S'-85.2268735'
p663
tp664
sS'Santa Rosa'
p665
(S'30.4015879'
p666
S'-86.863571'
p667
tp668
sS'Gulf'
p669
(S'30.1127004'
p670
S'-85.2004716'
p671
tp672
sS'Union'
p673
(S'30.0227391'
p674
S'-82.3395574'
p675
tp676
sS'Volusia'
p677
(S'28.8830452'
p678
S'-81.3086755'
p679
tp680
sS'Duval'
p681
(S'30.3321838'
p682
S'-81.655651'
p683
tp684
sS'Sumter'
p685
(S'28.934084'
p686
S'-81.959943'
p687
tp688
sS'Lake'
p689
(S'28.4775015'
p690
S'-81.9059115'
p691
tp692
sS'Hillsborough'
p693
(S'27.9475216'
p694
S'-82.4584279'
p695
tp696
sS'Flagler'
p697
(S'29.5849736'
p698
S'-81.2078411'
p699
tp700
sS'Okaloosa'
p701
(S'30.3935337'
p702
S'-86.4957834'
p703
tp704
sS'Miami-Dade'
p705
(S'25.7742658'
p706
S'-80.1936589'
p707
tp708
sS'Seminole'
p709
(S'28.677775'
p710
S'-81.3278455'
p711
tp712
sS'Orange'
p713
(S'28.5383355'
p714
S'-81.3792365'
p715
tp716
sS'Indian River'
p717
(S'27.6386434'
p718
S'-80.3972736'
p719
tp720
sS'Levy'
p721
(S'29.4749621'
p722
S'-82.8598421'
p723
tp724
sS'Hardee'
p725
(S'27.5472589'
p726
S'-81.8114715'
p727
tp728
sS'Columbia'
p729
(S'29.9232908'
p730
S'-82.7137327'
p731
tp732
sS'Lee'
p733
(S'26.5628537'
p734
S'-81.9495331'
p735
tp736
sS'Sarasota'
p737
(S'27.0681121'
p738
S'-82.3728728'
p739
tp740
sS'Okeechobee'
p741
(S'27.2439349'
p742
S'-80.8297828'
p743
tp744
sS'Manatee'
p745
(S'27.4953156'
p746
S'-82.7109329'
p747
tp748
sS'Walton'
p749
(S'30.3960324'
p750
S'-86.2288322'
p751
tp752
sS'Hernando'
p753
(S'28.5155513'
p754
S'-82.5728769'
p755
tp756
sS'Hamilton'
p757
(S'30.5182727'
p758
S'-82.94819'
p759
tp760
sS'Nassau'
p761
(S'30.3846821'
p762
S'-81.9387195'
p763
tp764
sS'Broward'
p765
(S'26.0112014'
p766
S'-80.1494901'
p767
tp768
sS'Putnam'
p769
(S'29.6583026'
p770
S'-81.5984139'
p771
tp772
sS'Wakulla'
p773
(S'30.1760358'
p774
S'-84.3751778'
p775
tp776
sS'Bradford'
p777
(S'29.9441298'
p778
S'-82.1098275'
p779
tp780
sS'Suwannee'
p781
(S'30.2568926'
p782
S'-82.9026289'
p783
tp784
sS'Highlands'
p785
(S'27.495592'
p786
S'-81.440907'
p787
tp788
sS'Gadsden'
p789
(S'30.5871392'
p790
S'-84.5832453'
p791
tp792
sS'Osceola'
p793
(S'28.2919557'
p794
S'-81.407571'
p795
tp796
sS'St. Johns'
p797
(S'30.2274645'
p798
S'-81.3800824'
p799
tp800
sS'Taylor'
p801
(S'29.6710597'
p802
S'-83.387638'
p803
tp804
sS'Glades'
p805
(S'27.1303277'
p806
S'-80.8936735'
p807
tp808
sS'Clay'
p809
(S'30.0688512'
p810
S'-81.8603778'
p811
tp812
sS'Pinellas'
p813
(S'27.9772415'
p814
S'-82.8278812'
p815
tp816
sS'Martin'
p817
(S'27.059498'
p818
S'-80.1364323'
p819
tp820
sS'Bay'
p821
(S'30.2540906'
p822
S'-85.9568811'
p823
tp824
sS'DeSoto'
p825
(S'27.2158826'
p826
S'-81.8584164'
p827
tp828
sS'Holmes'
p829
(S'30.8624071'
p830
S'-85.9432695'
p831
tp832
sS'Charlotte'
p833
(S'26.9761707'
p834
S'-82.0906448'
p835
tp836
sS'Palm Beach'
p837
(S'26.3586885'
p838
S'-80.0830984'
p839
tp840
sS'Dixie'
p841
(S'29.4413454'
p842
S'-83.2873552'
p843
tp844
sS'Washington'
p845
(S'30.5796374'
p846
S'-85.8646562'
p847
tp848
sS'Gilchrist'
p849
(S'29.6132942'
p850
S'-82.8176203'
p851
tp852
sS'Leon'
p853
(S'30.339367'
p854
S'-84.387958'
p855
tp856
sS'Jefferson'
p857
(S'30.5452022'
p858
S'-83.8701636'
p859
tp860
sS'Citrus'
p861
(S'28.9974771'
p862
S'-82.4706548'
p863
tp864
sS'Brevard'
p865
(S'28.3861159'
p866
S'-80.7419984'
p867
tp868
sS'Marion'
p869
(S'29.4460829'
p870
S'-81.9745332'
p871
tp872
sS'St. Lucie'
p873
(S'27.2939333'
p874
S'-80.3503283'
p875
tp876
sS'Escambia'
p877
(S'30.421309'
p878
S'-87.2169149'
p879
tp880
sS'Collier'
p881
(S'26.1420358'
p882
S'-81.7948103'
p883
tp884
sS'Polk'
p885
(S'28.0394654'
p886
S'-81.9498042'
p887
tp888
sS'Monroe'
p889
(S'24.9762421'
p890
S'-80.5522836'
p891
tp892
sS'Franklin'
p893
(S'29.7257675'
p894
S'-84.9832435'
p895
tp896
ssS'WY'
p897
(dp898
S'Goshen'
p899
(S'42.0624646'
p900
S'-104.1843943'
p901
tp902
sS'Albany'
p903
(S'41.3113669'
p904
S'-105.5911007'
p905
tp906
sS'Sheridan'
p907
(S'44.7971939'
p908
S'-106.9561792'
p909
tp910
sS'Converse'
p911
(S'43.2319119'
p912
S'-105.2602574'
p913
tp914
sS'Natrona'
p915
(S'42.866632'
p916
S'-106.313081'
p917
tp918
sS'Johnson'
p919
(S'44.3483072'
p920
S'-106.6989376'
p921
tp922
sS'Crook'
p923
(S'44.3577604'
p924
S'-104.8105258'
p925
tp926
sS'Fremont'
p927
(S'42.833014'
p928
S'-108.7306725'
p929
tp930
sS'Bear Lake'
p931
(S'42.1829887'
p932
S'-111.0474131'
p933
tp934
sS'Sweetwater'
p935
(S'41.5874644'
p936
S'-109.2029043'
p937
tp938
sS'Park'
p939
(S'44.5263422'
p940
S'-109.0565308'
p941
tp942
sS'Lincoln'
p943
(S'43.163531'
p944
S'-111.018017'
p945
tp946
sS'Laramie'
p947
(S'41.1399814'
p948
S'-104.8202462'
p949
tp950
sS'Hot Springs'
p951
(S'43.6460672'
p952
S'-108.2120432'
p953
tp954
sS'Washakie'
p955
(S'44.0169014'
p956
S'-107.9553721'
p957
tp958
sS'Uinta'
p959
(S'41.327451'
p960
S'-110.2929325'
p961
tp962
sS'Sublette'
p963
(S'42.6332811'
p964
S'-109.4656909'
p965
tp966
sS'Campbell'
p967
(S'44.2910915'
p968
S'-105.5022205'
p969
tp970
sS'Carbon'
p971
(S'41.7910697'
p972
S'-107.2386627'
p973
tp974
sS'Platte'
p975
(S'41.7566391'
p976
S'-104.8216351'
p977
tp978
sS'Teton'
p979
(S'43.4799291'
p980
S'-110.7624282'
p981
tp982
ssS'NH'
p983
(dp984
S'Coos'
p985
(S'44.4686696'
p986
S'-71.1850768'
p987
tp988
sS'Belknap'
p989
(S'43.4892431'
p990
S'-71.5822978'
p991
tp992
sS'Strafford'
p993
(S'43.4367466'
p994
S'-71.1722886'
p995
tp996
sS'Sullivan'
p997
(S'43.3767402'
p998
S'-72.3467561'
p999
tp1000
sS'Grafton'
p1001
(S'43.5911851'
p1002
S'-71.7367456'
p1003
tp1004
sS'Carroll'
p1005
(S'44.0536805'
p1006
S'-71.1284041'
p1007
tp1008
sS'Merrimack'
p1009
(S'43.2806329'
p1010
S'-71.8167461'
p1011
tp1012
sS'Hillsborough'
p1013
(S'42.7653662'
p1014
S'-71.467566'
p1015
tp1016
sS'Rockingham'
p1017
(S'43.0717552'
p1018
S'-70.7625532'
p1019
tp1020
sS'Cheshire'
p1021
(S'42.823972'
p1022
S'-72.1811944'
p1023
tp1024
ssS'NJ'
p1025
(dp1026
S'Burlington'
p1027
(S'39.934002'
p1028
S'-74.8909988'
p1029
tp1030
sS'Hudson'
p1031
(S'40.7695457'
p1032
S'-74.0204177'
p1033
tp1034
sS'Middlesex'
p1035
(S'40.4148291'
p1036
S'-74.3654267'
p1037
tp1038
sS'Cumberland'
p1039
(S'39.5445598'
p1040
S'-75.0490645'
p1041
tp1042
sS'Monmouth'
p1043
(S'40.3042778'
p1044
S'-73.9923596'
p1045
tp1046
sS'Union'
p1047
(S'40.6639916'
p1048
S'-74.2107006'
p1049
tp1050
sS'Mercer'
p1051
(S'40.2762189'
p1052
S'-74.8490528'
p1053
tp1054
sS'Sussex'
p1055
(S'41.0334307'
p1056
S'-74.6384947'
p1057
tp1058
sS'Essex'
p1059
(S'40.7706562'
p1060
S'-74.2326463'
p1061
tp1062
sS'Ocean'
p1063
(S'39.9537291'
p1064
S'-74.1979192'
p1065
tp1066
sS'Morris'
p1067
(S'40.7331563'
p1068
S'-74.4876548'
p1069
tp1070
sS'Salem'
p1071
(S'39.6515027'
p1072
S'-75.3282454'
p1073
tp1074
sS'Camden'
p1075
(S'39.769838'
p1076
S'-74.8873855'
p1077
tp1078
sS'Somerset'
p1079
(S'40.718712'
p1080
S'-74.569324'
p1081
tp1082
sS'Atlantic'
p1083
(S'39.3898388'
p1084
S'-74.5240422'
p1085
tp1086
sS'Cape May'
p1087
(S'39.2776156'
p1088
S'-74.5746001'
p1089
tp1090
sS'Gloucester'
p1091
(S'39.6862263'
p1092
S'-74.995168'
p1093
tp1094
sS'Passaic'
p1095
(S'40.9253763'
p1096
S'-74.2765368'
p1097
tp1098
sS'Bergen'
p1099
(S'40.788434'
p1100
S'-74.1331988'
p1101
tp1102
sS'Hunterdon'
p1103
(S'40.6409348'
p1104
S'-74.881278'
p1105
tp1106
sS'Warren'
p1107
(S'40.6937105'
p1108
S'-75.1110074'
p1109
tp1110
ssS'NM'
p1111
(dp1112
S'San Juan'
p1113
(S'36.7280583'
p1114
S'-108.2186856'
p1115
tp1116
sS'San Miguel'
p1117
(S'35.5742031'
p1118
S'-105.6750161'
p1119
tp1120
sS'Otero'
p1121
(S'32.8995325'
p1122
S'-105.960265'
p1123
tp1124
sS'Bernalillo'
p1125
(S'35.0844909'
p1126
S'-106.6511367'
p1127
tp1128
sS'Grant'
p1129
(S'33.0370125'
p1130
S'-108.7083897'
p1131
tp1132
sS'Rio Arriba'
p1133
(S'36.1589119'
p1134
S'-105.9747434'
p1135
tp1136
sS'Guadalupe'
p1137
(S'34.6017346'
p1138
S'-105.2083337'
p1139
tp1140
sS'Eddy'
p1141
(S'32.4206736'
p1142
S'-104.2288375'
p1143
tp1144
sS'Sierra'
p1145
(S'33.1284047'
p1146
S'-107.2528069'
p1147
tp1148
sS'Valencia'
p1149
(S'34.6628367'
p1150
S'-106.776416'
p1151
tp1152
sS'Torrance'
p1153
(S'34.8647778'
p1154
S'-106.0516864'
p1155
tp1156
sS'Taos'
p1157
(S'36.3586367'
p1158
S'-105.6094566'
p1159
tp1160
sS'Lea'
p1161
(S'32.9440077'
p1162
S'-103.3485543'
p1163
tp1164
sS'Cibola'
p1165
(S'35.14726'
p1166
S'-107.8514466'
p1167
tp1168
sS'Quay'
p1169
(S'35.171723'
p1170
S'-103.7249662'
p1171
tp1172
sS'Chaves'
p1173
(S'33.3942655'
p1174
S'-104.5230242'
p1175
tp1176
sS'Catron'
p1177
(S'34.3439383'
p1178
S'-108.4956203'
p1179
tp1180
sS'Sandoval'
p1181
(S'35.233375'
p1182
S'-106.6644716'
p1183
tp1184
sS'Socorro'
p1185
(S'34.1597887'
p1186
S'-106.9103061'
p1187
tp1188
sS'Lincoln'
p1189
(S'33.3317494'
p1190
S'-105.6730411'
p1191
tp1192
sS'Colfax'
p1193
(S'36.3930879'
p1194
S'-105.2850091'
p1195
tp1196
sS'Roosevelt'
p1197
(S'33.8423111'
p1198
S'-103.7719053'
p1199
tp1200
sS'Los Alamos'
p1201
(S'35.8880796'
p1202
S'-106.3069722'
p1203
tp1204
sS'Curry'
p1205
(S'34.4303525'
p1206
S'-103.63246'
p1207
tp1208
sS'De Baca'
p1209
(S'34.4717333'
p1210
S'-104.2455304'
p1211
tp1212
sS'Santa Fe'
p1213
(S'35.6869752'
p1214
S'-105.937799'
p1215
tp1216
sS'Luna'
p1217
(S'32.2686981'
p1218
S'-107.7586404'
p1219
tp1220
sS'Do\xc3\xb1a Ana'
p1221
(S'32.3123157'
p1222
S'-106.7783374'
p1223
tp1224
sS'McKinley'
p1225
(S'35.4250259'
p1226
S'-108.3153489'
p1227
tp1228
ssS'TX'
p1229
(dp1230
S'Wilson'
p1231
(S'29.1335781'
p1232
S'-98.1561192'
p1233
tp1234
sS'Sherman'
p1235
(S'36.3361403'
p1236
S'-102.0721191'
p1237
tp1238
sS'Zapata'
p1239
(S'26.6381079'
p1240
S'-99.0955885'
p1241
tp1242
sS'Bowie'
p1243
(S'33.425125'
p1244
S'-94.0476882'
p1245
tp1246
sS'Brewster'
p1247
(S'30.3584919'
p1248
S'-103.6610115'
p1249
tp1250
sS'Gonzales'
p1251
(S'29.5241234'
p1252
S'-97.608052'
p1253
tp1254
sS'Burnet'
p1255
(S'30.7437957'
p1256
S'-98.0555763'
p1257
tp1258
sS'Duval'
p1259
(S'27.8827965'
p1260
S'-98.6177929'
p1261
tp1262
sS'Smith'
p1263
(S'32.3512601'
p1264
S'-95.3010624'
p1265
tp1266
sS'Chambers'
p1267
(S'29.8202205'
p1268
S'-94.3840777'
p1269
tp1270
sS'Montgomery'
p1271
(S'30.3882613'
p1272
S'-95.6963355'
p1273
tp1274
sS'Tyler'
p1275
(S'30.5765947'
p1276
S'-94.176299'
p1277
tp1278
sS'Hill'
p1279
(S'32.1426501'
p1280
S'-97.3972382'
p1281
tp1282
sS'Schleicher'
p1283
(S'30.8601745'
p1284
S'-100.6009299'
p1285
tp1286
sS'Robertson'
p1287
(S'30.7293628'
p1288
S'-96.490244'
p1289
tp1290
sS'Hudspeth'
p1291
(S'31.9387239'
p1292
S'-105.2013454'
p1293
tp1294
sS'La Salle'
p1295
(S'28.436934'
p1296
S'-99.2350322'
p1297
tp1298
sS'Trinity'
p1299
(S'31.0549071'
p1300
S'-95.1257691'
p1301
tp1302
sS'Henderson'
p1303
(S'32.3345888'
p1304
S'-96.1513627'
p1305
tp1306
sS'Brown'
p1307
(S'31.7093197'
p1308
S'-98.9911611'
p1309
tp1310
sS'Sabine'
p1311
(S'31.245743'
p1312
S'-93.7687929'
p1313
tp1314
sS'Angelina'
p1315
(S'31.3382406'
p1316
S'-94.729097'
p1317
tp1318
sS'Goliad'
p1319
(S'28.7697115'
p1320
S'-97.2966582'
p1321
tp1322
sS'Upton'
p1323
(S'31.2226477'
p1324
S'-101.9379085'
p1325
tp1326
sS'Blanco'
p1327
(S'30.4315837'
p1328
S'-98.3447448'
p1329
tp1330
sS'Pecos'
p1331
(S'30.8940431'
p1332
S'-102.8793222'
p1333
tp1334
sS'Live Oak'
p1335
(S'28.4602717'
p1336
S'-98.1825071'
p1337
tp1338
sS'Hockley'
p1339
(S'33.5873164'
p1340
S'-102.37796'
p1341
tp1342
sS'Victoria'
p1343
(S'28.8052674'
p1344
S'-97.0035982'
p1345
tp1346
sS'Montague'
p1347
(S'33.5589953'
p1348
S'-97.8486457'
p1349
tp1350
sS'El Paso'
p1351
(S'31.7587198'
p1352
S'-106.4869314'
p1353
tp1354
sS'Harris'
p1355
(S'29.7857853'
p1356
S'-95.8243956'
p1357
tp1358
sS'Coryell'
p1359
(S'31.124062'
p1360
S'-97.9030785'
p1361
tp1362
sS'Kendall'
p1363
(S'29.967715'
p1364
S'-98.9050337'
p1365
tp1366
sS'Shackelford'
p1367
(S'32.5476245'
p1368
S'-99.1659072'
p1369
tp1370
sS'Reagan'
p1371
(S'31.1915437'
p1372
S'-101.4603945'
p1373
tp1374
sS'Matagorda'
p1375
(S'28.9827565'
p1376
S'-95.969402'
p1377
tp1378
sS'Palo Pinto'
p1379
(S'32.8084605'
p1380
S'-98.1128223'
p1381
tp1382
sS'Uvalde'
p1383
(S'29.6152274'
p1384
S'-99.5269927'
p1385
tp1386
sS'Titus'
p1387
(S'33.2445617'
p1388
S'-94.9457685'
p1389
tp1390
sS'Camp'
p1391
(S'32.9954021'
p1392
S'-94.9657688'
p1393
tp1394
sS'Navarro'
p1395
(S'32.0954304'
p1396
S'-96.4688727'
p1397
tp1398
sS'Jeff Davis'
p1399
(S'30.5882111'
p1400
S'-103.8946253'
p1401
tp1402
sS'Burleson'
p1403
(S'30.5313152'
p1404
S'-96.6930303'
p1405
tp1406
sS'Tarrant'
p1407
(S'32.735687'
p1408
S'-97.1080656'
p1409
tp1410
sS'San Jacinto'
p1411
(S'30.483259'
p1412
S'-95.193549'
p1413
tp1414
sS'Erath'
p1415
(S'32.3881918'
p1416
S'-98.1672639'
p1417
tp1418
sS'Upshur'
p1419
(S'32.7287472'
p1420
S'-94.9424379'
p1421
tp1422
sS'Colorado'
p1423
(S'29.7030111'
p1424
S'-96.7805333'
p1425
tp1426
sS'Parker'
p1427
(S'32.9659566'
p1428
S'-97.6836384'
p1429
tp1430
sS'Aransas'
p1431
(S'28.0205733'
p1432
S'-97.0544341'
p1433
tp1434
sS'Stephens'
p1435
(S'32.5823465'
p1436
S'-99.0567378'
p1437
tp1438
sS'Armstrong'
p1439
(S'35.1117176'
p1440
S'-101.3632223'
p1441
tp1442
sS'Freestone'
p1443
(S'31.7246128'
p1444
S'-96.1652482'
p1445
tp1446
sS'Panola'
p1447
(S'32.1573841'
p1448
S'-94.3374199'
p1449
tp1450
sS'Potter'
p1451
(S'35.2219971'
p1452
S'-101.8312969'
p1453
tp1454
sS'Hall'
p1455
(S'34.7247758'
p1456
S'-100.5340144'
p1457
tp1458
sS'Milam'
p1459
(S'30.8532454'
p1460
S'-96.9769304'
p1461
tp1462
sS'Marion'
p1463
(S'32.7876413'
p1464
S'-94.0735169'
p1465
tp1466
sS'Jasper'
p1467
(S'30.9201995'
p1468
S'-93.9965759'
p1469
tp1470
sS'Lampasas'
p1471
(S'31.063784'
p1472
S'-98.1816957'
p1473
tp1474
sS'Hemphill'
p1475
(S'35.91282'
p1476
S'-100.3820772'
p1477
tp1478
sS'San Augustine'
p1479
(S'31.3068546'
p1480
S'-94.2690876'
p1481
tp1482
sS'Polk'
p1483
(S'30.711029'
p1484
S'-94.9329898'
p1485
tp1486
sS'Newton'
p1487
(S'30.9999178'
p1488
S'-93.6679539'
p1489
tp1490
sS'Jackson'
p1491
(S'28.9785947'
p1492
S'-96.6460877'
p1493
tp1494
sS'Kent'
p1495
(S'33.2481485'
p1496
S'-100.5737264'
p1497
tp1498
sS'Rusk'
p1499
(S'32.3312646'
p1500
S'-94.7924352'
p1501
tp1502
sS'Caldwell'
p1503
(S'29.8454994'
p1504
S'-97.8408364'
p1505
tp1506
sS'Washington'
p1507
(S'30.1821602'
p1508
S'-96.5955277'
p1509
tp1510
sS'Deaf Smith'
p1511
(S'34.8150622'
p1512
S'-102.3977036'
p1513
tp1514
sS'Mills'
p1515
(S'31.4704394'
p1516
S'-98.4089282'
p1517
tp1518
sS'Webb'
p1519
(S'27.506407'
p1520
S'-99.5075421'
p1521
tp1522
sS'Liberty'
p1523
(S'30.4527067'
p1524
S'-94.7688162'
p1525
tp1526
sS'Mason'
p1527
(S'30.7487884'
p1528
S'-99.230611'
p1529
tp1530
sS'Anderson'
p1531
(S'31.6251747'
p1532
S'-95.5793977'
p1533
tp1534
sS'Jefferson'
p1535
(S'30.0860459'
p1536
S'-94.1018461'
p1537
tp1538
sS'Dickens'
p1539
(S'33.4764767'
p1540
S'-100.8556857'
p1541
tp1542
sS'Orange'
p1543
(S'30.1316001'
p1544
S'-94.0154542'
p1545
tp1546
sS'Hardin'
p1547
(S'30.3715975'
p1548
S'-94.3124116'
p1549
tp1550
sS'Howard'
p1551
(S'32.250398'
p1552
S'-101.4787356'
p1553
tp1554
sS'Nacogdoches'
p1555
(S'31.6035129'
p1556
S'-94.6554874'
p1557
tp1558
sS'Lamar'
p1559
(S'33.6631622'
p1560
S'-95.4624548'
p1561
tp1562
sS'Lee'
p1563
(S'30.4190974'
p1564
S'-97.0116515'
p1565
tp1566
sS'Maverick'
p1567
(S'28.7091433'
p1568
S'-100.4995214'
p1569
tp1570
sS'DeWitt'
p1571
(S'29.0938652'
p1572
S'-97.2891568'
p1573
tp1574
sS'Crockett'
p1575
(S'30.7101731'
p1576
S'-101.2006665'
p1577
tp1578
sS'Wilbarger'
p1579
(S'34.1545306'
p1580
S'-99.2650804'
p1581
tp1582
sS'Hamilton'
p1583
(S'31.802096'
p1584
S'-98.1897589'
p1585
tp1586
sS'Terry'
p1587
(S'33.1812035'
p1588
S'-102.2743489'
p1589
tp1590
sS'Randall'
p1591
(S'34.9803342'
p1592
S'-101.9188024'
p1593
tp1594
sS'Ward'
p1595
(S'31.4612451'
p1596
S'-103.3937815'
p1597
tp1598
sS'Reeves'
p1599
(S'31.3693022'
p1600
S'-103.5379529'
p1601
tp1602
sS'Hays'
p1603
(S'30.1902067'
p1604
S'-98.0866781'
p1605
tp1606
sS'Johnson'
p1607
(S'32.5420821'
p1608
S'-97.3208492'
p1609
tp1610
sS'Hopkins'
p1611
(S'33.0167863'
p1612
S'-95.3674472'
p1613
tp1614
sS'Kerr'
p1615
(S'30.0474332'
p1616
S'-99.1403189'
p1617
tp1618
sS'Stonewall'
p1619
(S'33.1334307'
p1620
S'-100.2273276'
p1621
tp1622
sS'Archer'
p1623
(S'33.5956593'
p1624
S'-98.6256128'
p1625
tp1626
sS'Clay'
p1627
(S'33.9503748'
p1628
S'-98.34616'
p1629
tp1630
sS'Comal'
p1631
(S'29.8752177'
p1632
S'-98.2625127'
p1633
tp1634
sS'Borden'
p1635
(S'32.8703796'
p1636
S'-101.6301417'
p1637
tp1638
sS'Winkler'
p1639
(S'31.8576265'
p1640
S'-103.0926653'
p1641
tp1642
sS'Madison'
p1643
(S'31.0837966'
p1644
S'-95.925232'
p1645
tp1646
sS'Taylor'
p1647
(S'32.4487364'
p1648
S'-99.7331439'
p1649
tp1650
sS'Van Zandt'
p1651
(S'32.4459745'
p1652
S'-95.7038521'
p1653
tp1654
sS'Briscoe'
p1655
(S'34.350345'
p1656
S'-101.3304383'
p1657
tp1658
sS'Collingsworth'
p1659
(S'34.856166'
p1660
S'-100.2137263'
p1661
tp1662
sS'Travis'
p1663
(S'30.267153'
p1664
S'-97.7430608'
p1665
tp1666
sS'Cameron'
p1667
(S'26.0395222'
p1668
S'-97.5563763'
p1669
tp1670
sS'Nueces'
p1671
(S'27.8005828'
p1672
S'-97.396381'
p1673
tp1674
sS'Bastrop'
p1675
(S'30.0085542'
p1676
S'-97.1594321'
p1677
tp1678
sS'Hidalgo'
p1679
(S'26.2034071'
p1680
S'-98.2300124'
p1681
tp1682
sS'Gillespie'
p1683
(S'30.2752011'
p1684
S'-98.8719843'
p1685
tp1686
sS'Lamb'
p1687
(S'33.9173148'
p1688
S'-102.3249022'
p1689
tp1690
sS'Bexar'
p1691
(S'29.4241219'
p1692
S'-98.4936282'
p1693
tp1694
sS'McCulloch'
p1695
(S'31.1351682'
p1696
S'-99.3350553'
p1697
tp1698
sS'Midland'
p1699
(S'31.9973456'
p1700
S'-102.0779147'
p1701
tp1702
sS'Dallas'
p1703
(S'32.7830556'
p1704
S'-96.8066667'
p1705
tp1706
sS'Cherokee'
p1707
(S'31.963778'
p1708
S'-95.2705042'
p1709
tp1710
sS'Collin'
p1711
(S'33.078174'
p1712
S'-96.4952654'
p1713
tp1714
sS'Red River'
p1715
(S'33.4706656'
p1716
S'-95.2138351'
p1717
tp1718
sS'Guadalupe'
p1719
(S'29.561618'
p1720
S'-98.2269553'
p1721
tp1722
sS'McLennan'
p1723
(S'31.4623902'
p1724
S'-97.1958377'
p1725
tp1726
sS'Starr'
p1727
(S'26.6681128'
p1728
S'-98.5644646'
p1729
tp1730
sS'Shelby'
p1731
(S'31.7954512'
p1732
S'-94.1790862'
p1733
tp1734
sS'Tom Green'
p1735
(S'31.4637723'
p1736
S'-100.4370375'
p1737
tp1738
sS'Frio'
p1739
(S'28.8921939'
p1740
S'-99.095033'
p1741
tp1742
sS'Gregg'
p1743
(S'32.5365333'
p1744
S'-94.9427169'
p1745
tp1746
sS'Wheeler'
p1747
(S'35.6058803'
p1748
S'-100.1006736'
p1749
tp1750
sS'Fayette'
p1751
(S'30.1493838'
p1752
S'-96.6860862'
p1753
tp1754
sS'Medina'
p1755
(S'29.5441184'
p1756
S'-98.923085'
p1757
tp1758
sS'Wharton'
p1759
(S'29.1133102'
p1760
S'-96.3244109'
p1761
tp1762
sS'San Saba'
p1763
(S'31.1618339'
p1764
S'-98.9092119'
p1765
tp1766
sS'Zavala'
p1767
(S'28.9410814'
p1768
S'-99.8497801'
p1769
tp1770
sS'Garza'
p1771
(S'33.1909283'
p1772
S'-101.3781941'
p1773
tp1774
sS'Bosque'
p1775
(S'32.0576479'
p1776
S'-97.7494711'
p1777
tp1778
sS'Jim Wells'
p1779
(S'27.7522487'
p1780
S'-98.0697249'
p1781
tp1782
sS'Kinney'
p1783
(S'29.3105125'
p1784
S'-100.4178563'
p1785
tp1786
sS'Galveston'
p1787
(S'29.3685674'
p1788
S'-94.9713134'
p1789
tp1790
sS'Eastland'
p1791
(S'32.0959745'
p1792
S'-98.963671'
p1793
tp1794
sS'Jack'
p1795
(S'33.2184477'
p1796
S'-98.1586558'
p1797
tp1798
sS'Hutchinson'
p1799
(S'35.6397656'
p1800
S'-101.603228'
p1801
tp1802
sS'Jim Hogg'
p1803
(S'27.3067057'
p1804
S'-98.6783517'
p1805
tp1806
sS'Bee'
p1807
(S'28.4008319'
p1808
S'-97.7483312'
p1809
tp1810
sS'Lavaca'
p1811
(S'29.4438528'
p1812
S'-96.9410929'
p1813
tp1814
sS'Rains'
p1815
(S'32.874566'
p1816
S'-95.7655183'
p1817
tp1818
sS'Cooke'
p1819
(S'33.6259414'
p1820
S'-97.1333453'
p1821
tp1822
sS'Franklin'
p1823
(S'33.0440087'
p1824
S'-95.2691103'
p1825
tp1826
sS'Fisher'
p1827
(S'32.7987176'
p1828
S'-100.5084432'
p1829
tp1830
sS'Walker'
p1831
(S'30.7235263'
p1832
S'-95.5507771'
p1833
tp1834
sS'Austin'
p1835
(S'0'
p1836
g1836
tp1837
sS'Llano'
p1838
(S'30.6776836'
p1839
S'-98.5214209'
p1840
tp1841
sS'Bell'
p1842
(S'31.0835102'
p1843
S'-97.6597377'
p1844
tp1845
sS'Floyd'
p1846
(S'34.1434068'
p1847
S'-101.2043197'
p1848
tp1849
sS'Brazoria'
p1850
(S'29.5635666'
p1851
S'-95.2860474'
p1852
tp1853
sS'Leon'
p1854
(S'31.0749073'
p1855
S'-96.1427375'
p1856
tp1857
sS'Kaufman'
p1858
(S'32.7359626'
p1859
S'-96.2752569'
p1860
tp1861
sS'Bandera'
p1862
(S'29.7266131'
p1863
S'-99.0736462'
p1864
tp1865
sS'Harrison'
p1866
(S'32.6165355'
p1867
S'-94.3193601'
p1868
tp1869
sS'Hardeman'
p1870
(S'34.2564709'
p1871
S'-99.5167558'
p1872
tp1873
sS'San Patricio'
p1874
(S'27.8778026'
p1875
S'-97.211657'
p1876
tp1877
sS'Hood'
p1878
(S'32.4420826'
p1879
S'-97.7941967'
p1880
tp1881
sS'Denton'
p1882
(S'33.046233'
p1883
S'-96.994174'
p1884
tp1885
sS'Rockwall'
p1886
(S'32.9751204'
p1887
S'-96.3324817'
p1888
tp1889
sS'Ellis'
p1890
(S'32.5265264'
p1891
S'-96.8863898'
p1892
tp1893
sS'Sutton'
p1894
(S'30.5668484'
p1895
S'-100.6434273'
p1896
tp1897
sS'Lubbock'
p1898
(S'33.7659165'
p1899
S'-101.9576725'
p1900
tp1901
sS'Edwards'
p1902
(S'29.7935494'
p1903
S'-100.6748151'
p1904
tp1905
sS'Wood'
p1906
(S'32.9265125'
p1907
S'-95.3249464'
p1908
tp1909
sS'Roberts'
p1910
(S'35.6914327'
p1911
S'-100.6381933'
p1912
tp1913
sS'Coleman'
p1914
(S'31.6768186'
p1915
S'-99.253666'
p1916
tp1917
sS'Real'
p1918
(S'29.7288351'
p1919
S'-99.761448'
p1920
tp1921
sS'Williamson'
p1922
(S'30.6379733'
p1923
S'-97.5408381'
p1924
tp1925
sS'Runnels'
p1926
(S'31.9565343'
p1927
S'-99.962313'
p1928
tp1929
sS'Brazos'
p1930
(S'30.627977'
p1931
S'-96.3344068'
p1932
tp1933
sS'Falls'
p1934
(S'31.0729608'
p1935
S'-96.9785993'
p1936
tp1937
sS'Hale'
p1938
(S'33.8695249'
p1939
S'-101.5973877'
p1940
tp1941
sS'Andrews'
p1942
(S'32.3187158'
p1943
S'-102.5457155'
p1944
tp1945
sS'Ector'
p1946
(S'31.8456816'
p1947
S'-102.3676431'
p1948
tp1949
sS'Jones'
p1950
(S'32.7565042'
p1951
S'-99.896207'
p1952
tp1953
sS'Lynn'
p1954
(S'33.166758'
p1955
S'-102.0498903'
p1956
tp1957
sS'Wise'
p1958
(S'33.0534563'
p1959
S'-97.4719662'
p1960
tp1961
sS'Fort Bend'
p1962
(S'29.6196787'
p1963
S'-95.6349463'
p1964
tp1965
sS'Hunt'
p1966
(S'32.9103998'
p1967
S'-96.1355295'
p1968
tp1969
sS'Wichita'
p1970
(S'33.9137085'
p1971
S'-98.4933873'
p1972
tp1973
sS'Willacy'
p1974
(S'26.5547883'
p1975
S'-97.4249807'
p1976
tp1977
sS'Concho'
p1978
(S'31.508491'
p1979
S'-99.9200779'
p1980
tp1981
sS'Grayson'
p1982
(S'33.4478881'
p1983
S'-96.747494'
p1984
tp1985
sS'Cass'
p1986
(S'32.8998554'
p1987
S'-94.5563119'
p1988
tp1989
sS'Waller'
p1990
(S'30.0688308'
p1991
S'-96.1141262'
p1992
tp1993
sS'Yoakum'
p1994
(S'33.2570508'
p1995
S'-103.0591102'
p1996
tp1997
sS'Gray'
p1998
(S'35.5361559'
p1999
S'-100.9598709'
p2000
tp2001
sS'Kleberg'
p2002
(S'27.5158689'
p2003
S'-97.856109'
p2004
tp2005
sS'Mitchell'
p2006
(S'32.3881745'
p2007
S'-100.8645576'
p2008
tp2009
sS'Dawson'
p2010
(S'32.7376001'
p2011
S'-101.9509921'
p2012
tp2013
sS'Grimes'
p2014
(S'30.3879845'
p2015
S'-96.0877349'
p2016
tp2017
sS'Comanche'
p2018
(S'31.8973693'
p2019
S'-98.6036581'
p2020
tp2021
sS'Houston'
p2022
(S'31.2232382'
p2023
S'-95.2616055'
p2024
tp2025
sS'Limestone'
p2026
(S'31.5979455'
p2027
S'-96.776656'
p2028
tp2029
sS'Val Verde'
p2030
(S'29.3627296'
p2031
S'-100.896761'
p2032
tp2033
sS'Presidio'
p2034
(S'29.5607383'
p2035
S'-104.3721465'
p2036
tp2037
sS'Atascosa'
p2038
(S'28.967194'
p2039
S'-98.4786269'
p2040
tp2041
sS'Fannin'
p2042
(S'33.6520481'
p2043
S'-96.1797013'
p2044
tp2045
sS'Kimble'
p2046
(S'30.4893555'
p2047
S'-99.7720109'
p2048
tp2049
sS'Haskell'
p2050
(S'33.0203845'
p2051
S'-99.8239825'
p2052
tp2053
sS'Callahan'
p2054
(S'32.2587418'
p2055
S'-99.5395219'
p2056
tp2057
sS'Somervell'
p2058
(S'32.2345872'
p2059
S'-97.7553061'
p2060
tp2061
ssS'LA'
p2062
(dp2063
S'Orleans'
p2064
(S'29.9546482'
p2065
S'-90.075072'
p2066
tp2067
sS'Jackson'
p2068
(S'32.2412672'
p2069
S'-92.7159854'
p2070
tp2071
sS'Richland'
p2072
(S'32.4865316'
p2073
S'-91.8592945'
p2074
tp2075
sS'Grant'
p2076
(S'31.5257321'
p2077
S'-92.4070823'
p2078
tp2079
sS'Union'
p2080
(S'32.9015214'
p2081
S'-92.2420822'
p2082
tp2083
sS'Plaquemines'
p2084
(S'29.277165'
p2085
S'-89.3547759'
p2086
tp2087
sS'Tangipahoa'
p2088
(S'30.4388041'
p2089
S'-90.4414762'
p2090
tp2091
sS'Jefferson'
p2092
(S'29.9146493'
p2093
S'-90.0539604'
p2094
tp2095
sS'St. John the Baptist'
p2096
(S'30.023536'
p2097
S'-90.5711981'
p2098
tp2099
sS'Jefferson Davis'
p2100
(S'30.235485'
p2101
S'-92.9215367'
p2102
tp2103
sS'St. Mary'
p2104
(S'29.6993748'
p2105
S'-91.20677'
p2106
tp2107
sS'Webster'
p2108
(S'32.9415284'
p2109
S'-93.2987799'
p2110
tp2111
sS'La Salle'
p2112
(S'31.6832271'
p2113
S'-92.1337448'
p2114
tp2115
sS'Allen'
p2116
(S'30.485479'
p2117
S'-92.850703'
p2118
tp2119
sS'Terrebonne'
p2120
(S'29.5957696'
p2121
S'-90.7195348'
p2122
tp2123
sS'Ouachita'
p2124
(S'32.5184775'
p2125
S'-92.1476353'
p2126
tp2127
sS'Pointe Coupee'
p2128
(S'30.5590803'
p2129
S'-91.555945'
p2130
tp2131
sS'East Feliciana'
p2132
(S'30.7912935'
p2133
S'-91.1306623'
p2134
tp2135
sS'Caldwell'
p2136
(S'32.1051567'
p2137
S'-92.0779129'
p2138
tp2139
sS'St. James'
p2140
(S'30.0263132'
p2141
S'-90.7131467'
p2142
tp2143
sS'St. Tammany'
p2144
(S'30.6301889'
p2145
S'-90.1873048'
p2146
tp2147
sS'St. Bernard'
p2148
(S'29.8957605'
p2149
S'-89.8978439'
p2150
tp2151
sS'Acadia'
p2152
(S'30.4029776'
p2153
S'-92.2151256'
p2154
tp2155
sS'De Soto'
p2156
(S'32.0376629'
p2157
S'-93.7001819'
p2158
tp2159
sS'Caddo'
p2160
(S'32.5251516'
p2161
S'-93.7501789'
p2162
tp2163
sS'Sabine'
p2164
(S'31.5687848'
p2165
S'-93.4840645'
p2166
tp2167
sS'Lincoln'
p2168
(S'32.5232053'
p2169
S'-92.637927'
p2170
tp2171
sS'Natchitoches'
p2172
(S'31.7582195'
p2173
S'-93.150166'
p2174
tp2175
sS'Iberia'
p2176
(S'30.0035365'
p2177
S'-91.8187285'
p2178
tp2179
sS'St. Landry'
p2180
(S'30.4943669'
p2181
S'-92.4176324'
p2182
tp2183
sS'St. Charles'
p2184
(S'29.8238196'
p2185
S'-90.4750838'
p2186
tp2187
sS'East Carroll'
p2188
(S'32.8042966'
p2189
S'-91.170109'
p2190
tp2191
sS'Lafourche'
p2192
(S'29.5427168'
p2193
S'-90.3381361'
p2194
tp2195
sS'Cameron'
p2196
(S'29.9960464'
p2197
S'-93.3420996'
p2198
tp2199
sS'Calcasieu'
p2200
(S'30.2265949'
p2201
S'-93.2173759'
p2202
tp2203
sS'Rapides'
p2204
(S'31.3112936'
p2205
S'-92.4451371'
p2206
tp2207
sS'Livingston'
p2208
(S'30.4868564'
p2209
S'-90.9562125'
p2210
tp2211
sS'Lafayette'
p2212
(S'30.2240897'
p2213
S'-92.0198427'
p2214
tp2215
sS'Franklin'
p2216
(S'32.1632079'
p2217
S'-91.720681'
p2218
tp2219
sS'Avoyelles'
p2220
(S'31.2482404'
p2221
S'-92.2098516'
p2222
tp2223
sS'Morehouse'
p2224
(S'32.7562463'
p2225
S'-91.8723497'
p2226
tp2227
sS'Beauregard'
p2228
(S'30.8463055'
p2229
S'-93.2890528'
p2230
tp2231
sS'Bossier'
p2232
(S'32.5326514'
p2233
S'-93.5040627'
p2234
tp2235
sS'West Baton Rouge'
p2236
(S'30.3943588'
p2237
S'-91.2537199'
p2238
tp2239
sS'East Baton Rouge'
p2240
(S'30.4507462'
p2241
S'-91.154551'
p2242
tp2243
sS'Washington'
p2244
(S'30.7910204'
p2245
S'-89.8486858'
p2246
tp2247
sS'Vermilion'
p2248
(S'29.997984'
p2249
S'-92.2848515'
p2250
tp2251
sS'Bienville'
p2252
(S'32.2532134'
p2253
S'-93.1657218'
p2254
tp2255
sS'Assumption'
p2256
(S'29.9404803'
p2257
S'-91.0248214'
p2258
tp2259
sS'Ascension'
p2260
(S'30.2385294'
p2261
S'-90.9200987'
p2262
tp2263
sS'St. Martin'
p2264
(S'30.2735323'
p2265
S'-91.8992837'
p2266
tp2267
sS'Iberville'
p2268
(S'30.2890833'
p2269
S'-91.2342744'
p2270
tp2271
ssS'NC'
p2272
(dp2273
S'Wilson'
p2274
(S'35.7212689'
p2275
S'-77.9155395'
p2276
tp2277
sS'Currituck'
p2278
(S'36.3812697'
p2279
S'-75.8329731'
p2280
tp2281
sS'Union'
p2282
(S'34.9854275'
p2283
S'-80.5495112'
p2284
tp2285
sS'Bladen'
p2286
(S'34.640449'
p2287
S'-78.4838952'
p2288
tp2289
sS'Montgomery'
p2290
(S'35.3584743'
p2291
S'-79.8944901'
p2292
tp2293
sS'Wayne'
p2294
(S'35.3848841'
p2295
S'-77.9927651'
p2296
tp2297
sS'Robeson'
p2298
(S'34.9026635'
p2299
S'-79.0116971'
p2300
tp2301
sS'Brunswick'
p2302
(S'33.9732275'
p2303
S'-78.3858371'
p2304
tp2305
sS'Henderson'
p2306
(S'35.3456701'
p2307
S'-82.6023453'
p2308
tp2309
sS'Anson'
p2310
(S'35.1123727'
p2311
S'-80.2445063'
p2312
tp2313
sS'Catawba'
p2314
(S'35.6698552'
p2315
S'-81.2214708'
p2316
tp2317
sS'Yadkin'
p2318
(S'36.1345807'
p2319
S'-80.6595079'
p2320
tp2321
sS'Stokes'
p2322
(S'36.3293051'
p2323
S'-80.4331116'
p2324
tp2325
sS'Pasquotank'
p2326
(S'36.2946008'
p2327
S'-76.2510461'
p2328
tp2329
sS'Hoke'
p2330
(S'34.9809996'
p2331
S'-79.2241998'
p2332
tp2333
sS'Wilkes'
p2334
(S'36.1584651'
p2335
S'-81.1475841'
p2336
tp2337
sS'Alamance'
p2338
(S'36.0956918'
p2339
S'-79.4377991'
p2340
tp2341
sS'Moore'
p2342
(S'35.3459867'
p2343
S'-79.4169711'
p2344
tp2345
sS'Washington'
p2346
(S'35.8779403'
p2347
S'-76.6152183'
p2348
tp2349
sS'Duplin'
p2350
(S'35.1162764'
p2351
S'-78.1361033'
p2352
tp2353
sS'Cabarrus'
p2354
(S'35.4873613'
p2355
S'-80.6217341'
p2356
tp2357
sS'Camden'
p2358
(S'36.4601534'
p2359
S'-76.393276'
p2360
tp2361
sS'New Hanover'
p2362
(S'34.2257256'
p2363
S'-77.9447102'
p2364
tp2365
sS'Polk'
p2366
(S'35.2081695'
p2367
S'-82.2384479'
p2368
tp2369
sS'Warren'
p2370
(S'36.3984804'
p2371
S'-78.1552706'
p2372
tp2373
sS'Watauga'
p2374
(S'36.216795'
p2375
S'-81.6745517'
p2376
tp2377
sS'Jackson'
p2378
(S'35.3737111'
p2379
S'-83.2259803'
p2380
tp2381
sS'Transylvania'
p2382
(S'35.2542808'
p2383
S'-82.7001242'
p2384
tp2385
sS'Caldwell'
p2386
(S'35.7965205'
p2387
S'-81.4306458'
p2388
tp2389
sS'Onslow'
p2390
(S'34.7540524'
p2391
S'-77.4302415'
p2392
tp2393
sS'Granville'
p2394
(S'36.3107004'
p2395
S'-78.5908345'
p2396
tp2397
sS'Orange'
p2398
(S'35.9101438'
p2399
S'-79.0752895'
p2400
tp2401
sS'Burke'
p2402
(S'35.7454071'
p2403
S'-81.6848188'
p2404
tp2405
sS'Lee'
p2406
(S'35.4798757'
p2407
S'-79.1802994'
p2408
tp2409
sS'Avery'
p2410
(S'36.0665163'
p2411
S'-81.8703896'
p2412
tp2413
sS'Buncombe'
p2414
(S'35.536498'
p2415
S'-82.692907'
p2416
tp2417
sS'Guilford'
p2418
(S'36.0726355'
p2419
S'-79.7919754'
p2420
tp2421
sS'Durham'
p2422
(S'35.9940329'
p2423
S'-78.898619'
p2424
tp2425
sS'Wake'
p2426
(S'35.772096'
p2427
S'-78.6386145'
p2428
tp2429
sS'Chatham'
p2430
(S'35.7234734'
p2431
S'-79.4622431'
p2432
tp2433
sS'Beaufort'
p2434
(S'35.5465517'
p2435
S'-77.0521742'
p2436
tp2437
sS'Vance'
p2438
(S'36.3295905'
p2439
S'-78.3991638'
p2440
tp2441
sS'Rutherford'
p2442
(S'35.3601212'
p2443
S'-81.929271'
p2444
tp2445
sS'Harnett'
p2446
(S'35.42516'
p2447
S'-78.8147409'
p2448
tp2449
sS'Davie'
p2450
(S'35.9412482'
p2451
S'-80.4092217'
p2452
tp2453
sS'Pender'
p2454
(S'34.4626671'
p2455
S'-78.1011055'
p2456
tp2457
sS'Forsyth'
p2458
(S'36.1198589'
p2459
S'-80.0736533'
p2460
tp2461
sS'Clay'
p2462
(S'35.0462004'
p2463
S'-83.8179527'
p2464
tp2465
sS'Macon'
p2466
(S'35.1823171'
p2467
S'-83.3815429'
p2468
tp2469
sS'Madison'
p2470
(S'35.7973284'
p2471
S'-82.6840252'
p2472
tp2473
sS'Gaston'
p2474
(S'35.3398565'
p2475
S'-81.3220272'
p2476
tp2477
sS'Northampton'
p2478
(S'36.4370974'
p2479
S'-77.2288563'
p2480
tp2481
sS'Hyde'
p2482
(S'35.1146152'
p2483
S'-75.9810097'
p2484
tp2485
sS'Stanly'
p2486
(S'35.4431965'
p2487
S'-80.2192225'
p2488
tp2489
sS'Lenoir'
p2490
(S'35.2626635'
p2491
S'-77.5816353'
p2492
tp2493
sS'Cherokee'
p2494
(S'35.1231345'
p2495
S'-84.2940873'
p2496
tp2497
sS'Scotland'
p2498
(S'34.8879397'
p2499
S'-79.3661515'
p2500
tp2501
sS'Richmond'
p2502
(S'34.9393201'
p2503
S'-79.7739457'
p2504
tp2505
sS'Davidson'
p2506
(S'35.8826369'
p2507
S'-80.0819879'
p2508
tp2509
sS'Columbus'
p2510
(S'34.3387802'
p2511
S'-78.7030721'
p2512
tp2513
sS'Mecklenburg'
p2514
(S'35.2270869'
p2515
S'-80.8431268'
p2516
tp2517
sS'Bertie'
p2518
(S'36.2296005'
p2519
S'-77.1141282'
p2520
tp2521
sS'Alexander'
p2522
(S'35.9037438'
p2523
S'-81.0906356'
p2524
tp2525
sS'Lincoln'
p2526
(S'35.5545766'
p2527
S'-81.5028683'
p2528
tp2529
sS'Sampson'
p2530
(S'34.9829465'
p2531
S'-78.4166696'
p2532
tp2533
sS'Edgecombe'
p2534
(S'35.9098789'
p2535
S'-77.5452497'
p2536
tp2537
sS'Ashe'
p2538
(S'36.420403'
p2539
S'-81.4734376'
p2540
tp2541
sS'Craven'
p2542
(S'34.8790492'
p2543
S'-76.9013301'
p2544
tp2545
sS'Iredell'
p2546
(S'35.7826363'
p2547
S'-80.8872959'
p2548
tp2549
sS'Franklin'
p2550
(S'36.0248732'
p2551
S'-78.4744439'
p2552
tp2553
sS'Carteret'
p2554
(S'34.7993274'
p2555
S'-76.909386'
p2556
tp2557
sS'Johnston'
p2558
(S'35.650711'
p2559
S'-78.4563914'
p2560
tp2561
sS'Nash'
p2562
(S'35.9382103'
p2563
S'-77.790534'
p2564
tp2565
sS'Caswell'
p2566
(S'36.394584'
p2567
S'-79.1544596'
p2568
tp2569
sS'Cleveland'
p2570
(S'35.2923513'
p2571
S'-81.5356463'
p2572
tp2573
sS'Halifax'
p2574
(S'36.4648726'
p2575
S'-77.6797027'
p2576
tp2577
sS'Cumberland'
p2578
(S'35.0526641'
p2579
S'-78.8783585'
p2580
tp2581
sS'Rockingham'
p2582
(S'36.385415'
p2583
S'-79.959485'
p2584
tp2585
sS'Rowan'
p2586
(S'35.7212505'
p2587
S'-80.4989482'
p2588
tp2589
sS'McDowell'
p2590
(S'35.6840131'
p2591
S'-82.0092745'
p2592
tp2593
sS'Haywood'
p2594
(S'35.5278815'
p2595
S'-82.9595811'
p2596
tp2597
sS'Pamlico'
p2598
(S'35.0257168'
p2599
S'-76.8254925'
p2600
tp2601
sS'Dare'
p2602
(S'36.0307226'
p2603
S'-75.6760101'
p2604
tp2605
sS'Jones'
p2606
(S'35.0671046'
p2607
S'-77.352737'
p2608
tp2609
sS'Pitt'
p2610
(S'35.3726629'
p2611
S'-77.4374642'
p2612
tp2613
sS'Martin'
p2614
(S'35.9637687'
p2615
S'-77.3080209'
p2616
tp2617
sS'Mitchell'
p2618
(S'35.9154007'
p2619
S'-82.0645611'
p2620
tp2621
sS'Gates'
p2622
(S'36.4273762'
p2623
S'-76.8532909'
p2624
tp2625
sS'Person'
p2626
(S'36.4459737'
p2627
S'-79.0664018'
p2628
tp2629
sS'Yancey'
p2630
(S'35.9173358'
p2631
S'-82.300961'
p2632
tp2633
sS'Surry'
p2634
(S'36.4893004'
p2635
S'-80.6336757'
p2636
tp2637
sS'Perquimans'
p2638
(S'36.1459923'
p2639
S'-76.410772'
p2640
tp2641
sS'Randolph'
p2642
(S'35.7079146'
p2643
S'-79.8136446'
p2644
tp2645
ssS'ND'
p2646
(dp2647
S'Stutsman'
p2648
(S'46.9105438'
p2649
S'-98.7084357'
p2650
tp2651
sS'Richland'
p2652
(S'46.4694065'
p2653
S'-96.8745267'
p2654
tp2655
sS'Kidder'
p2656
(S'47.1435993'
p2657
S'-99.9945518'
p2658
tp2659
sS'Stark'
p2660
(S'46.8838957'
p2661
S'-102.3157292'
p2662
tp2663
sS'Grand Forks'
p2664
(S'47.9252568'
p2665
S'-97.0328547'
p2666
tp2667
sS'Williams'
p2668
(S'48.1469683'
p2669
S'-103.6179745'
p2670
tp2671
sS'Dunn'
p2672
(S'47.3544535'
p2673
S'-102.3360118'
p2674
tp2675
sS'Ramsey'
p2676
(S'48.2216668'
p2677
S'-99.0890209'
p2678
tp2679
sS'Ward'
p2680
(S'48.2325095'
p2681
S'-101.2962732'
p2682
tp2683
sS'Benson'
p2684
(S'47.9799986'
p2685
S'-98.9929005'
p2686
tp2687
sS'McLean'
p2688
(S'47.6522225'
p2689
S'-101.4157165'
p2690
tp2691
sS'Sioux'
p2692
(S'46.0869408'
p2693
S'-100.6301271'
p2694
tp2695
sS'Rolette'
p2696
(S'48.8391713'
p2697
S'-99.7448688'
p2698
tp2699
sS'Cass'
p2700
(S'46.8771863'
p2701
S'-96.7898034'
p2702
tp2703
sS'Cavalier'
p2704
(S'48.7600007'
p2705
S'-98.3681728'
p2706
tp2707
sS'Steele'
p2708
(S'47.3222102'
p2709
S'-97.7223196'
p2710
tp2711
sS'Logan'
p2712
(S'46.5083133'
p2713
S'-99.7712195'
p2714
tp2715
sS'Traill'
p2716
(S'47.4980408'
p2717
S'-97.3245354'
p2718
tp2719
sS'Emmons'
p2720
(S'46.4847126'
p2721
S'-100.2795573'
p2722
tp2723
sS'Morton'
p2724
(S'46.8266603'
p2725
S'-100.8895762'
p2726
tp2727
sS'Mercer'
p2728
(S'47.2944481'
p2729
S'-101.622665'
p2730
tp2731
sS'Burleigh'
p2732
(S'46.8083268'
p2733
S'-100.7837392'
p2734
tp2735
ssS'NE'
p2736
(dp2737
S'Lancaster'
p2738
(S'40.8000011'
p2739
S'-96.6669599'
p2740
tp2741
sS'Box Butte'
p2742
(S'42.1016344'
p2743
S'-102.872145'
p2744
tp2745
sS'Frontier'
p2746
(S'40.6625066'
p2747
S'-100.0295705'
p2748
tp2749
sS'Pierce'
p2750
(S'42.3600032'
p2751
S'-97.5967282'
p2752
tp2753
sS'Cherry'
p2754
(S'42.6386118'
p2755
S'-100.2381825'
p2756
tp2757
sS'Clay'
p2758
(S'40.3547334'
p2759
S'-98.1386573'
p2760
tp2761
sS'Otoe'
p2762
(S'40.7236135'
p2763
S'-96.1169524'
p2764
tp2765
sS'Douglas'
p2766
(S'41.2586096'
p2767
S'-95.937792'
p2768
tp2769
sS'Gage'
p2770
(S'40.2680555'
p2771
S'-96.7469704'
p2772
tp2773
sS'Wayne'
p2774
(S'42.2305588'
p2775
S'-97.0178236'
p2776
tp2777
sS'Dixon'
p2778
(S'42.5624971'
p2779
S'-96.7055918'
p2780
tp2781
sS'Hooker'
p2782
(S'42.0427753'
p2783
S'-101.0426593'
p2784
tp2785
sS'Valley'
p2786
(S'41.6033429'
p2787
S'-98.9261987'
p2788
tp2789
sS'Dodge'
p2790
(S'41.4619485'
p2791
S'-96.7797515'
p2792
tp2793
sS'Brown'
p2794
(S'42.5499993'
p2795
S'-99.8626236'
p2796
tp2797
sS'Stanton'
p2798
(S'41.950284'
p2799
S'-97.2239336'
p2800
tp2801
sS'Sarpy'
p2802
(S'41.1544433'
p2803
S'-96.0422378'
p2804
tp2805
sS'Thurston'
p2806
(S'42.2358272'
p2807
S'-96.4725338'
p2808
tp2809
sS'Buffalo'
p2810
(S'40.699457'
p2811
S'-99.0814767'
p2812
tp2813
sS'Holt'
p2814
(S'42.4755589'
p2815
S'-98.8062032'
p2816
tp2817
sS'Burt'
p2818
(S'41.8358265'
p2819
S'-96.4669709'
p2820
tp2821
sS'Merrick'
p2822
(S'41.3089032'
p2823
S'-97.6578294'
p2824
tp2825
sS'Hamilton'
p2826
(S'40.8789014'
p2827
S'-97.8858867'
p2828
tp2829
sS'York'
p2830
(S'40.8680673'
p2831
S'-97.5919955'
p2832
tp2833
sS'Cedar'
p2834
(S'42.3786127'
p2835
S'-97.3570005'
p2836
tp2837
sS'Knox'
p2838
(S'42.7119455'
p2839
S'-98.074517'
p2840
tp2841
sS'Keith'
p2842
(S'41.1280481'
p2843
S'-101.7196184'
p2844
tp2845
sS'Hall'
p2846
(S'40.9250123'
p2847
S'-98.3420068'
p2848
tp2849
sS'Scotts Bluff'
p2850
(S'41.8666341'
p2851
S'-103.6671662'
p2852
tp2853
sS'Lincoln'
p2854
(S'41.1238873'
p2855
S'-100.7654232'
p2856
tp2857
sS'Hitchcock'
p2858
(S'40.3491653'
p2859
S'-101.1076608'
p2860
tp2861
sS'Adams'
p2862
(S'40.6211255'
p2863
S'-98.6575705'
p2864
tp2865
sS'Johnson'
p2866
(S'40.3666666'
p2867
S'-96.19612'
p2868
tp2869
sS'Custer'
p2870
(S'41.5565728'
p2871
S'-99.2407465'
p2872
tp2873
sS'Kearney'
p2874
(S'40.4986252'
p2875
S'-98.9478594'
p2876
tp2877
sS'Arthur'
p2878
(S'41.5716538'
p2879
S'-101.691565'
p2880
tp2881
sS'Franklin'
p2882
(S'40.0961242'
p2883
S'-98.9525807'
p2884
tp2885
sS'Cass'
p2886
(S'41.0113881'
p2887
S'-95.8822312'
p2888
tp2889
sS'Cuming'
p2890
(S'41.8416659'
p2891
S'-96.7086432'
p2892
tp2893
sS'Richardson'
p2894
(S'40.0608352'
p2895
S'-95.6019294'
p2896
tp2897
sS'Seward'
p2898
(S'40.7744509'
p2899
S'-97.0505887'
p2900
tp2901
sS'Keya Paha'
p2902
(S'42.8244444'
p2903
S'-99.7490055'
p2904
tp2905
sS'Fillmore'
p2906
(S'40.6441737'
p2907
S'-97.4503271'
p2908
tp2909
sS'Saunders'
p2910
(S'41.0572232'
p2911
S'-96.6447377'
p2912
tp2913
sS'Platte'
p2914
(S'41.6916753'
p2915
S'-97.4844907'
p2916
tp2917
sS'Greeley'
p2918
(S'41.6889002'
p2919
S'-98.363404'
p2920
tp2921
sS'Red Willow'
p2922
(S'40.2019477'
p2923
S'-100.6257077'
p2924
tp2925
sS'Washington'
p2926
(S'41.4558282'
p2927
S'-96.0264024'
p2928
tp2929
sS'Boyd'
p2930
(S'42.9113874'
p2931
S'-98.8492562'
p2932
tp2933
sS'Garfield'
p2934
(S'41.7816732'
p2935
S'-99.1331539'
p2936
tp2937
sS'Dawes'
p2938
(S'42.8294187'
p2939
S'-102.999907'
p2940
tp2941
sS'Dakota'
p2942
(S'42.4155496'
p2943
S'-96.4183637'
p2944
tp2945
sS'Polk'
p2946
(S'41.1797366'
p2947
S'-97.5475501'
p2948
tp2949
sS'Cheyenne'
p2950
(S'41.1427623'
p2951
S'-102.9779785'
p2952
tp2953
ssS'TN'
p2954
(dp2955
S'Wilson'
p2956
(S'36.200055'
p2957
S'-86.5186054'
p2958
tp2959
sS'Blount'
p2960
(S'35.8275832'
p2961
S'-83.9407373'
p2962
tp2963
sS'Shelby'
p2964
(S'35.1495343'
p2965
S'-90.0489801'
p2966
tp2967
sS'Union'
p2968
(S'36.3436912'
p2969
S'-83.8040793'
p2970
tp2971
sS'Smith'
p2972
(S'36.2522766'
p2973
S'-85.951654'
p2974
tp2975
sS'Montgomery'
p2976
(S'36.5297706'
p2977
S'-87.3594529'
p2978
tp2979
sS'Wayne'
p2980
(S'35.0442495'
p2981
S'-87.6758589'
p2982
tp2983
sS'Robertson'
p2984
(S'36.5092119'
p2985
S'-86.8849984'
p2986
tp2987
sS'White'
p2988
(S'36.0050647'
p2989
S'-85.3885844'
p2990
tp2991
sS'Hamblen'
p2992
(S'36.2139814'
p2993
S'-83.2948922'
p2994
tp2995
sS'Henderson'
p2996
(S'35.681736'
p2997
S'-88.5692191'
p2998
tp2999
sS'Weakley'
p3000
(S'36.4033929'
p3001
S'-88.5872732'
p3002
tp3003
sS'Dickson'
p3004
(S'36.0533943'
p3005
S'-87.3125104'
p3006
tp3007
sS'Bedford'
p3008
(S'35.5272954'
p3009
S'-86.3336043'
p3010
tp3011
sS'Obion'
p3012
(S'36.4242303'
p3013
S'-89.0570096'
p3014
tp3015
sS'Humphreys'
p3016
(S'36.0839489'
p3017
S'-87.794747'
p3018
tp3019
sS'Henry'
p3020
(S'36.2778349'
p3021
S'-88.2294856'
p3022
tp3023
sS'Trousdale'
p3024
(S'36.3558822'
p3025
S'-86.2549901'
p3026
tp3027
sS'Moore'
p3028
(S'35.2831355'
p3029
S'-86.3741588'
p3030
tp3031
sS'Sullivan'
p3032
(S'36.548434'
p3033
S'-82.5618186'
p3034
tp3035
sS'Maury'
p3036
(S'35.6150716'
p3037
S'-87.0352831'
p3038
tp3039
sS'Washington'
p3040
(S'36.3134397'
p3041
S'-82.3534727'
p3042
tp3043
sS'Bradley'
p3044
(S'35.0514639'
p3045
S'-84.9585579'
p3046
tp3047
sS'Marion'
p3048
(S'35.0478571'
p3049
S'-85.6719138'
p3050
tp3051
sS'Hickman'
p3052
(S'35.8209003'
p3053
S'-87.2500097'
p3054
tp3055
sS'Polk'
p3056
(S'35.1742411'
p3057
S'-84.6535468'
p3058
tp3059
sS'Warren'
p3060
(S'35.6328484'
p3061
S'-85.7138683'
p3062
tp3063
sS'Perry'
p3064
(S'35.7720103'
p3065
S'-87.7839129'
p3066
tp3067
sS'Jackson'
p3068
(S'36.2753371'
p3069
S'-85.6583124'
p3070
tp3071
sS'Anderson'
p3072
(S'36.0139686'
p3073
S'-84.1235271'
p3074
tp3075
sS'Jefferson'
p3076
(S'36.0153693'
p3077
S'-83.4148895'
p3078
tp3079
sS'Rhea'
p3080
(S'35.692015'
p3081
S'-84.8607801'
p3082
tp3083
sS'Tipton'
p3084
(S'35.4117501'
p3085
S'-89.5328538'
p3086
tp3087
sS'Putnam'
p3088
(S'36.162839'
p3089
S'-85.5016423'
p3090
tp3091
sS'Coffee'
p3092
(S'35.3620235'
p3093
S'-86.2094342'
p3094
tp3095
sS'Sevier'
p3096
(S'35.7884241'
p3097
S'-83.5543329'
p3098
tp3099
sS'Crockett'
p3100
(S'35.7847949'
p3101
S'-89.1172883'
p3102
tp3103
sS'Hamilton'
p3104
(S'35.0456297'
p3105
S'-85.3096801'
p3106
tp3107
sS'Lauderdale'
p3108
(S'35.7453552'
p3109
S'-89.5297973'
p3110
tp3111
sS'Johnson'
p3112
(S'36.5320591'
p3113
S'-81.9465106'
p3114
tp3115
sS'Rutherford'
p3116
(S'35.9828413'
p3117
S'-86.5186045'
p3118
tp3119
sS'Greene'
p3120
(S'36.1631575'
p3121
S'-82.8309861'
p3122
tp3123
sS'Overton'
p3124
(S'36.2625616'
p3125
S'-85.3755267'
p3126
tp3127
sS'Clay'
p3128
(S'36.5486743'
p3129
S'-85.3116294'
p3130
tp3131
sS'McMinn'
p3132
(S'35.4428512'
p3133
S'-84.5929898'
p3134
tp3135
sS'Gibson'
p3136
(S'35.9839592'
p3137
S'-89.1222903'
p3138
tp3139
sS'Macon'
p3140
(S'36.5111574'
p3141
S'-86.178043'
p3142
tp3143
sS'Madison'
p3144
(S'35.6145169'
p3145
S'-88.8139469'
p3146
tp3147
sS'Grainger'
p3148
(S'36.3437017'
p3149
S'-83.284062'
p3150
tp3151
sS'Hawkins'
p3152
(S'36.5223207'
p3153
S'-82.7134921'
p3154
tp3155
sS'Meigs'
p3156
(S'35.5653498'
p3157
S'-84.7596652'
p3158
tp3159
sS'Davidson'
p3160
(S'36.1658899'
p3161
S'-86.7844432'
p3162
tp3163
sS'Cheatham'
p3164
(S'36.2742207'
p3165
S'-87.0641699'
p3166
tp3167
sS'Bledsoe'
p3168
(S'35.6095132'
p3169
S'-85.0680115'
p3170
tp3171
sS'Lawrence'
p3172
(S'35.2423023'
p3173
S'-87.3347389'
p3174
tp3175
sS'Fayette'
p3176
(S'35.228976'
p3177
S'-89.5150764'
p3178
tp3179
sS'Claiborne'
p3180
(S'36.45425'
p3181
S'-83.569352'
p3182
tp3183
sS'Lincoln'
p3184
(S'35.0800851'
p3185
S'-86.4391585'
p3186
tp3187
sS'Franklin'
p3188
(S'35.2706368'
p3189
S'-85.953036'
p3190
tp3191
sS'Dyer'
p3192
(S'36.0345159'
p3193
S'-89.3856281'
p3194
tp3195
sS'Sumner'
p3196
(S'36.3047735'
p3197
S'-86.6199957'
p3198
tp3199
sS'Marshall'
p3200
(S'35.5778481'
p3201
S'-86.6980531'
p3202
tp3203
sS'Carroll'
p3204
(S'35.9564512'
p3205
S'-88.3317132'
p3206
tp3207
sS'Grundy'
p3208
(S'35.2603569'
p3209
S'-85.7360833'
p3210
tp3211
sS'Campbell'
p3212
(S'36.4175798'
p3213
S'-84.3140995'
p3214
tp3215
sS'Hardeman'
p3216
(S'35.0645319'
p3217
S'-88.8908918'
p3218
tp3219
sS'Cumberland'
p3220
(S'35.9489566'
p3221
S'-85.0269015'
p3222
tp3223
sS'Roane'
p3224
(S'35.8809084'
p3225
S'-84.5085447'
p3226
tp3227
sS'DeKalb'
p3228
(S'35.8572885'
p3229
S'-85.7169264'
p3230
tp3231
sS'Loudon'
p3232
(S'35.756467'
p3233
S'-84.2179718'
p3234
tp3235
sS'Haywood'
p3236
(S'35.6117453'
p3237
S'-89.3575712'
p3238
tp3239
sS'Williamson'
p3240
(S'35.9250637'
p3241
S'-86.86889'
p3242
tp3243
sS'Cannon'
p3244
(S'35.7397918'
p3245
S'-86.1655473'
p3246
tp3247
sS'Giles'
p3248
(S'35.1998023'
p3249
S'-87.0308412'
p3250
tp3251
sS'Knox'
p3252
(S'35.9606384'
p3253
S'-83.9207392'
p3254
tp3255
sS'Hardin'
p3256
(S'35.3700774'
p3257
S'-88.2939277'
p3258
tp3259
sS'Benton'
p3260
(S'36.0928368'
p3261
S'-88.0055894'
p3262
tp3263
sS'Pickett'
p3264
(S'36.5608986'
p3265
S'-85.1663453'
p3266
tp3267
sS'Morgan'
p3268
(S'36.201463'
p3269
S'-84.7591131'
p3270
tp3271
sS'Stewart'
p3272
(S'36.5806054'
p3273
S'-87.7600191'
p3274
tp3275
sS'Houston'
p3276
(S'36.3383873'
p3277
S'-87.6047381'
p3278
tp3279
sS'Fentress'
p3280
(S'36.4997903'
p3281
S'-85.0060587'
p3282
tp3283
sS'Carter'
p3284
(S'36.2842787'
p3285
S'-82.1726295'
p3286
tp3287
sS'Cocke'
p3288
(S'35.9670412'
p3289
S'-83.1876578'
p3290
tp3291
sS'Lewis'
p3292
(S'35.5478513'
p3293
S'-87.5519628'
p3294
tp3295
sS'Scott'
p3296
(S'36.4981341'
p3297
S'-84.5127162'
p3298
tp3299
sS'Monroe'
p3300
(S'35.6014636'
p3301
S'-84.4610394'
p3302
tp3303
ssS'NY'
p3304
(dp3305
S'Orleans'
p3306
(S'43.327836'
p3307
S'-78.1908541'
p3308
tp3309
sS'Ontario'
p3310
(S'43.0320075'
p3311
S'-77.3322092'
p3312
tp3313
sS'Albany'
p3314
(S'42.6525793'
p3315
S'-73.7562317'
p3316
tp3317
sS'Delaware'
p3318
(S'42.2781401'
p3319
S'-74.9159946'
p3320
tp3321
sS'Broome'
p3322
(S'42.0850747'
p3323
S'-76.053813'
p3324
tp3325
sS'Montgomery'
p3326
(S'42.9056288'
p3327
S'-74.5718073'
p3328
tp3329
sS'Richmond'
p3330
(S'40.5834379'
p3331
S'-74.1495875'
p3332
tp3333
sS'St. Lawrence'
p3334
(S'44.727284'
p3335
S'-75.3210467'
p3336
tp3337
sS'Jefferson'
p3338
(S'44.2153329'
p3339
S'-75.797165'
p3340
tp3341
sS'Orange'
p3342
(S'41.6081492'
p3343
S'-74.2990402'
p3344
tp3345
sS'Genesee'
p3346
(S'42.9981156'
p3347
S'-78.1875167'
p3348
tp3349
sS'Cattaraugus'
p3350
(S'42.1578412'
p3351
S'-78.7150311'
p3352
tp3353
sS'Putnam'
p3354
(S'41.3973163'
p3355
S'-73.6170721'
p3356
tp3357
sS'Chautauqua'
p3358
(S'42.2097798'
p3359
S'-79.466714'
p3360
tp3361
sS'Tioga'
p3362
(S'42.2097963'
p3363
S'-76.4932748'
p3364
tp3365
sS'Cortland'
p3366
(S'42.6011813'
p3367
S'-76.1804843'
p3368
tp3369
sS'Columbia'
p3370
(S'42.2511982'
p3371
S'-73.7801253'
p3372
tp3373
sS'Dutchess'
p3374
(S'41.7003713'
p3375
S'-73.9209701'
p3376
tp3377
sS'Cayuga'
p3378
(S'42.9317335'
p3379
S'-76.5660529'
p3380
tp3381
sS'Otsego'
p3382
(S'42.763405'
p3383
S'-75.2782213'
p3384
tp3385
sS'Rockland'
p3386
(S'41.1975947'
p3387
S'-73.9645837'
p3388
tp3389
sS'Herkimer'
p3390
(S'43.0256259'
p3391
S'-74.9859889'
p3392
tp3393
sS'Hamilton'
p3394
(S'43.7545099'
p3395
S'-74.7929488'
p3396
tp3397
sS'Franklin'
p3398
(S'44.8486596'
p3399
S'-74.2948984'
p3400
tp3401
sS'Nassau'
p3402
(S'40.6576022'
p3403
S'-73.5831835'
p3404
tp3405
sS'Westchester'
p3406
(S'41.204262'
p3407
S'-73.6437397'
p3408
tp3409
sS'Chenango'
p3410
(S'42.498403'
p3411
S'-75.7679711'
p3412
tp3413
sS'Queens'
p3414
(S'40.7470464'
p3415
S'-73.8601355'
p3416
tp3417
sS'Chemung'
p3418
(S'42.167019'
p3419
S'-76.8205119'
p3420
tp3421
sS'Wyoming'
p3422
(S'42.6289515'
p3423
S'-78.0544514'
p3424
tp3425
sS'Yates'
p3426
(S'42.6609026'
p3427
S'-77.0538577'
p3428
tp3429
sS'Saratoga'
p3430
(S'43.0831301'
p3431
S'-73.7845651'
p3432
tp3433
sS'Allegany'
p3434
(S'42.1220125'
p3435
S'-77.9480575'
p3436
tp3437
sS'Oneida'
p3438
(S'43.2128473'
p3439
S'-75.4557304'
p3440
tp3441
sS'Greene'
p3442
(S'42.1623113'
p3443
S'-73.9676337'
p3444
tp3445
sS'Livingston'
p3446
(S'42.8711731'
p3447
S'-77.8852838'
p3448
tp3449
sS'Rensselaer'
p3450
(S'42.9145219'
p3451
S'-73.5137258'
p3452
tp3453
sS'Steuben'
p3454
(S'42.3370164'
p3455
S'-77.3177577'
p3456
tp3457
sS'Bronx'
p3458
(S'40.8552778'
p3459
S'-73.8863889'
p3460
tp3461
sS'New York'
p3462
(S'40.7142691'
p3463
S'-74.0059729'
p3464
tp3465
sS'Tompkins'
p3466
(S'42.4406284'
p3467
S'-76.4966071'
p3468
tp3469
sS'Fulton'
p3470
(S'43.0528506'
p3471
S'-74.3437467'
p3472
tp3473
sS'Seneca'
p3474
(S'42.6764593'
p3475
S'-76.8230111'
p3476
tp3477
sS'Madison'
p3478
(S'43.0795121'
p3479
S'-75.7507413'
p3480
tp3481
sS'Clinton'
p3482
(S'44.6994873'
p3483
S'-73.4529124'
p3484
tp3485
sS'Ulster'
p3486
(S'41.8267597'
p3487
S'-74.1262549'
p3488
tp3489
sS'Schuyler'
p3490
(S'42.5006271'
p3491
S'-76.8724586'
p3492
tp3493
sS'Sullivan'
p3494
(S'41.759814'
p3495
S'-74.5940484'
p3496
tp3497
sS'Lewis'
p3498
(S'43.9231241'
p3499
S'-75.3721314'
p3500
tp3501
sS'Oswego'
p3502
(S'43.3236802'
p3503
S'-76.1165902'
p3504
tp3505
sS'Washington'
p3506
(S'43.0281329'
p3507
S'-73.3812231'
p3508
tp3509
sS'Essex'
p3510
(S'44.4406028'
p3511
S'-73.6881949'
p3512
tp3513
sS'Suffolk'
p3514
(S'40.7298207'
p3515
S'-73.2103934'
p3516
tp3517
sS'Wayne'
p3518
(S'43.1392301'
p3519
S'-77.2722073'
p3520
tp3521
sS'Niagara'
p3522
(S'43.2503348'
p3523
S'-78.6472536'
p3524
tp3525
sS'Onondaga'
p3526
(S'43.0481221'
p3527
S'-76.1474244'
p3528
tp3529
sS'Kings'
p3530
(S'40.6751032'
p3531
S'-74.0095841'
p3532
tp3533
sS'Erie'
p3534
(S'42.978391'
p3535
S'-78.7997559'
p3536
tp3537
sS'Schenectady'
p3538
(S'42.8142432'
p3539
S'-73.9395687'
p3540
tp3541
sS'Schoharie'
p3542
(S'42.6659088'
p3543
S'-74.3095787'
p3544
tp3545
sS'Monroe'
p3546
(S'43.2122851'
p3547
S'-77.4299939'
p3548
tp3549
sS'Warren'
p3550
(S'43.4261809'
p3551
S'-73.7123408'
p3552
tp3553
ssS'PA'
p3554
(dp3555
S'Lancaster'
p3556
(S'40.2331483'
p3557
S'-76.1371684'
p3558
tp3559
sS'Elk'
p3560
(S'41.3639499'
p3561
S'-78.5555778'
p3562
tp3563
sS'Susquehanna'
p3564
(S'41.7167495'
p3565
S'-75.4921284'
p3566
tp3567
sS'Perry'
p3568
(S'40.3889725'
p3569
S'-77.288874'
p3570
tp3571
sS'Cumberland'
p3572
(S'40.0437031'
p3573
S'-77.1894262'
p3574
tp3575
sS'Bedford'
p3576
(S'40.0742462'
p3577
S'-78.704464'
p3578
tp3579
sS'Union'
p3580
(S'40.9400816'
p3581
S'-77.0527488'
p3582
tp3583
sS'Lebanon'
p3584
(S'40.3409251'
p3585
S'-76.4113497'
p3586
tp3587
sS'Delaware'
p3588
(S'39.8301125'
p3589
S'-75.4415843'
p3590
tp3591
sS'Philadelphia'
p3592
(S'40.0556669'
p3593
S'-75.025171'
p3594
tp3595
sS'Montgomery'
p3596
(S'40.1023326'
p3597
S'-75.1521195'
p3598
tp3599
sS'Jefferson'
p3600
(S'40.9417307'
p3601
S'-78.9508666'
p3602
tp3603
sS'Forest'
p3604
(S'41.49534'
p3605
S'-79.4558798'
p3606
tp3607
sS'Butler'
p3608
(S'41.0145075'
p3609
S'-79.7428275'
p3610
tp3611
sS'Indiana'
p3612
(S'40.5434007'
p3613
S'-79.1622566'
p3614
tp3615
sS'Somerset'
p3616
(S'39.9900791'
p3617
S'-79.00197'
p3618
tp3619
sS'Warren'
p3620
(S'41.9414478'
p3621
S'-79.1350456'
p3622
tp3623
sS'Dauphin'
p3624
(S'40.2737002'
p3625
S'-76.8844179'
p3626
tp3627
sS'Juniata'
p3628
(S'40.5697996'
p3629
S'-77.3969339'
p3630
tp3631
sS'Tioga'
p3632
(S'41.9861838'
p3633
S'-77.3108127'
p3634
tp3635
sS'Montour'
p3636
(S'40.96342'
p3637
S'-76.6127329'
p3638
tp3639
sS'Columbia'
p3640
(S'40.9520312'
p3641
S'-76.45967'
p3642
tp3643
sS'Lawrence'
p3644
(S'40.9533947'
p3645
S'-80.3828432'
p3646
tp3647
sS'McKean'
p3648
(S'41.810898'
p3649
S'-78.2797352'
p3650
tp3651
sS'Crawford'
p3652
(S'41.6458881'
p3653
S'-80.1767266'
p3654
tp3655
sS'Blair'
p3656
(S'40.3167419'
p3657
S'-78.5186269'
p3658
tp3659
sS'Lycoming'
p3660
(S'41.2411897'
p3661
S'-77.0010787'
p3662
tp3663
sS'Cambria'
p3664
(S'40.3267407'
p3665
S'-78.9219698'
p3666
tp3667
sS'York'
p3668
(S'39.9625984'
p3669
S'-76.727745'
p3670
tp3671
sS'Franklin'
p3672
(S'39.7998154'
p3673
S'-77.5549904'
p3674
tp3675
sS'Carbon'
p3676
(S'40.8442582'
p3677
S'-75.711023'
p3678
tp3679
sS'Potter'
p3680
(S'41.5867326'
p3681
S'-77.8947185'
p3682
tp3683
sS'Venango'
p3684
(S'41.3978358'
p3685
S'-79.8314437'
p3686
tp3687
sS'Luzerne'
p3688
(S'40.9920288'
p3689
S'-75.9201999'
p3690
tp3691
sS'Pike'
p3692
(S'41.2200946'
p3693
S'-74.8712799'
p3694
tp3695
sS'Wyoming'
p3696
(S'41.4606332'
p3697
S'-75.8488072'
p3698
tp3699
sS'Adams'
p3700
(S'40.0089827'
p3701
S'-77.1155359'
p3702
tp3703
sS'Northumberland'
p3704
(S'40.7839745'
p3705
S'-76.5699589'
p3706
tp3707
sS'Clarion'
p3708
(S'41.1272847'
p3709
S'-79.5408798'
p3710
tp3711
sS'Greene'
p3712
(S'39.8964641'
p3713
S'-80.1792299'
p3714
tp3715
sS'Westmoreland'
p3716
(S'40.4284015'
p3717
S'-79.697545'
p3718
tp3719
sS'Bucks'
p3720
(S'40.1006661'
p3721
S'-74.8518311'
p3722
tp3723
sS'Berks'
p3724
(S'40.354542'
p3725
S'-75.947466'
p3726
tp3727
sS'Lackawanna'
p3728
(S'41.408969'
p3729
S'-75.6624122'
p3730
tp3731
sS'Erie'
p3732
(S'42.1292241'
p3733
S'-80.085059'
p3734
tp3735
sS'Clinton'
p3736
(S'41.1370133'
p3737
S'-77.4469263'
p3738
tp3739
sS'Fayette'
p3740
(S'39.8467433'
p3741
S'-79.8997755'
p3742
tp3743
sS'Armstrong'
p3744
(S'40.9620082'
p3745
S'-79.6381031'
p3746
tp3747
sS'Sullivan'
p3748
(S'41.5345198'
p3749
S'-76.2863248'
p3750
tp3751
sS'Mifflin'
p3752
(S'40.5531301'
p3753
S'-77.5919368'
p3754
tp3755
sS'Huntingdon'
p3756
(S'40.2117469'
p3757
S'-78.0375031'
p3758
tp3759
sS'Northampton'
p3760
(S'40.6862075'
p3761
S'-75.4968501'
p3762
tp3763
sS'Washington'
p3764
(S'40.1378499'
p3765
S'-79.8981035'
p3766
tp3767
sS'Snyder'
p3768
(S'40.7989736'
p3769
S'-76.8621935'
p3770
tp3771
sS'Bradford'
p3772
(S'41.9789631'
p3773
S'-76.515499'
p3774
tp3775
sS'Centre'
p3776
(S'40.793395'
p3777
S'-77.8600013'
p3778
tp3779
sS'Schuylkill'
p3780
(S'40.7206451'
p3781
S'-76.1910536'
p3782
tp3783
sS'Lehigh'
p3784
(S'40.6084305'
p3785
S'-75.4901833'
p3786
tp3787
sS'Wayne'
p3788
(S'41.4539745'
p3789
S'-75.382681'
p3790
tp3791
sS'Cameron'
p3792
(S'41.5170078'
p3793
S'-78.2155642'
p3794
tp3795
sS'Beaver'
p3796
(S'40.6847887'
p3797
S'-80.2506165'
p3798
tp3799
sS'Allegheny'
p3800
(S'40.3981246'
p3801
S'-80.1856134'
p3802
tp3803
sS'Clearfield'
p3804
(S'41.0106148'
p3805
S'-78.6041932'
p3806
tp3807
sS'Mercer'
p3808
(S'41.404499'
p3809
S'-80.3911785'
p3810
tp3811
sS'Monroe'
p3812
(S'40.9867609'
p3813
S'-75.1946248'
p3814
tp3815
sS'Chester'
p3816
(S'40.0951038'
p3817
S'-75.6168681'
p3818
tp3819
ssS'CA'
p3820
(dp3821
S'Santa Clara'
p3822
(S'37.3393857'
p3823
S'-121.8949555'
p3824
tp3825
sS'Lake'
p3826
(S'38.8221258'
p3827
S'-122.7230451'
p3828
tp3829
sS'Imperial'
p3830
(S'32.8475529'
p3831
S'-115.5694391'
p3832
tp3833
sS'Sierra'
p3834
(S'39.5896256'
p3835
S'-120.3674301'
p3836
tp3837
sS'Madera'
p3838
(S'36.9524464'
p3839
S'-120.2018345'
p3840
tp3841
sS'Shasta'
p3842
(S'40.4734843'
p3843
S'-122.4758441'
p3844
tp3845
sS'Plumas'
p3846
(S'39.9368363'
p3847
S'-120.9471764'
p3848
tp3849
sS'Tuolumne'
p3850
(S'37.9607582'
p3851
S'-120.2374109'
p3852
tp3853
sS'Napa'
p3854
(S'38.2971367'
p3855
S'-122.2855293'
p3856
tp3857
sS'San Francisco'
p3858
(S'37.7749295'
p3859
S'-122.4194155'
p3860
tp3861
sS'Orange'
p3862
(S'33.7091847'
p3863
S'-117.9536697'
p3864
tp3865
sS'Tulare'
p3866
(S'36.2077288'
p3867
S'-119.3473379'
p3868
tp3869
sS'Riverside'
p3870
(S'33.7825194'
p3871
S'-117.2286478'
p3872
tp3873
sS'Alameda'
p3874
(S'37.8043722'
p3875
S'-122.2708026'
p3876
tp3877
sS'San Mateo'
p3878
(S'37.4741667'
p3879
S'-122.1955556'
p3880
tp3881
sS'Trinity'
p3882
(S'40.7309778'
p3883
S'-122.9419708'
p3884
tp3885
sS'Solano'
p3886
(S'38.2493581'
p3887
S'-122.0399663'
p3888
tp3889
sS'Sacramento'
p3890
(S'38.7071247'
p3891
S'-121.2810611'
p3892
tp3893
sS'San Diego'
p3894
(S'32.7281061'
p3895
S'-117.2322583'
p3896
tp3897
sS'Colusa'
p3898
(S'39.2143343'
p3899
S'-122.0094175'
p3900
tp3901
sS'Marin'
p3902
(S'37.9871455'
p3903
S'-122.5888686'
p3904
tp3905
sS'Santa Cruz'
p3906
(S'36.9741171'
p3907
S'-122.0307963'
p3908
tp3909
sS'Amador'
p3910
(S'38.3488024'
p3911
S'-120.7741018'
p3912
tp3913
sS'Los Angeles'
p3914
(S'33.7669623'
p3915
S'-118.1892348'
p3916
tp3917
sS'Modoc'
p3918
(S'41.2398957'
p3919
S'-120.2805007'
p3920
tp3921
sS'Lassen'
p3922
(S'40.4162842'
p3923
S'-120.6530063'
p3924
tp3925
sS'Butte'
p3926
(S'39.7284945'
p3927
S'-121.8374777'
p3928
tp3929
sS'Stanislaus'
p3930
(S'37.4716001'
p3931
S'-121.129656'
p3932
tp3933
sS'Alpine'
p3934
(S'38.7026857'
p3935
S'-120.0726855'
p3936
tp3937
sS'Mendocino'
p3938
(S'39.3784978'
p3939
S'-123.3413984'
p3940
tp3941
sS'Mariposa'
p3942
(S'37.6427106'
p3943
S'-120.3713035'
p3944
tp3945
sS'Siskiyou'
p3946
(S'41.7354187'
p3947
S'-122.6344708'
p3948
tp3949
sS'Placer'
p3950
(S'38.7521235'
p3951
S'-121.2880059'
p3952
tp3953
sS'Mono'
p3954
(S'38.2557527'
p3955
S'-119.2312656'
p3956
tp3957
sS'Contra Costa'
p3958
(S'38.0279762'
p3959
S'-121.8846806'
p3960
tp3961
sS'Del Norte'
p3962
(S'41.7559481'
p3963
S'-124.2017474'
p3964
tp3965
sS'Glenn'
p3966
(S'39.7473803'
p3967
S'-122.1963748'
p3968
tp3969
sS'Kern'
p3970
(S'35.6224561'
p3971
S'-117.6708966'
p3972
tp3973
sS'Ventura'
p3974
(S'34.1975048'
p3975
S'-119.1770516'
p3976
tp3977
sS'Calaveras'
p3978
(S'38.22714'
p3979
S'-120.8532709'
p3980
tp3981
sS'Inyo'
p3982
(S'36.6060444'
p3983
S'-118.0628654'
p3984
tp3985
sS'San Bernardino'
p3986
(S'34.1063989'
p3987
S'-117.5931084'
p3988
tp3989
sS'Sutter'
p3990
(S'39.1404477'
p3991
S'-121.6169108'
p3992
tp3993
sS'Monterey'
p3994
(S'36.6844029'
p3995
S'-121.802173'
p3996
tp3997
sS'Sonoma'
p3998
(S'38.3396367'
p3999
S'-122.7010984'
p4000
tp4001
sS'San Joaquin'
p4002
(S'37.9552017'
p4003
S'-121.2585567'
p4004
tp4005
sS'Humboldt'
p4006
(S'40.9465152'
p4007
S'-124.1006205'
p4008
tp4009
sS'Fresno'
p4010
(S'36.139678'
p4011
S'-120.3601496'
p4012
tp4013
sS'Merced'
p4014
(S'37.3021633'
p4015
S'-120.4829677'
p4016
tp4017
sS'Yolo'
p4018
(S'38.5804609'
p4019
S'-121.530234'
p4020
tp4021
sS'Yuba'
p4022
(S'39.0954484'
p4023
S'-121.5521858'
p4024
tp4025
sS'El Dorado'
p4026
(S'38.6946259'
p4027
S'-120.8149355'
p4028
tp4029
sS'San Luis Obispo'
p4030
(S'35.0988648'
p4031
S'-120.612393'
p4032
tp4033
sS'San Benito'
p4034
(S'36.8524545'
p4035
S'-121.4016021'
p4036
tp4037
sS'Tehama'
p4038
(S'40.1784886'
p4039
S'-122.2358302'
p4040
tp4041
sS'Kings'
p4042
(S'36.3007835'
p4043
S'-119.7829107'
p4044
tp4045
sS'Nevada'
p4046
(S'39.2190608'
p4047
S'-121.0610606'
p4048
tp4049
sS'Santa Barbara'
p4050
(S'34.8652574'
p4051
S'-120.4359966'
p4052
tp4053
ssS'NV'
p4054
(dp4055
S'White Pine'
p4056
(S'39.6532692'
p4057
S'-114.802522'
p4058
tp4059
sS'Lyon'
p4060
(S'39.4154714'
p4061
S'-119.2246073'
p4062
tp4063
sS'Churchill'
p4064
(S'39.4735288'
p4065
S'-118.7773743'
p4066
tp4067
sS'Humboldt'
p4068
(S'40.9729584'
p4069
S'-117.7356849'
p4070
tp4071
sS'Clark'
p4072
(S'36.1749705'
p4073
S'-115.137223'
p4074
tp4075
sS'Pershing'
p4076
(S'40.4474067'
p4077
S'-118.2895906'
p4078
tp4079
sS'Elko'
p4080
(S'40.7265927'
p4081
S'-115.5858953'
p4082
tp4083
sS'Douglas'
p4084
(S'38.9412959'
p4085
S'-119.7496216'
p4086
tp4087
sS'Carson City (city)'
p4088
(S'39.1637984'
p4089
S'-119.7674034'
p4090
tp4091
sS'Washoe'
p4092
(S'39.5296329'
p4093
S'-119.8138027'
p4094
tp4095
sS'Mineral'
p4096
(S'38.5246441'
p4097
S'-118.624578'
p4098
tp4099
sS'Storey'
p4100
(S'39.3807456'
p4101
S'-119.6437919'
p4102
tp4103
sS'Eureka'
p4104
(S'39.5127066'
p4105
S'-115.9606129'
p4106
tp4107
sS'Lincoln'
p4108
(S'37.644672'
p4109
S'-115.7436451'
p4110
tp4111
sS'Nye'
p4112
(S'38.1904897'
p4113
S'-116.3700542'
p4114
tp4115
ssS'VA'
p4116
(dp4117
S'Roanoke'
p4118
(S'37.2829156'
p4119
S'-79.8625371'
p4120
tp4121
sS'Powhatan'
p4122
(S'37.4751489'
p4123
S'-77.778885'
p4124
tp4125
sS'Russell'
p4126
(S'36.9364998'
p4127
S'-81.9665144'
p4128
tp4129
sS'Arlington'
p4130
(S'38.8731676'
p4131
S'-77.1266458'
p4132
tp4133
sS'Charlottesville (city)'
p4134
(S'38.0293059'
p4135
S'-78.4766781'
p4136
tp4137
sS'Montgomery'
p4138
(S'37.1298517'
p4139
S'-80.4089389'
p4140
tp4141
sS'Salem (city)'
p4142
(S'37.2804123'
p4143
S'-80.0867073'
p4144
tp4145
sS'Fauquier'
p4146
(S'38.7178955'
p4147
S'-77.6624913'
p4148
tp4149
sS'Williamsburg (city)'
p4150
(S'37.2707022'
p4151
S'-76.7074571'
p4152
tp4153
sS'Franklin (city)'
p4154
(S'36.6776507'
p4155
S'-76.9224608'
p4156
tp4157
sS'Virginia Beach (city)'
p4158
(S'36.7713889'
p4159
S'-76.1977778'
p4160
tp4161
sS'Tazewell'
p4162
(S'37.0753922'
p4163
S'-81.7087247'
p4164
tp4165
sS'King George'
p4166
(S'38.2681837'
p4167
S'-77.1844222'
p4168
tp4169
sS'York'
p4170
(S'37.2387556'
p4171
S'-76.5096731'
p4172
tp4173
sS'Chesapeake (city)'
p4174
(S'36.8190369'
p4175
S'-76.2749399'
p4176
tp4177
sS'Bedford'
p4178
(S'37.1381984'
p4179
S'-79.6178087'
p4180
tp4181
sS'Roanoke (city)'
p4182
(S'37.2534707'
p4183
S'-79.9600375'
p4184
tp4185
sS'Augusta'
p4186
(S'38.0034669'
p4187
S'-79.1558633'
p4188
tp4189
sS'Chesterfield'
p4190
(S'37.5059814'
p4191
S'-77.6491578'
p4192
tp4193
sS'Nelson'
p4194
(S'37.7598637'
p4195
S'-78.870855'
p4196
tp4197
sS'Henry'
p4198
(S'36.7593037'
p4199
S'-79.9903195'
p4200
tp4201
sS'Prince William'
p4202
(S'38.6581723'
p4203
S'-77.2497049'
p4204
tp4205
sS'Portsmouth (city)'
p4206
(S'36.8354258'
p4207
S'-76.2982742'
p4208
tp4209
sS'Nottoway'
p4210
(S'37.1876529'
p4211
S'-78.2013859'
p4212
tp4213
sS'Gloucester'
p4214
(S'37.413752'
p4215
S'-76.5255062'
p4216
tp4217
sS'Waynesboro (city)'
p4218
(S'38.0684693'
p4219
S'-78.8894682'
p4220
tp4221
sS'Charlotte'
p4222
(S'37.0565362'
p4223
S'-78.638334'
p4224
tp4225
sS'Washington'
p4226
(S'36.7098335'
p4227
S'-81.9773482'
p4228
tp4229
sS'Craig'
p4230
(S'37.5001287'
p4231
S'-80.1108815'
p4232
tp4233
sS'Prince George'
p4234
(S'37.2973705'
p4235
S'-77.1308054'
p4236
tp4237
sS'Warren'
p4238
(S'38.9181671'
p4239
S'-78.1944446'
p4240
tp4241
sS'Albemarle'
p4242
(S'38.0431943'
p4243
S'-78.4419549'
p4244
tp4245
sS'Fredericksburg (city)'
p4246
(S'38.3031837'
p4247
S'-77.4605399'
p4248
tp4249
sS'Orange'
p4250
(S'38.2834654'
p4251
S'-78.0280542'
p4252
tp4253
sS'Lynchburg (city)'
p4254
(S'37.4137536'
p4255
S'-79.1422464'
p4256
tp4257
sS'Caroline'
p4258
(S'37.9287494'
p4259
S'-77.4558151'
p4260
tp4261
sS'Smyth'
p4262
(S'36.8815031'
p4263
S'-81.7620635'
p4264
tp4265
sS'Culpeper'
p4266
(S'38.4731815'
p4267
S'-77.9966639'
p4268
tp4269
sS'Petersburg (city)'
p4270
(S'37.2184835'
p4271
S'-77.4313723'
p4272
tp4273
sS'Lee'
p4274
(S'36.7328663'
p4275
S'-83.0821145'
p4276
tp4277
sS'Spotsylvania'
p4278
(S'38.200965'
p4279
S'-77.589154'
p4280
tp4281
sS'Buena Vista (city)'
p4282
(S'37.7343004'
p4283
S'-79.3539238'
p4284
tp4285
sS'Richmond (city)'
p4286
(S'37.5537575'
p4287
S'-77.4602617'
p4288
tp4289
sS'Southampton'
p4290
(S'36.7162613'
p4291
S'-77.0680195'
p4292
tp4293
sS'Henrico'
p4294
(S'37.5234794'
p4295
S'-77.3158118'
p4296
tp4297
sS'Bedford (city)'
p4298
(S'37.3343079'
p4299
S'-79.5230877'
p4300
tp4301
sS'Northumberland'
p4302
(S'37.9176323'
p4303
S'-76.4721742'
p4304
tp4305
sS'Greene'
p4306
(S'38.2973519'
p4307
S'-78.4400099'
p4308
tp4309
sS'Westmoreland'
p4310
(S'38.219019'
p4311
S'-76.9855276'
p4312
tp4313
sS'Isle of Wight'
p4314
(S'36.9823709'
p4315
S'-76.6310662'
p4316
tp4317
sS'King and Queen'
p4318
(S'37.7234753'
p4319
S'-77.0077471'
p4320
tp4321
sS'Alexandria (city)'
p4322
(S'38.8048356'
p4323
S'-77.0469214'
p4324
tp4325
sS'Fairfax (city)'
p4326
(S'38.8462236'
p4327
S'-77.3063733'
p4328
tp4329
sS'Madison'
p4330
(S'38.3804062'
p4331
S'-78.2575035'
p4332
tp4333
sS'Goochland'
p4334
(S'37.5848692'
p4335
S'-77.6833251'
p4336
tp4337
sS'Loudoun'
p4338
(S'39.1156615'
p4339
S'-77.5636015'
p4340
tp4341
sS'Bristol (city)'
p4342
(S'36.6334414'
p4343
S'-82.1204086'
p4344
tp4345
sS'Essex'
p4346
(S'37.9826352'
p4347
S'-76.9613574'
p4348
tp4349
sS'Newport News (city)'
p4350
(S'36.9787588'
p4351
S'-76.428003'
p4352
tp4353
sS'Amherst'
p4354
(S'37.4309757'
p4355
S'-79.1230795'
p4356
tp4357
sS'Falls Church (city)'
p4358
(S'38.882334'
p4359
S'-77.1710914'
p4360
tp4361
sS'Hampton (city)'
p4362
(S'37.0298687'
p4363
S'-76.3452218'
p4364
tp4365
sS'Clarke'
p4366
(S'39.0931617'
p4367
S'-78.0594426'
p4368
tp4369
sS'Richmond'
p4370
(S'37.9587447'
p4371
S'-76.7580139'
p4372
tp4373
sS'Northampton'
p4374
(S'37.3079157'
p4375
S'-75.9518758'
p4376
tp4377
sS'Wythe'
p4378
(S'36.9703976'
p4379
S'-80.9495251'
p4380
tp4381
sS'Hopewell (city)'
p4382
(S'37.3043154'
p4383
S'-77.2872001'
p4384
tp4385
sS'Accomack'
p4386
(S'37.6042998'
p4387
S'-75.6896502'
p4388
tp4389
sS'New Kent'
p4390
(S'37.5176453'
p4391
S'-76.9788557'
p4392
tp4393
sS'Shenandoah'
p4394
(S'38.9887199'
p4395
S'-78.358616'
p4396
tp4397
sS'Staunton (city)'
p4398
(S'38.149576'
p4399
S'-79.0716958'
p4400
tp4401
sS'Pittsylvania'
p4402
(S'36.7468036'
p4403
S'-79.4639158'
p4404
tp4405
sS'Covington (city)'
p4406
(S'37.7934585'
p4407
S'-79.9939463'
p4408
tp4409
sS'Patrick'
p4410
(S'36.599025'
p4411
S'-80.5106192'
p4412
tp4413
sS'Winchester (city)'
p4414
(S'39.1856597'
p4415
S'-78.1633341'
p4416
tp4417
sS'Greensville'
p4418
(S'36.6118169'
p4419
S'-77.5466463'
p4420
tp4421
sS'Franklin'
p4422
(S'36.9229159'
p4423
S'-80.0133712'
p4424
tp4425
sS'Fairfax'
p4426
(S'38.8303905'
p4427
S'-77.1963703'
p4428
tp4429
sS'Floyd'
p4430
(S'36.9112443'
p4431
S'-80.3200502'
p4432
tp4433
sS'Carroll'
p4434
(S'36.8179084'
p4435
S'-80.6097901'
p4436
tp4437
sS'Bath'
p4438
(S'37.9995703'
p4439
S'-79.8317193'
p4440
tp4441
sS'Botetourt'
p4442
(S'37.4098559'
p4443
S'-79.9125409'
p4444
tp4445
sS'Campbell'
p4446
(S'37.2337555'
p4447
S'-79.2894688'
p4448
tp4449
sS'Halifax'
p4450
(S'36.5731952'
p4451
S'-79.0027897'
p4452
tp4453
sS'Manassas (city)'
p4454
(S'38.7509488'
p4455
S'-77.4752667'
p4456
tp4457
sS'Lancaster'
p4458
(S'37.7776389'
p4459
S'-76.513563'
p4460
tp4461
sS'Poquoson (city)'
p4462
(S'37.1223664'
p4463
S'-76.3457773'
p4464
tp4465
sS'Louisa'
p4466
(S'38.047638'
p4467
S'-77.8169377'
p4468
tp4469
sS'Middlesex'
p4470
(S'37.7151407'
p4471
S'-76.6941246'
p4472
tp4473
sS'Colonial Heights (city)'
p4474
(S'37.244039'
p4475
S'-77.4102607'
p4476
tp4477
sS'Norton (city)'
p4478
(S'36.933433'
p4479
S'-82.6290459'
p4480
tp4481
sS'Rockbridge'
p4482
(S'37.8929082'
p4483
S'-79.4378166'
p4484
tp4485
sS'Pulaski'
p4486
(S'37.0478982'
p4487
S'-80.7797935'
p4488
tp4489
sS'Rockingham'
p4490
(S'38.6131746'
p4491
S'-78.7989124'
p4492
tp4493
sS'Alleghany'
p4494
(S'37.816239'
p4495
S'-79.8244947'
p4496
tp4497
sS'Radford (city)'
p4498
(S'37.1317924'
p4499
S'-80.5764477'
p4500
tp4501
sS'Prince Edward'
p4502
(S'37.3020965'
p4503
S'-78.3919402'
p4504
tp4505
sS'Giles'
p4506
(S'37.3195684'
p4507
S'-80.6389541'
p4508
tp4509
sS'Dickenson'
p4510
(S'37.1501067'
p4511
S'-82.4559846'
p4512
tp4513
sS'Harrisonburg (city)'
p4514
(S'38.4495688'
p4515
S'-78.8689156'
p4516
tp4517
sS'Danville (city)'
p4518
(S'36.5859718'
p4519
S'-79.3950228'
p4520
tp4521
sS'Stafford'
p4522
(S'38.3085'
p4523
S'-77.4505'
p4524
tp4525
sS'Hanover'
p4526
(S'37.7590318'
p4527
S'-77.4799837'
p4528
tp4529
sS'Wise'
p4530
(S'36.9439917'
p4531
S'-82.4640401'
p4532
tp4533
sS'Norfolk (city)'
p4534
(S'36.8468146'
p4535
S'-76.2852183'
p4536
tp4537
sS'Frederick'
p4538
(S'39.0276078'
p4539
S'-78.280558'
p4540
tp4541
sS'Mecklenburg'
p4542
(S'36.5926409'
p4543
S'-78.6161132'
p4544
tp4545
sS'Page'
p4546
(S'38.665397'
p4547
S'-78.4594522'
p4548
tp4549
sS'Suffolk (city)'
p4550
(S'36.7282054'
p4551
S'-76.5835621'
p4552
tp4553
sS'Surry'
p4554
(S'37.1657049'
p4555
S'-76.9732977'
p4556
tp4557
sS'Martinsville (city)'
p4558
(S'36.6915262'
p4559
S'-79.8725386'
p4560
tp4561
sS'Lexington (city)'
p4562
(S'37.7840208'
p4563
S'-79.4428157'
p4564
tp4565
sS'Scott'
p4566
(S'36.6378774'
p4567
S'-82.5809876'
p4568
tp4569
sS'King William'
p4570
(S'37.6873648'
p4571
S'-77.0135803'
p4572
tp4573
sS'Fluvanna'
p4574
(S'37.9509737'
p4575
S'-78.2463934'
p4576
tp4577
ssS'CO'
p4578
(dp4579
S'San Juan'
p4580
(S'37.811941'
p4581
S'-107.6645057'
p4582
tp4583
sS'San Miguel'
p4584
(S'37.9497157'
p4585
S'-107.8775645'
p4586
tp4587
sS'Otero'
p4588
(S'37.9850091'
p4589
S'-103.5438321'
p4590
tp4591
sS'Chaffee'
p4592
(S'38.8422178'
p4593
S'-106.1311288'
p4594
tp4595
sS'Elbert'
p4596
(S'39.3602662'
p4597
S'-104.596915'
p4598
tp4599
sS'Fremont'
p4600
(S'38.3655533'
p4601
S'-105.7577836'
p4602
tp4603
sS'Grand'
p4604
(S'40.2522073'
p4605
S'-105.8230671'
p4606
tp4607
sS'Dolores'
p4608
(S'37.7661'
p4609
S'-108.9059393'
p4610
tp4611
sS'Douglas'
p4612
(S'39.5186002'
p4613
S'-104.7613634'
p4614
tp4615
sS'Ouray'
p4616
(S'38.1527685'
p4617
S'-107.7617263'
p4618
tp4619
sS'Jefferson'
p4620
(S'39.7047095'
p4621
S'-105.0813734'
p4622
tp4623
sS'Cheyenne'
p4624
(S'38.7611129'
p4625
S'-102.7893667'
p4626
tp4627
sS'Gunnison'
p4628
(S'38.5458246'
p4629
S'-106.9253207'
p4630
tp4631
sS'Boulder'
p4632
(S'40.1672069'
p4633
S'-105.1019275'
p4634
tp4635
sS'Eagle'
p4636
(S'39.3949838'
p4637
S'-107.0903259'
p4638
tp4639
sS'La Plata'
p4640
(S'37.27528'
p4641
S'-107.8800667'
p4642
tp4643
sS'Custer'
p4644
(S'38.134722'
p4645
S'-105.4658353'
p4646
tp4647
sS'Archuleta'
p4648
(S'37.26945'
p4649
S'-107.0097617'
p4650
tp4651
sS'Clear Creek'
p4652
(S'39.7424881'
p4653
S'-105.5136082'
p4654
tp4655
sS'Montrose'
p4656
(S'38.2694347'
p4657
S'-108.5478691'
p4658
tp4659
sS'Park'
p4660
(S'39.4055449'
p4661
S'-105.4733328'
p4662
tp4663
sS'Saguache'
p4664
(S'37.9963881'
p4665
S'-105.6997332'
p4666
tp4667
sS'Kit Carson'
p4668
(S'39.3036044'
p4669
S'-102.7429831'
p4670
tp4671
sS'El Paso'
p4672
(S'38.8338816'
p4673
S'-104.8213634'
p4674
tp4675
sS'Costilla'
p4676
(S'37.2139025'
p4677
S'-105.5644584'
p4678
tp4679
sS'Delta'
p4680
(S'38.9016487'
p4681
S'-107.926454'
p4682
tp4683
sS'Conejos'
p4684
(S'37.0594564'
p4685
S'-106.0922463'
p4686
tp4687
sS'Arapahoe'
p4688
(S'39.6477653'
p4689
S'-104.9877597'
p4690
tp4691
sS'Mesa'
p4692
(S'39.0638705'
p4693
S'-108.5506486'
p4694
tp4695
sS'Yuma'
p4696
(S'40.1222084'
p4697
S'-102.7252096'
p4698
tp4699
sS'Teller'
p4700
(S'38.9419355'
p4701
S'-105.1572091'
p4702
tp4703
sS'Broomfield'
p4704
(S'39.9205411'
p4705
S'-105.0866504'
p4706
tp4707
sS'Pueblo'
p4708
(S'38.3500016'
p4709
S'-104.7227546'
p4710
tp4711
sS'Lincoln'
p4712
(S'39.1361004'
p4713
S'-103.4699447'
p4714
tp4715
sS'Alamosa'
p4716
(S'37.7427776'
p4717
S'-105.8752987'
p4718
tp4719
sS'Weld'
p4720
(S'40.4233142'
p4721
S'-104.7091322'
p4722
tp4723
sS'Adams'
p4724
(S'39.7294319'
p4725
S'-104.8319195'
p4726
tp4727
sS'Montezuma'
p4728
(S'37.344996'
p4729
S'-108.2892487'
p4730
tp4731
sS'Kiowa'
p4732
(S'38.4805615'
p4733
S'-102.7818629'
p4734
tp4735
sS'Summit'
p4736
(S'39.4816537'
p4737
S'-106.0383518'
p4738
tp4739
sS'Denver'
p4740
(S'39.7391536'
p4741
S'-104.9847034'
p4742
tp4743
sS'Morgan'
p4744
(S'40.2502582'
p4745
S'-103.799951'
p4746
tp4747
sS'Routt'
p4748
(S'40.495287'
p4749
S'-107.257288'
p4750
tp4751
sS'Huerfano'
p4752
(S'37.3791796'
p4753
S'-105.100281'
p4754
tp4755
sS'Bent'
p4756
(S'38.0666735'
p4757
S'-103.222708'
p4758
tp4759
sS'Rio Blanco'
p4760
(S'40.0874759'
p4761
S'-108.8048292'
p4762
tp4763
sS'Baca'
p4764
(S'37.4083486'
p4765
S'-102.6143616'
p4766
tp4767
sS'Pitkin'
p4768
(S'39.1910983'
p4769
S'-106.8175387'
p4770
tp4771
sS'Prowers'
p4772
(S'38.0872307'
p4773
S'-102.6207496'
p4774
tp4775
sS'Washington'
p4776
(S'39.7408195'
p4777
S'-103.5916136'
p4778
tp4779
sS'Moffat'
p4780
(S'40.5152491'
p4781
S'-107.5464541'
p4782
tp4783
sS'Rio Grande'
p4784
(S'37.6700041'
p4785
S'-106.6397638'
p4786
tp4787
sS'Logan'
p4788
(S'40.6799914'
p4789
S'-102.8393627'
p4790
tp4791
sS'Garfield'
p4792
(S'39.5347023'
p4793
S'-107.7831198'
p4794
tp4795
sS'Larimer'
p4796
(S'40.3977612'
p4797
S'-105.0749801'
p4798
tp4799
sS'Las Animas'
p4800
(S'37.1694632'
p4801
S'-104.5005407'
p4802
tp4803
ssS'AK'
p4804
(dp4805
S'Southeast Fairbanks (CA)'
p4806
(S'64.0377778'
p4807
S'-145.7322222'
p4808
tp4809
sS'Yukon-Koyukuk (CA)'
p4810
(S'67.0138889'
p4811
S'-146.4186111'
p4812
tp4813
sS'Denali'
p4814
(S'63.8569444'
p4815
S'-148.9661111'
p4816
tp4817
sS'Valdez-Cordova (CA)'
p4818
(S'62.7069444'
p4819
S'-143.9611111'
p4820
tp4821
sS'Fairbanks North Star'
p4822
(S'64.8377778'
p4823
S'-147.7163889'
p4824
tp4825
sS'Lake and Peninsula'
p4826
(S'59.7567965'
p4827
S'-154.9110837'
p4828
tp4829
sS'Haines'
p4830
(S'59.228589'
p4831
S'-135.444114'
p4832
tp4833
sS'Kenai Peninsula'
p4834
(S'59.6425'
p4835
S'-151.5483333'
p4836
tp4837
sS'Yakutat'
p4838
(S'59.5469444'
p4839
S'-139.7272222'
p4840
tp4841
sS'North Slope'
p4842
(S'70.1319444'
p4843
S'-143.6238889'
p4844
tp4845
sS'Petersburg (CA)'
p4846
(S'56.8112667'
p4847
S'-132.9512425'
p4848
tp4849
sS'Kodiak Island'
p4850
(S'57.79'
p4851
S'-152.4072222'
p4852
tp4853
sS'Wade Hampton (CA)'
p4854
(S'61.5311111'
p4855
S'-166.0966667'
p4856
tp4857
sS'Anchorage'
p4858
(S'61.2180556'
p4859
S'-149.9002778'
p4860
tp4861
sS'Juneau'
p4862
(S'58.3019444'
p4863
S'-134.4197222'
p4864
tp4865
sS'Ketchikan Gateway'
p4866
(S'55.3422222'
p4867
S'-131.6461111'
p4868
tp4869
sS'Prince of Wales-Hyder (CA)'
p4870
(S'55.1291667'
p4871
S'-131.5722222'
p4872
tp4873
sS'Nome (CA)'
p4874
(S'63.6941667'
p4875
S'-170.4788889'
p4876
tp4877
sS'Matanuska-Susitna'
p4878
(S'61.5813889'
p4879
S'-149.4394444'
p4880
tp4881
sS'Bethel (CA)'
p4882
(S'60.7922222'
p4883
S'-161.7558333'
p4884
tp4885
sS'Northwest Arctic'
p4886
(S'66.8983333'
p4887
S'-162.5966667'
p4888
tp4889
sS'Wrangell'
p4890
(S'56.4708333'
p4891
S'-132.3766667'
p4892
tp4893
ssS'AL'
p4894
(dp4895
S'Bibb'
p4896
(S'32.8595702'
p4897
S'-86.9513796'
p4898
tp4899
sS'Jackson'
p4900
(S'34.5848086'
p4901
S'-86.1069246'
p4902
tp4903
sS'Russell'
p4904
(S'32.4709761'
p4905
S'-85.0007653'
p4906
tp4907
sS'Blount'
p4908
(S'33.9481537'
p4909
S'-86.472764'
p4910
tp4911
sS'Shelby'
p4912
(S'33.3592769'
p4913
S'-86.7372095'
p4914
tp4915
sS'Coosa'
p4916
(S'32.8279036'
p4917
S'-86.1110787'
p4918
tp4919
sS'Clarke'
p4920
(S'31.5090521'
p4921
S'-87.8944435'
p4922
tp4923
sS'Colbert'
p4924
(S'34.6564802'
p4925
S'-87.7333645'
p4926
tp4927
sS'Calhoun'
p4928
(S'33.6598257'
p4929
S'-85.8316318'
p4930
tp4931
sS'Cullman'
p4932
(S'34.2050965'
p4933
S'-86.6411053'
p4934
tp4935
sS'Covington'
p4936
(S'31.2826685'
p4937
S'-86.2555067'
p4938
tp4939
sS'Jefferson'
p4940
(S'33.4442752'
p4941
S'-86.9391592'
p4942
tp4943
sS'Butler'
p4944
(S'31.8295972'
p4945
S'-86.6177517'
p4946
tp4947
sS'DeKalb'
p4948
(S'34.4442547'
p4949
S'-85.7196893'
p4950
tp4951
sS'Pickens'
p4952
(S'33.3201178'
p4953
S'-87.9027962'
p4954
tp4955
sS'Cleburne'
p4956
(S'33.9298234'
p4957
S'-85.470235'
p4958
tp4959
sS'Dale'
p4960
(S'31.4590576'
p4961
S'-85.6404932'
p4962
tp4963
sS'Coffee'
p4964
(S'31.5529426'
p4965
S'-85.8677211'
p4966
tp4967
sS'Lee'
p4968
(S'32.5401393'
p4969
S'-85.0985473'
p4970
tp4971
sS'Lawrence'
p4972
(S'34.5367602'
p4973
S'-87.4853028'
p4974
tp4975
sS'Dallas'
p4976
(S'32.4073589'
p4977
S'-87.0211007'
p4978
tp4979
sS'Fayette'
p4980
(S'33.5395571'
p4981
S'-87.6864003'
p4982
tp4983
sS'Cherokee'
p4984
(S'34.2200942'
p4985
S'-85.6077402'
p4986
tp4987
sS'Chilton'
p4988
(S'32.7745721'
p4989
S'-86.7213729'
p4990
tp4991
sS'Hale'
p4992
(S'32.9976242'
p4993
S'-87.6300075'
p4994
tp4995
sS'Lauderdale'
p4996
(S'34.8736979'
p4997
S'-87.7978081'
p4998
tp4999
sS'Tallapoosa'
p5000
(S'32.831238'
p5001
S'-85.7635692'
p5002
tp5003
sS'St. Clair'
p5004
(S'33.5862149'
p5005
S'-86.2860888'
p5006
tp5007
sS'Barbour'
p5008
(S'31.8912717'
p5009
S'-85.1454876'
p5010
tp5011
sS'Conecuh'
p5012
(S'31.4193334'
p5013
S'-87.0052519'
p5014
tp5015
sS'Pike'
p5016
(S'31.8087678'
p5017
S'-85.969951'
p5018
tp5019
sS'Crenshaw'
p5020
(S'31.5404402'
p5021
S'-86.341903'
p5022
tp5023
sS'Mobile'
p5024
(S'30.4763084'
p5025
S'-88.3422303'
p5026
tp5027
sS'Sumter'
p5028
(S'32.5843025'
p5029
S'-88.1872475'
p5030
tp5031
sS'Lamar'
p5032
(S'33.7439976'
p5033
S'-88.0022479'
p5034
tp5035
sS'Franklin'
p5036
(S'34.5634272'
p5037
S'-87.8422568'
p5038
tp5039
sS'Morgan'
p5040
(S'34.3153746'
p5041
S'-86.862503'
p5042
tp5043
sS'Henry'
p5044
(S'31.351284'
p5045
S'-85.3421559'
p5046
tp5047
sS'Walker'
p5048
(S'33.853995'
p5049
S'-87.1827818'
p5050
tp5051
sS'Montgomery'
p5052
(S'32.4237482'
p5053
S'-86.2263563'
p5054
tp5055
sS'Etowah'
p5056
(S'34.0217639'
p5057
S'-86.0885852'
p5058
tp5059
sS'Houston'
p5060
(S'31.2232313'
p5061
S'-85.3904889'
p5062
tp5063
sS'Madison'
p5064
(S'34.5370339'
p5065
S'-86.3944307'
p5066
tp5067
sS'Limestone'
p5068
(S'34.5898144'
p5069
S'-86.8169459'
p5070
tp5071
sS'Randolph'
p5072
(S'33.3265045'
p5073
S'-85.4224511'
p5074
tp5075
sS'Marshall'
p5076
(S'34.5286985'
p5077
S'-86.2533163'
p5078
tp5079
sS'Winston'
p5080
(S'34.078993'
p5081
S'-87.2122325'
p5082
tp5083
sS'Washington'
p5084
(S'31.4362772'
p5085
S'-88.0283358'
p5086
tp5087
sS'Talladega'
p5088
(S'33.6131588'
p5089
S'-86.1183061'
p5090
tp5091
sS'Tuscaloosa'
p5092
(S'33.1742863'
p5093
S'-87.6127857'
p5094
tp5095
sS'Elmore'
p5096
(S'32.6081874'
p5097
S'-86.3958072'
p5098
tp5099
sS'Marion'
p5100
(S'33.9806587'
p5101
S'-87.818358'
p5102
tp5103
sS'Escambia'
p5104
(S'31.0237921'
p5105
S'-87.4938708'
p5106
tp5107
sS'Chambers'
p5108
(S'32.8687391'
p5109
S'-85.1904971'
p5110
tp5111
sS'Lowndes'
p5112
(S'32.1840315'
p5113
S'-86.5802533'
p5114
tp5115
sS'Baldwin'
p5116
(S'30.4065868'
p5117
S'-87.6835974'
p5118
tp5119
sS'Monroe'
p5120
(S'31.3696119'
p5121
S'-87.5994351'
p5122
tp5123
sS'Autauga'
p5124
(S'32.5837436'
p5125
S'-86.4655311'
p5126
tp5127
ssS'AR'
p5128
(dp5129
S'Saline'
p5130
(S'34.5959265'
p5131
S'-92.4890469'
p5132
tp5133
sS'Mississippi'
p5134
(S'35.7050778'
p5135
S'-89.969532'
p5136
tp5137
sS'Perry'
p5138
(S'35.0011986'
p5139
S'-92.6298847'
p5140
tp5141
sS'Jackson'
p5142
(S'35.6048018'
p5143
S'-91.2817951'
p5144
tp5145
sS'Howard'
p5146
(S'34.2789981'
p5147
S'-94.0507527'
p5148
tp5149
sS'Union'
p5150
(S'33.3648455'
p5151
S'-92.7248822'
p5152
tp5153
sS'Carroll'
p5154
(S'36.4011825'
p5155
S'-93.7379711'
p5156
tp5157
sS'Calhoun'
p5158
(S'33.537892'
p5159
S'-92.4698762'
p5160
tp5161
sS'Montgomery'
p5162
(S'34.659264'
p5163
S'-93.6910292'
p5164
tp5165
sS'Pulaski'
p5166
(S'34.7464809'
p5167
S'-92.2895948'
p5168
tp5169
sS'Phillips'
p5170
(S'34.148716'
p5171
S'-90.9817766'
p5172
tp5173
sS'Jefferson'
p5174
(S'34.2739862'
p5175
S'-92.0909766'
p5176
tp5177
sS'Crittenden'
p5178
(S'35.2145337'
p5179
S'-90.1964836'
p5180
tp5181
sS'Stone'
p5182
(S'35.8684075'
p5183
S'-92.1176521'
p5184
tp5185
sS'White'
p5186
(S'35.3867486'
p5187
S'-91.8090304'
p5188
tp5189
sS'Crawford'
p5190
(S'35.436756'
p5191
S'-94.348268'
p5192
tp5193
sS'Faulkner'
p5194
(S'35.2264728'
p5195
S'-92.1240374'
p5196
tp5197
sS'Independence'
p5198
(S'35.7417441'
p5199
S'-91.6520834'
p5200
tp5201
sS'Newton'
p5202
(S'36.0081324'
p5203
S'-93.1865659'
p5204
tp5205
sS'Columbia'
p5206
(S'33.3295702'
p5207
S'-93.380172'
p5208
tp5209
sS'Lee'
p5210
(S'34.7642653'
p5211
S'-90.5470486'
p5212
tp5213
sS'Garland'
p5214
(S'34.4745341'
p5215
S'-93.2360199'
p5216
tp5217
sS'Lawrence'
p5218
(S'36.0684035'
p5219
S'-90.9559534'
p5220
tp5221
sS'Grant'
p5222
(S'34.40204'
p5223
S'-92.2376491'
p5224
tp5225
sS'Van Buren'
p5226
(S'35.7567444'
p5227
S'-92.5246054'
p5228
tp5229
sS'Drew'
p5230
(S'33.4226142'
p5231
S'-91.7626286'
p5232
tp5233
sS'Cleburne'
p5234
(S'35.4914677'
p5235
S'-92.03126'
p5236
tp5237
sS'Izard'
p5238
(S'36.1195143'
p5239
S'-92.1359867'
p5240
tp5241
sS'Little River'
p5242
(S'33.6895629'
p5243
S'-94.2857555'
p5244
tp5245
sS'Pike'
p5246
(S'34.311212'
p5247
S'-93.6176879'
p5248
tp5249
sS'Poinsett'
p5250
(S'35.4803601'
p5251
S'-90.7356678'
p5252
tp5253
sS'Ashley'
p5254
(S'33.1870653'
p5255
S'-91.5295651'
p5256
tp5257
sS'Sevier'
p5258
(S'34.1692789'
p5259
S'-94.3163178'
p5260
tp5261
sS'Johnson'
p5262
(S'35.5514712'
p5263
S'-93.4301828'
p5264
tp5265
sS'Hot Spring'
p5266
(S'34.3320363'
p5267
S'-92.9132276'
p5268
tp5269
sS'Dallas'
p5270
(S'33.8153834'
p5271
S'-92.7096054'
p5272
tp5273
sS'Benton'
p5274
(S'36.1881365'
p5275
S'-94.5404962'
p5276
tp5277
sS'Cross'
p5278
(S'35.224533'
p5279
S'-90.7867798'
p5280
tp5281
sS'Greene'
p5282
(S'36.0584021'
p5283
S'-90.4973286'
p5284
tp5285
sS'Searcy'
p5286
(S'36.0300744'
p5287
S'-92.8046118'
p5288
tp5289
sS'Lafayette'
p5290
(S'33.3584581'
p5291
S'-93.4360073'
p5292
tp5293
sS'Franklin'
p5294
(S'35.4870295'
p5295
S'-93.8276965'
p5296
tp5297
sS'Boone'
p5298
(S'36.2297936'
p5299
S'-93.1076765'
p5300
tp5301
sS'Clay'
p5302
(S'36.2786754'
p5303
S'-90.6628897'
p5304
tp5305
sS'Ouachita'
p5306
(S'33.5845582'
p5307
S'-92.8343294'
p5308
tp5309
sS'Yell'
p5310
(S'35.1486968'
p5311
S'-92.9971159'
p5312
tp5313
sS'Sebastian'
p5314
(S'35.3859242'
p5315
S'-94.3985475'
p5316
tp5317
sS'Fulton'
p5318
(S'36.3711763'
p5319
S'-91.8226479'
p5320
tp5321
sS'Hempstead'
p5322
(S'33.6145649'
p5323
S'-93.8135164'
p5324
tp5325
sS'Baxter'
p5326
(S'36.3353449'
p5327
S'-92.3851593'
p5328
tp5329
sS'Woodruff'
p5330
(S'35.2823079'
p5331
S'-91.3654063'
p5332
tp5333
sS'Madison'
p5334
(S'36.0506315'
p5335
S'-93.5185199'
p5336
tp5337
sS'Lincoln'
p5338
(S'33.9628786'
p5339
S'-91.9593041'
p5340
tp5341
sS'Lonoke'
p5342
(S'34.5442609'
p5343
S'-91.9690285'
p5344
tp5345
sS'Clark'
p5346
(S'34.1209292'
p5347
S'-93.053784'
p5348
tp5349
sS'Pope'
p5350
(S'35.2784173'
p5351
S'-93.1337856'
p5352
tp5353
sS'Conway'
p5354
(S'35.2986915'
p5355
S'-92.5193252'
p5356
tp5357
sS'Polk'
p5358
(S'34.5862171'
p5359
S'-94.2396554'
p5360
tp5361
sS'Craighead'
p5362
(S'35.8422967'
p5363
S'-90.7042791'
p5364
tp5365
sS'Washington'
p5366
(S'36.0420248'
p5367
S'-94.2471515'
p5368
tp5369
sS'Bradley'
p5370
(S'33.4465028'
p5371
S'-92.1740294'
p5372
tp5373
sS'Logan'
p5374
(S'35.2920325'
p5375
S'-93.7299173'
p5376
tp5377
sS'Prairie'
p5378
(S'34.9900884'
p5379
S'-91.7368032'
p5380
tp5381
sS'Marion'
p5382
(S'36.2789578'
p5383
S'-92.5971082'
p5384
tp5385
sS'Miller'
p5386
(S'33.4417915'
p5387
S'-94.0376881'
p5388
tp5389
sS'Sharp'
p5390
(S'36.0114607'
p5391
S'-91.3990228'
p5392
tp5393
sS'Chicot'
p5394
(S'33.3287279'
p5395
S'-91.2817806'
p5396
tp5397
sS'Nevada'
p5398
(S'33.7184436'
p5399
S'-93.1340555'
p5400
tp5401
sS'Randolph'
p5402
(S'36.2614555'
p5403
S'-90.971233'
p5404
tp5405
ssS'VT'
p5406
(dp5407
S'Addison'
p5408
(S'43.8964511'
p5409
S'-73.0998363'
p5410
tp5411
sS'Grand Isle'
p5412
(S'44.8769853'
p5413
S'-73.3387437'
p5414
tp5415
sS'Orleans'
p5416
(S'44.7481049'
p5417
S'-72.1762128'
p5418
tp5419
sS'Bennington'
p5420
(S'43.1636875'
p5421
S'-73.0723269'
p5422
tp5423
sS'Lamoille'
p5424
(S'44.5617189'
p5425
S'-72.5984486'
p5426
tp5427
sS'Washington'
p5428
(S'44.1970055'
p5429
S'-72.5020494'
p5430
tp5431
sS'Essex'
p5432
(S'44.8147712'
p5433
S'-71.8803728'
p5434
tp5435
sS'Chittenden'
p5436
(S'44.4375513'
p5437
S'-73.068181'
p5438
tp5439
sS'Windham'
p5440
(S'43.067857'
p5441
S'-72.4586995'
p5442
tp5443
sS'Franklin'
p5444
(S'44.8817124'
p5445
S'-72.9429124'
p5446
tp5447
sS'Orange'
p5448
(S'43.8909001'
p5449
S'-72.4912096'
p5450
tp5451
sS'Rutland'
p5452
(S'43.7981195'
p5453
S'-73.0876119'
p5454
tp5455
sS'Caledonia'
p5456
(S'44.3289482'
p5457
S'-72.1689857'
p5458
tp5459
sS'Windsor'
p5460
(S'43.4803494'
p5461
S'-72.3848131'
p5462
tp5463
ssS'IL'
p5464
(dp5465
S'Richland'
p5466
(S'38.7308811'
p5467
S'-88.0853155'
p5468
tp5469
sS'Shelby'
p5470
(S'39.4408693'
p5471
S'-88.5947802'
p5472
tp5473
sS'Union'
p5474
(S'37.4517163'
p5475
S'-89.2681402'
p5476
tp5477
sS'Jo Daviess'
p5478
(S'42.4166744'
p5479
S'-90.4290168'
p5480
tp5481
sS'McDonough'
p5482
(S'40.4592076'
p5483
S'-90.6717971'
p5484
tp5485
sS'Wayne'
p5486
(S'38.5706035'
p5487
S'-88.4656042'
p5488
tp5489
sS'Bureau'
p5490
(S'41.3275352'
p5491
S'-89.1998077'
p5492
tp5493
sS'Wabash'
p5494
(S'38.4108801'
p5495
S'-87.7614174'
p5496
tp5497
sS'Champaign'
p5498
(S'40.1117007'
p5499
S'-88.0417048'
p5500
tp5501
sS'Tazewell'
p5502
(S'40.5675388'
p5503
S'-89.640658'
p5504
tp5505
sS'De Witt'
p5506
(S'40.1536479'
p5507
S'-88.9645253'
p5508
tp5509
sS'Hancock'
p5510
(S'40.6175416'
p5511
S'-91.2879275'
p5512
tp5513
sS'Coles'
p5514
(S'39.4830897'
p5515
S'-88.3728255'
p5516
tp5517
sS'Henry'
p5518
(S'41.4480902'
p5519
S'-90.1542849'
p5520
tp5521
sS'Montgomery'
p5522
(S'39.2058801'
p5523
S'-89.4045304'
p5524
tp5525
sS'Jersey'
p5526
(S'39.1200471'
p5527
S'-90.3284479'
p5528
tp5529
sS'Washington'
p5530
(S'38.2583836'
p5531
S'-89.3356392'
p5532
tp5533
sS'LaSalle'
p5534
(S'41.3275349'
p5535
S'-89.1289728'
p5536
tp5537
sS'Marion'
p5538
(S'38.5250491'
p5539
S'-89.1334037'
p5540
tp5541
sS'Jasper'
p5542
(S'39.103652'
p5543
S'-88.1353157'
p5544
tp5545
sS'Ogle'
p5546
(S'41.9811409'
p5547
S'-89.5951117'
p5548
tp5549
sS'Effingham'
p5550
(S'39.1200418'
p5551
S'-88.5433829'
p5552
tp5553
sS'Warren'
p5554
(S'40.7928169'
p5555
S'-90.7798592'
p5556
tp5557
sS'Jackson'
p5558
(S'37.7644952'
p5559
S'-89.3350888'
p5560
tp5561
sS'Mason'
p5562
(S'40.247266'
p5563
S'-90.0851178'
p5564
tp5565
sS'Jefferson'
p5566
(S'38.1761609'
p5567
S'-88.9675689'
p5568
tp5569
sS'Lee'
p5570
(S'41.8389213'
p5571
S'-89.4795478'
p5572
tp5573
sS'DuPage'
p5574
(S'41.7697533'
p5575
S'-87.9358931'
p5576
tp5577
sS'Peoria'
p5578
(S'40.7458704'
p5579
S'-89.7442697'
p5580
tp5581
sS'Ford'
p5582
(S'40.756702'
p5583
S'-88.191158'
p5584
tp5585
sS'Cook'
p5586
(S'41.850033'
p5587
S'-87.6500523'
p5588
tp5589
sS'Rock Island'
p5590
(S'41.5067003'
p5591
S'-90.5151342'
p5592
tp5593
sS'McLean'
p5594
(S'40.4842027'
p5595
S'-88.9936873'
p5596
tp5597
sS'Johnson'
p5598
(S'37.4153295'
p5599
S'-88.8978435'
p5600
tp5601
sS'Menard'
p5602
(S'40.0117151'
p5603
S'-89.8481652'
p5604
tp5605
sS'Woodford'
p5606
(S'40.6758686'
p5607
S'-89.007852'
p5608
tp5609
sS'Greene'
p5610
(S'39.3436577'
p5611
S'-90.2126145'
p5612
tp5613
sS'Clay'
p5614
(S'38.6689364'
p5615
S'-88.4856042'
p5616
tp5617
sS'Fulton'
p5618
(S'40.5580945'
p5619
S'-90.0351167'
p5620
tp5621
sS'Macon'
p5622
(S'39.8403147'
p5623
S'-88.9548001'
p5624
tp5625
sS'Kendall'
p5626
(S'41.6828074'
p5627
S'-88.3514596'
p5628
tp5629
sS'Madison'
p5630
(S'38.6825502'
p5631
S'-90.1570536'
p5632
tp5633
sS'Clinton'
p5634
(S'38.5100492'
p5635
S'-89.619536'
p5636
tp5637
sS'Clark'
p5638
(S'39.3355924'
p5639
S'-87.8819761'
p5640
tp5641
sS'Moultrie'
p5642
(S'39.599479'
p5643
S'-88.6078392'
p5644
tp5645
sS'Kane'
p5646
(S'42.0372487'
p5647
S'-88.2811895'
p5648
tp5649
sS'Saline'
p5650
(S'37.6842156'
p5651
S'-88.6328326'
p5652
tp5653
sS'Morgan'
p5654
(S'39.733936'
p5655
S'-90.2290098'
p5656
tp5657
sS'Stark'
p5658
(S'41.0936482'
p5659
S'-89.8648284'
p5660
tp5661
sS'McHenry'
p5662
(S'42.333355'
p5663
S'-88.2667534'
p5664
tp5665
sS'Lawrence'
p5666
(S'38.7292138'
p5667
S'-87.6816927'
p5668
tp5669
sS'Fayette'
p5670
(S'38.960601'
p5671
S'-89.0936778'
p5672
tp5673
sS'Sangamon'
p5674
(S'39.8017171'
p5675
S'-89.6437107'
p5676
tp5677
sS'Alexander'
p5678
(S'37.0053293'
p5679
S'-89.1764608'
p5680
tp5681
sS'Pike'
p5682
(S'39.4597701'
p5683
S'-90.6259588'
p5684
tp5685
sS'Adams'
p5686
(S'39.9356016'
p5687
S'-91.4098727'
p5688
tp5689
sS'Stephenson'
p5690
(S'42.2966861'
p5691
S'-89.6212271'
p5692
tp5693
sS'Livingston'
p5694
(S'40.8930888'
p5695
S'-88.4053323'
p5696
tp5697
sS'Franklin'
p5698
(S'37.9967163'
p5699
S'-88.9200685'
p5700
tp5701
sS'Marshall'
p5702
(S'41.0286474'
p5703
S'-89.4384235'
p5704
tp5705
sS'Carroll'
p5706
(S'42.0944672'
p5707
S'-90.1567944'
p5708
tp5709
sS'Schuyler'
p5710
(S'40.0294925'
p5711
S'-90.5717939'
p5712
tp5713
sS'Grundy'
p5714
(S'41.357254'
p5715
S'-88.4211785'
p5716
tp5717
sS'Mercer'
p5718
(S'41.1997568'
p5719
S'-90.7493063'
p5720
tp5721
sS'Gallatin'
p5722
(S'37.7992131'
p5723
S'-88.2611509'
p5724
tp5725
sS'Cumberland'
p5726
(S'39.2478159'
p5727
S'-88.1633719'
p5728
tp5729
sS'Edwards'
p5730
(S'38.5511602'
p5731
S'-88.1083714'
p5732
tp5733
sS'Lake'
p5734
(S'42.1969689'
p5735
S'-88.0934108'
p5736
tp5737
sS'Douglas'
p5738
(S'39.7991986'
p5739
S'-88.2831038'
p5740
tp5741
sS'Pulaski'
p5742
(S'37.2936633'
p5743
S'-88.9753462'
p5744
tp5745
sS'DeKalb'
p5746
(S'42.097248'
p5747
S'-88.6928688'
p5748
tp5749
sS'Williamson'
p5750
(S'37.7306054'
p5751
S'-88.9331256'
p5752
tp5753
sS'Christian'
p5754
(S'39.457827'
p5755
S'-89.4039813'
p5756
tp5757
sS'Winnebago'
p5758
(S'42.2711311'
p5759
S'-89.0939952'
p5760
tp5761
sS'Macoupin'
p5762
(S'39.0397688'
p5763
S'-90.1406643'
p5764
tp5765
sS'St. Clair'
p5766
(S'38.5200504'
p5767
S'-89.9839935'
p5768
tp5769
sS'Knox'
p5770
(S'40.9478158'
p5771
S'-90.3712395'
p5772
tp5773
sS'Kankakee'
p5774
(S'41.1200325'
p5775
S'-87.8611531'
p5776
tp5777
sS'Whiteside'
p5778
(S'41.809751'
p5779
S'-89.9651186'
p5780
tp5781
sS'Will'
p5782
(S'41.457813'
p5783
S'-87.5364288'
p5784
tp5785
sS'Boone'
p5786
(S'42.3683522'
p5787
S'-88.822047'
p5788
tp5789
sS'Cass'
p5790
(S'40.0175483'
p5791
S'-90.4242916'
p5792
tp5793
sS'Iroquois'
p5794
(S'40.954478'
p5795
S'-87.6544781'
p5796
tp5797
sS'Vermilion'
p5798
(S'40.124481'
p5799
S'-87.6300207'
p5800
tp5801
sS'Logan'
p5802
(S'40.305598'
p5803
S'-89.6028829'
p5804
tp5805
sS'Randolph'
p5806
(S'37.9136628'
p5807
S'-89.8220505'
p5808
tp5809
sS'Monroe'
p5810
(S'38.4436637'
p5811
S'-90.2012239'
p5812
tp5813
ssS'GA'
p5814
(dp5815
S'Union'
p5816
(S'34.8761989'
p5817
S'-83.9582412'
p5818
tp5819
sS'Paulding'
p5820
(S'33.9237141'
p5821
S'-84.8407732'
p5822
tp5823
sS'Montgomery'
p5824
(S'32.035743'
p5825
S'-82.5081868'
p5826
tp5827
sS'Wayne'
p5828
(S'31.4863254'
p5829
S'-82.0170596'
p5830
tp5831
sS'Screven'
p5832
(S'32.7504441'
p5833
S'-81.636776'
p5834
tp5835
sS'Pickens'
p5836
(S'34.5092563'
p5837
S'-84.5049279'
p5838
tp5839
sS'Ben Hill'
p5840
(S'31.7149082'
p5841
S'-83.2526545'
p5842
tp5843
sS'Worth'
p5844
(S'31.512959'
p5845
S'-83.7385063'
p5846
tp5847
sS'McDuffie'
p5848
(S'33.4706927'
p5849
S'-82.5045733'
p5850
tp5851
sS'Dodge'
p5852
(S'32.1976729'
p5853
S'-83.1776514'
p5854
tp5855
sS'Columbia'
p5856
(S'33.4504157'
p5857
S'-82.1981764'
p5858
tp5859
sS'Bibb'
p5860
(S'32.8406946'
p5861
S'-83.6324022'
p5862
tp5863
sS'Brooks'
p5864
(S'30.7849191'
p5865
S'-83.5598811'
p5866
tp5867
sS'Walton'
p5868
(S'33.8389977'
p5869
S'-83.9007382'
p5870
tp5871
sS'Harris'
p5872
(S'32.8648522'
p5873
S'-84.8540982'
p5874
tp5875
sS'Coweta'
p5876
(S'33.3392842'
p5877
S'-84.6485417'
p5878
tp5879
sS'Dougherty'
p5880
(S'31.5785074'
p5881
S'-84.155741'
p5882
tp5883
sS'Meriwether'
p5884
(S'33.1456782'
p5885
S'-84.7318754'
p5886
tp5887
sS'Hancock'
p5888
(S'33.183759'
p5889
S'-83.0007035'
p5890
tp5891
sS'Cook'
p5892
(S'31.0454716'
p5893
S'-83.3921031'
p5894
tp5895
sS'Gordon'
p5896
(S'34.502587'
p5897
S'-84.9510542'
p5898
tp5899
sS'Henry'
p5900
(S'33.3870578'
p5901
S'-84.2829784'
p5902
tp5903
sS'Wilkes'
p5904
(S'33.8012337'
p5905
S'-82.9226467'
p5906
tp5907
sS'Thomas'
p5908
(S'31.0112991'
p5909
S'-83.8662821'
p5910
tp5911
sS'Ware'
p5912
(S'31.2135511'
p5913
S'-82.3540178'
p5914
tp5915
sS'Stephens'
p5916
(S'34.5773206'
p5917
S'-83.3323851'
p5918
tp5919
sS'Newton'
p5920
(S'33.5481691'
p5921
S'-83.9743544'
p5922
tp5923
sS'Washington'
p5924
(S'32.9815431'
p5925
S'-82.810138'
p5926
tp5927
sS'Decatur'
p5928
(S'30.9037995'
p5929
S'-84.5754699'
p5930
tp5931
sS'Heard'
p5932
(S'33.2776182'
p5933
S'-85.0979973'
p5934
tp5935
sS'Camden'
p5936
(S'30.9666202'
p5937
S'-81.7901087'
p5938
tp5939
sS'Jasper'
p5940
(S'33.3048479'
p5941
S'-83.6832289'
p5942
tp5943
sS'Effingham'
p5944
(S'32.3363045'
p5945
S'-81.3914992'
p5946
tp5947
sS'Lowndes'
p5948
(S'30.8327022'
p5949
S'-83.2784851'
p5950
tp5951
sS'Polk'
p5952
(S'34.0026005'
p5953
S'-85.0416133'
p5954
tp5955
sS'Jackson'
p5956
(S'34.1139993'
p5957
S'-83.4315488'
p5958
tp5959
sS'McIntosh'
p5960
(S'31.5332762'
p5961
S'-81.4270478'
p5962
tp5963
sS'Liberty'
p5964
(S'31.805769'
p5965
S'-81.4306642'
p5966
tp5967
sS'Jefferson'
p5968
(S'33.2076456'
p5969
S'-82.391792'
p5970
tp5971
sS'White'
p5972
(S'34.5970402'
p5973
S'-83.7632366'
p5974
tp5975
sS'Burke'
p5976
(S'33.0898731'
p5977
S'-82.0156736'
p5978
tp5979
sS'Putnam'
p5980
(S'33.4492969'
p5981
S'-83.3115508'
p5982
tp5983
sS'Coffee'
p5984
(S'31.5088073'
p5985
S'-82.8498654'
p5986
tp5987
sS'Glynn'
p5988
(S'31.197452'
p5989
S'-81.4831564'
p5990
tp5991
sS'Lee'
p5992
(S'31.7321156'
p5993
S'-84.1707423'
p5994
tp5995
sS'Catoosa'
p5996
(S'34.963131'
p5997
S'-85.2594001'
p5998
tp5999
sS'Butts'
p6000
(S'33.2945651'
p6001
S'-83.9660209'
p6002
tp6003
sS'Oconee'
p6004
(S'33.8628959'
p6005
S'-83.4087709'
p6006
tp6007
sS'Toombs'
p6008
(S'32.2176855'
p6009
S'-82.4134614'
p6010
tp6011
sS'Chatham'
p6012
(S'32.0835407'
p6013
S'-81.0998342'
p6014
tp6015
sS'Colquitt'
p6016
(S'31.1999071'
p6017
S'-83.8735088'
p6018
tp6019
sS'Barrow'
p6020
(S'33.9651127'
p6021
S'-83.596555'
p6022
tp6023
sS'Schley'
p6024
(S'32.3312646'
p6025
S'-84.342415'
p6026
tp6027
sS'Johnson'
p6028
(S'32.7293279'
p6029
S'-82.7198591'
p6030
tp6031
sS'Candler'
p6032
(S'32.397118'
p6033
S'-82.0601196'
p6034
tp6035
sS'Oglethorpe'
p6036
(S'33.9059516'
p6037
S'-82.9229218'
p6038
tp6039
sS'Irwin'
p6040
(S'31.5943567'
p6041
S'-83.2504328'
p6042
tp6043
sS'Greene'
p6044
(S'33.5756831'
p6045
S'-83.1823789'
p6046
tp6047
sS'Bartow'
p6048
(S'34.1650972'
p6049
S'-84.7999383'
p6050
tp6051
sS'Forsyth'
p6052
(S'34.2073196'
p6053
S'-84.1401926'
p6054
tp6055
sS'Clay'
p6056
(S'31.6090569'
p6057
S'-85.0471505'
p6058
tp6059
sS'Fulton'
p6060
(S'34.0289259'
p6061
S'-84.198579'
p6062
tp6063
sS'Macon'
p6064
(S'32.3695983'
p6065
S'-84.1879675'
p6066
tp6067
sS'Madison'
p6068
(S'34.1659425'
p6069
S'-83.1704276'
p6070
tp6071
sS'Taylor'
p6072
(S'32.5018107'
p6073
S'-84.4210305'
p6074
tp6075
sS'Evans'
p6076
(S'32.1615815'
p6077
S'-81.9040047'
p6078
tp6079
sS'Clinch'
p6080
(S'30.9902118'
p6081
S'-82.6831944'
p6082
tp6083
sS'Echols'
p6084
(S'30.826044'
p6085
S'-82.9051393'
p6086
tp6087
sS'Grady'
p6088
(S'30.8265813'
p6089
S'-84.1785104'
p6090
tp6091
sS'Dawson'
p6092
(S'34.4212053'
p6093
S'-84.1190804'
p6094
tp6095
sS'Hart'
p6096
(S'34.3528825'
p6097
S'-82.932087'
p6098
tp6099
sS'Baldwin'
p6100
(S'33.0801429'
p6101
S'-83.2320991'
p6102
tp6103
sS'Lumpkin'
p6104
(S'34.5325938'
p6105
S'-83.98491'
p6106
tp6107
sS'Haralson'
p6108
(S'33.7212179'
p6109
S'-85.1455036'
p6110
tp6111
sS'Rockdale'
p6112
(S'33.6676103'
p6113
S'-84.0176904'
p6114
tp6115
sS'Cherokee'
p6116
(S'34.1014873'
p6117
S'-84.5193754'
p6118
tp6119
sS'Clarke'
p6120
(S'33.960948'
p6121
S'-83.3779358'
p6122
tp6123
sS'Richmond'
p6124
(S'33.4709702'
p6125
S'-81.9748379'
p6126
tp6127
sS'Cobb'
p6128
(S'34.0234337'
p6129
S'-84.6154897'
p6130
tp6131
sS'Glascock'
p6132
(S'33.2198688'
p6133
S'-82.7031896'
p6134
tp6135
sS'Muscogee'
p6136
(S'32.4773642'
p6137
S'-84.8785413'
p6138
tp6139
sS'Fayette'
p6140
(S'33.4487257'
p6141
S'-84.4549262'
p6142
tp6143
sS'Elbert'
p6144
(S'34.2064969'
p6145
S'-82.8915287'
p6146
tp6147
sS'Early'
p6148
(S'31.3599'
p6149
S'-84.6701951'
p6150
tp6151
sS'Floyd'
p6152
(S'34.1075975'
p6153
S'-85.3363434'
p6154
tp6155
sS'Towns'
p6156
(S'34.9492586'
p6157
S'-83.7573948'
p6158
tp6159
sS'Pike'
p6160
(S'33.1023454'
p6161
S'-84.3426997'
p6162
tp6163
sS'Lincoln'
p6164
(S'33.8784562'
p6165
S'-82.5523546'
p6166
tp6167
sS'Dade'
p6168
(S'34.8720222'
p6169
S'-85.5091301'
p6170
tp6171
sS'Long'
p6172
(S'31.7079919'
p6173
S'-81.7423357'
p6174
tp6175
sS'Walker'
p6176
(S'34.871188'
p6177
S'-85.2907896'
p6178
tp6179
sS'Chattooga'
p6180
(S'34.5439735'
p6181
S'-85.3105112'
p6182
tp6183
sS'Carroll'
p6184
(S'33.7370514'
p6185
S'-85.032445'
p6186
tp6187
sS'Murray'
p6188
(S'34.7659145'
p6189
S'-84.7699385'
p6190
tp6191
sS'Talbot'
p6192
(S'32.579862'
p6193
S'-84.5507559'
p6194
tp6195
sS'Tift'
p6196
(S'31.3410184'
p6197
S'-83.5935011'
p6198
tp6199
sS'Peach'
p6200
(S'32.6537561'
p6201
S'-83.7596295'
p6202
tp6203
sS'Bryan'
p6204
(S'31.9382652'
p6205
S'-81.3034433'
p6206
tp6207
sS'Sumter'
p6208
(S'32.1401594'
p6209
S'-84.3813028'
p6210
tp6211
sS'Douglas'
p6212
(S'33.7562186'
p6213
S'-84.7052128'
p6214
tp6215
sS'Atkinson'
p6216
(S'31.297703'
p6217
S'-82.8523668'
p6218
tp6219
sS'DeKalb'
p6220
(S'33.6759424'
p6221
S'-84.1149163'
p6222
tp6223
sS'Troup'
p6224
(S'33.1731769'
p6225
S'-84.914936'
p6226
tp6227
sS'Bleckley'
p6228
(S'32.3868278'
p6229
S'-83.3546098'
p6230
tp6231
sS'Gwinnett'
p6232
(S'33.8942729'
p6233
S'-83.95574'
p6234
tp6235
sS'Clayton'
p6236
(S'33.6220542'
p6237
S'-84.3690918'
p6238
tp6239
sS'Brantley'
p6240
(S'31.3366088'
p6241
S'-81.9562254'
p6242
tp6243
sS'Hall'
p6244
(S'34.1851017'
p6245
S'-83.9251809'
p6246
tp6247
sS'Jones'
p6248
(S'33.0095802'
p6249
S'-83.5337816'
p6250
tp6251
sS'Pierce'
p6252
(S'31.3060513'
p6253
S'-82.2420661'
p6254
tp6255
sS'Laurens'
p6256
(S'32.6457188'
p6257
S'-82.7962504'
p6258
tp6259
sS'Dooly'
p6260
(S'32.2890487'
p6261
S'-83.6537881'
p6262
tp6263
sS'Berrien'
p6264
(S'31.0746445'
p6265
S'-83.1993186'
p6266
tp6267
sS'Emanuel'
p6268
(S'32.5973857'
p6269
S'-82.3337376'
p6270
tp6271
sS'Morgan'
p6272
(S'33.5981814'
p6273
S'-83.4048862'
p6274
tp6275
sS'Banks'
p6276
(S'34.3078817'
p6277
S'-83.6335036'
p6278
tp6279
sS'Mitchell'
p6280
(S'31.1276849'
p6281
S'-84.1518466'
p6282
tp6283
sS'Houston'
p6284
(S'32.4582066'
p6285
S'-83.7315723'
p6286
tp6287
sS'Whitfield'
p6288
(S'34.7698021'
p6289
S'-84.9702228'
p6290
tp6291
sS'Spalding'
p6292
(S'33.2467807'
p6293
S'-84.2640904'
p6294
tp6295
sS'Miller'
p6296
(S'31.1712935'
p6297
S'-84.7332527'
p6298
tp6299
sS'Habersham'
p6300
(S'34.5417653'
p6301
S'-83.5401724'
p6302
tp6303
sS'Rabun'
p6304
(S'34.9403678'
p6305
S'-83.1870976'
p6306
tp6307
sS'Bulloch'
p6308
(S'32.538222'
p6309
S'-81.9323384'
p6310
tp6311
sS'Fannin'
p6312
(S'34.863972'
p6313
S'-84.324087'
p6314
tp6315
sS'Tattnall'
p6316
(S'32.0315882'
p6317
S'-81.8934495'
p6318
tp6319
sS'Turner'
p6320
(S'31.7060134'
p6321
S'-83.653224'
p6322
tp6323
sS'Twiggs'
p6324
(S'32.6057103'
p6325
S'-83.2454361'
p6326
tp6327
sS'Monroe'
p6328
(S'33.0342974'
p6329
S'-83.938242'
p6330
tp6331
sS'Franklin'
p6332
(S'34.3698266'
p6333
S'-83.235155'
p6334
tp6335
ssS'IN'
p6336
(dp6337
S'Daviess'
p6338
(S'38.6592152'
p6339
S'-87.172789'
p6340
tp6341
sS'Shelby'
p6342
(S'39.5214373'
p6343
S'-85.7769238'
p6344
tp6345
sS'Union'
p6346
(S'39.5964391'
p6347
S'-84.8902362'
p6348
tp6349
sS'Montgomery'
p6350
(S'40.0411536'
p6351
S'-86.8744516'
p6352
tp6353
sS'Wayne'
p6354
(S'39.8122703'
p6355
S'-84.8880159'
p6356
tp6357
sS'Wabash'
p6358
(S'40.797821'
p6359
S'-85.8205411'
p6360
tp6361
sS'White'
p6362
(S'40.7453169'
p6363
S'-86.7647343'
p6364
tp6365
sS'Porter'
p6366
(S'41.4730948'
p6367
S'-87.0611412'
p6368
tp6369
sS'Brown'
p6370
(S'39.2072708'
p6371
S'-86.2511011'
p6372
tp6373
sS'LaPorte'
p6374
(S'41.7075394'
p6375
S'-86.8950297'
p6376
tp6377
sS'Jay'
p6378
(S'40.3103237'
p6379
S'-84.8432969'
p6380
tp6381
sS'Jennings'
p6382
(S'39.006165'
p6383
S'-85.6235796'
p6384
tp6385
sS'Dearborn'
p6386
(S'39.2608882'
p6387
S'-84.8207849'
p6388
tp6389
sS'Miami'
p6390
(S'40.7536528'
p6391
S'-86.0688811'
p6392
tp6393
sS'Hancock'
p6394
(S'39.9080952'
p6395
S'-85.9227592'
p6396
tp6397
sS'Henry'
p6398
(S'40.0044908'
p6399
S'-85.3846928'
p6400
tp6401
sS'Vigo'
p6402
(S'39.4667034'
p6403
S'-87.4139092'
p6404
tp6405
sS'Sullivan'
p6406
(S'39.1408754'
p6407
S'-87.3019609'
p6408
tp6409
sS'Dubois'
p6410
(S'38.3914418'
p6411
S'-86.9311094'
p6412
tp6413
sS'Washington'
p6414
(S'38.649501'
p6415
S'-86.1274792'
p6416
tp6417
sS'Bartholomew'
p6418
(S'39.2014405'
p6419
S'-85.9213796'
p6420
tp6421
sS'Marion'
p6422
(S'39.7683765'
p6423
S'-86.1580423'
p6424
tp6425
sS'Jasper'
p6426
(S'40.9367045'
p6427
S'-87.1508562'
p6428
tp6429
sS'Vermillion'
p6430
(S'39.7944824'
p6431
S'-87.3958502'
p6432
tp6433
sS'Allen'
p6434
(S'41.1306041'
p6435
S'-85.1288597'
p6436
tp6437
sS'Perry'
p6438
(S'38.1217286'
p6439
S'-86.5177586'
p6440
tp6441
sS'Jackson'
p6442
(S'38.9592201'
p6443
S'-85.8902547'
p6444
tp6445
sS'Howard'
p6446
(S'40.486427'
p6447
S'-86.1336033'
p6448
tp6449
sS'Jefferson'
p6450
(S'38.7358933'
p6451
S'-85.3799577'
p6452
tp6453
sS'Hendricks'
p6454
(S'39.8433769'
p6455
S'-86.3977736'
p6456
tp6457
sS'St. Joseph'
p6458
(S'41.6833813'
p6459
S'-86.2500066'
p6460
tp6461
sS'Putnam'
p6462
(S'39.6444898'
p6463
S'-86.8647316'
p6464
tp6465
sS'Hamilton'
p6466
(S'40.0455918'
p6467
S'-86.0085955'
p6468
tp6469
sS'Kosciusko'
p6470
(S'41.2381001'
p6471
S'-85.8530469'
p6472
tp6473
sS'Rush'
p6474
(S'39.6092137'
p6475
S'-85.4463594'
p6476
tp6477
sS'Johnson'
p6478
(S'39.6136578'
p6479
S'-86.1066526'
p6480
tp6481
sS'Whitley'
p6482
(S'41.2306034'
p6483
S'-85.3194208'
p6484
tp6485
sS'Greene'
p6486
(S'39.0347666'
p6487
S'-87.1658458'
p6488
tp6489
sS'Ripley'
p6490
(S'39.3000511'
p6491
S'-85.222184'
p6492
tp6493
sS'LaGrange'
p6494
(S'41.5500501'
p6495
S'-85.2327519'
p6496
tp6497
sS'Ohio'
p6498
(S'38.9495047'
p6499
S'-84.853838'
p6500
tp6501
sS'Gibson'
p6502
(S'38.3553236'
p6503
S'-87.5675223'
p6504
tp6505
sS'Spencer'
p6506
(S'38.0147731'
p6507
S'-87.036386'
p6508
tp6509
sS'Fulton'
p6510
(S'41.0647645'
p6511
S'-86.2158331'
p6512
tp6513
sS'Madison'
p6514
(S'39.9975415'
p6515
S'-85.7466439'
p6516
tp6517
sS'Clinton'
p6518
(S'40.2794809'
p6519
S'-86.5108355'
p6520
tp6521
sS'Clark'
p6522
(S'38.2775702'
p6523
S'-85.7371847'
p6524
tp6525
sS'Owen'
p6526
(S'39.2867117'
p6527
S'-86.7625058'
p6528
tp6529
sS'Huntington'
p6530
(S'40.8831011'
p6531
S'-85.497476'
p6532
tp6533
sS'Clay'
p6534
(S'39.523652'
p6535
S'-87.1250154'
p6536
tp6537
sS'Blackford'
p6538
(S'40.4511541'
p6539
S'-85.369972'
p6540
tp6541
sS'Morgan'
p6542
(S'39.4278253'
p6543
S'-86.428328'
p6544
tp6545
sS'Delaware'
p6546
(S'40.1933767'
p6547
S'-85.3863599'
p6548
tp6549
sS'Fountain'
p6550
(S'40.1417045'
p6551
S'-87.3947357'
p6552
tp6553
sS'Lawrence'
p6554
(S'38.8611619'
p6555
S'-86.4872149'
p6556
tp6557
sS'Elkhart'
p6558
(S'41.675328'
p6559
S'-85.7061011'
p6560
tp6561
sS'Grant'
p6562
(S'40.5583739'
p6563
S'-85.6591442'
p6564
tp6565
sS'Fayette'
p6566
(S'39.6411589'
p6567
S'-85.1410748'
p6568
tp6569
sS'Floyd'
p6570
(S'38.2856247'
p6571
S'-85.8241312'
p6572
tp6573
sS'Pike'
p6574
(S'38.288661'
p6575
S'-87.2191735'
p6576
tp6577
sS'Adams'
p6578
(S'40.7169914'
p6579
S'-84.8532978'
p6580
tp6581
sS'Steuben'
p6582
(S'41.6347726'
p6583
S'-84.9994088'
p6584
tp6585
sS'Switzerland'
p6586
(S'38.8589483'
p6587
S'-85.1405093'
p6588
tp6589
sS'Vanderburgh'
p6590
(S'37.9747644'
p6591
S'-87.5558482'
p6592
tp6593
sS'Marshall'
p6594
(S'41.2189311'
p6595
S'-86.4230626'
p6596
tp6597
sS'Carroll'
p6598
(S'40.4589248'
p6599
S'-86.4888865'
p6600
tp6601
sS'Harrison'
p6602
(S'38.2120121'
p6603
S'-86.1219155'
p6604
tp6605
sS'Boone'
p6606
(S'40.0167075'
p6607
S'-86.3999984'
p6608
tp6609
sS'Starke'
p6610
(S'41.2150403'
p6611
S'-86.7758502'
p6612
tp6613
sS'Lake'
p6614
(S'41.5833688'
p6615
S'-87.5000412'
p6616
tp6617
sS'Pulaski'
p6618
(S'41.0514299'
p6619
S'-86.6030648'
p6620
tp6621
sS'Orange'
p6622
(S'38.5489432'
p6623
S'-86.6199914'
p6624
tp6625
sS'Tippecanoe'
p6626
(S'40.4258686'
p6627
S'-86.9080655'
p6628
tp6629
sS'Parke'
p6630
(S'39.8428203'
p6631
S'-87.1114004'
p6632
tp6633
sS'DeKalb'
p6634
(S'41.3494939'
p6635
S'-85.1355268'
p6636
tp6637
sS'Noble'
p6638
(S'41.4414385'
p6639
S'-85.2649754'
p6640
tp6641
sS'Wells'
p6642
(S'40.8444917'
p6643
S'-85.1769148'
p6644
tp6645
sS'Knox'
p6646
(S'38.6772691'
p6647
S'-87.5286325'
p6648
tp6649
sS'Decatur'
p6650
(S'39.3372722'
p6651
S'-85.483581'
p6652
tp6653
sS'Tipton'
p6654
(S'40.3794822'
p6655
S'-86.0886009'
p6656
tp6657
sS'Benton'
p6658
(S'40.4905905'
p6659
S'-87.0964025'
p6660
tp6661
sS'Cass'
p6662
(S'40.8492073'
p6663
S'-86.3247217'
p6664
tp6665
sS'Martin'
p6666
(S'38.651995'
p6667
S'-86.8922239'
p6668
tp6669
sS'Warrick'
p6670
(S'37.9444882'
p6671
S'-87.4052865'
p6672
tp6673
sS'Scott'
p6674
(S'38.6714479'
p6675
S'-85.7096876'
p6676
tp6677
sS'Randolph'
p6678
(S'40.1719892'
p6679
S'-84.9813549'
p6680
tp6681
sS'Monroe'
p6682
(S'39.165325'
p6683
S'-86.5263857'
p6684
tp6685
sS'Franklin'
p6686
(S'39.339773'
p6687
S'-85.2044063'
p6688
tp6689
ssS'IA'
p6690
(dp6691
S'Story'
p6692
(S'41.950542'
p6693
S'-93.66522'
p6694
tp6695
sS'Louisa'
p6696
(S'41.2800253'
p6697
S'-91.360711'
p6698
tp6699
sS'Jackson'
p6700
(S'42.2958455'
p6701
S'-90.6209631'
p6702
tp6703
sS'Cass'
p6704
(S'41.4036007'
p6705
S'-95.0138776'
p6706
tp6707
sS'Kossuth'
p6708
(S'43.0699663'
p6709
S'-94.233019'
p6710
tp6711
sS'Dallas'
p6712
(S'41.6144325'
p6713
S'-94.017453'
p6714
tp6715
sS'Carroll'
p6716
(S'42.0569297'
p6717
S'-94.72887'
p6718
tp6719
sS'Clarke'
p6720
(S'41.0338853'
p6721
S'-93.7654976'
p6722
tp6723
sS'Tama'
p6724
(S'42.171659'
p6725
S'-92.3062978'
p6726
tp6727
sS'Mills'
p6728
(S'41.002776'
p6729
S'-95.5852781'
p6730
tp6731
sS'Lyon'
p6732
(S'43.4441353'
p6733
S'-95.8833524'
p6734
tp6735
sS'Monroe'
p6736
(S'41.0266746'
p6737
S'-92.8057514'
p6738
tp6739
sS'Montgomery'
p6740
(S'41.0097151'
p6741
S'-95.2255466'
p6742
tp6743
sS'Clayton'
p6744
(S'42.8538739'
p6745
S'-91.4054159'
p6746
tp6747
sS'Jefferson'
p6748
(S'41.0086312'
p6749
S'-91.9626727'
p6750
tp6751
sS'Dickinson'
p6752
(S'43.3246863'
p6753
S'-95.149996'
p6754
tp6755
sS'Wapello'
p6756
(S'41.0200145'
p6757
S'-92.4112963'
p6758
tp6759
sS'Crawford'
p6760
(S'41.9288774'
p6761
S'-95.49389'
p6762
tp6763
sS'Worth'
p6764
(S'43.2871813'
p6765
S'-93.2021482'
p6766
tp6767
sS'Sioux'
p6768
(S'42.9855403'
p6769
S'-95.8736256'
p6770
tp6771
sS'Allamakee'
p6772
(S'43.2694208'
p6773
S'-91.475695'
p6774
tp6775
sS'Buena Vista'
p6776
(S'42.6410915'
p6777
S'-95.2097179'
p6778
tp6779
sS'Iowa'
p6780
(S'41.8516667'
p6781
S'-92.1860164'
p6782
tp6783
sS'Lee'
p6784
(S'40.3972664'
p6785
S'-91.384874'
p6786
tp6787
sS'Woodbury'
p6788
(S'42.4999942'
p6789
S'-96.4003069'
p6790
tp6791
sS'Winnebago'
p6792
(S'43.419399'
p6793
S'-93.5332681'
p6794
tp6795
sS'Guthrie'
p6796
(S'41.5005428'
p6797
S'-94.6435862'
p6798
tp6799
sS'Van Buren'
p6800
(S'40.6980874'
p6801
S'-91.8032228'
p6802
tp6803
sS'Fayette'
p6804
(S'42.7491501'
p6805
S'-91.6712664'
p6806
tp6807
sS'Dubuque'
p6808
(S'42.5005583'
p6809
S'-90.6645718'
p6810
tp6811
sS'Linn'
p6812
(S'42.0083328'
p6813
S'-91.6440683'
p6814
tp6815
sS'Floyd'
p6816
(S'43.1277502'
p6817
S'-92.7363031'
p6818
tp6819
sS'Hamilton'
p6820
(S'42.4694184'
p6821
S'-93.816054'
p6822
tp6823
sS"O'Brien"
p6824
(S'43.1799725'
p6825
S'-95.4769513'
p6826
tp6827
sS'Marion'
p6828
(S'41.4080534'
p6829
S'-92.9163091'
p6830
tp6831
sS'Ida'
p6832
(S'42.4891531'
p6833
S'-95.545003'
p6834
tp6835
sS'Pocahontas'
p6836
(S'42.5813667'
p6837
S'-94.8460957'
p6838
tp6839
sS'Emmet'
p6840
(S'43.4016255'
p6841
S'-94.832764'
p6842
tp6843
sS'Jasper'
p6844
(S'41.7674881'
p6845
S'-93.2835392'
p6846
tp6847
sS'Jones'
p6848
(S'42.2383351'
p6849
S'-91.1870937'
p6850
tp6851
sS'Black Hawk'
p6852
(S'42.4927641'
p6853
S'-92.3429631'
p6854
tp6855
sS'Delaware'
p6856
(S'42.3513792'
p6857
S'-91.4815456'
p6858
tp6859
sS'Hardin'
p6860
(S'42.360816'
p6861
S'-93.0996464'
p6862
tp6863
sS'Adams'
p6864
(S'40.9899861'
p6865
S'-94.7408069'
p6866
tp6867
sS'Johnson'
p6868
(S'41.7491805'
p6869
S'-91.5979498'
p6870
tp6871
sS'Cedar'
p6872
(S'41.6714086'
p6873
S'-91.3465521'
p6874
tp6875
sS'Benton'
p6876
(S'42.1686061'
p6877
S'-92.0235139'
p6878
tp6879
sS'Calhoun'
p6880
(S'42.3952576'
p6881
S'-94.6338671'
p6882
tp6883
sS'Greene'
p6884
(S'42.1644226'
p6885
S'-94.2552419'
p6886
tp6887
sS'Chickasaw'
p6888
(S'43.0591412'
p6889
S'-92.3176768'
p6890
tp6891
sS'Plymouth'
p6892
(S'42.7197133'
p6893
S'-96.2486357'
p6894
tp6895
sS'Boone'
p6896
(S'42.0597047'
p6897
S'-93.8802273'
p6898
tp6899
sS'Clay'
p6900
(S'43.1413578'
p6901
S'-95.1444393'
p6902
tp6903
sS'Davis'
p6904
(S'40.7516884'
p6905
S'-92.4149074'
p6906
tp6907
sS'Webster'
p6908
(S'42.4974694'
p6909
S'-94.1680158'
p6910
tp6911
sS'Harrison'
p6912
(S'41.7383218'
p6913
S'-95.7027843'
p6914
tp6915
sS'Page'
p6916
(S'40.7655528'
p6917
S'-95.3722103'
p6918
tp6919
sS'Mahaska'
p6920
(S'41.296395'
p6921
S'-92.6443593'
p6922
tp6923
sS'Pottawattamie'
p6924
(S'41.2619444'
p6925
S'-95.8608333'
p6926
tp6927
sS'Madison'
p6928
(S'41.3308237'
p6929
S'-94.0138393'
p6930
tp6931
sS'Clinton'
p6932
(S'41.8316906'
p6933
S'-90.8382014'
p6934
tp6935
sS'Humboldt'
p6936
(S'42.7294176'
p6937
S'-94.4477507'
p6938
tp6939
sS'Audubon'
p6940
(S'41.7180421'
p6941
S'-94.9324868'
p6942
tp6943
sS'Winneshiek'
p6944
(S'43.3033056'
p6945
S'-91.7857092'
p6946
tp6947
sS'Sac'
p6948
(S'42.2710952'
p6949
S'-95.093047'
p6950
tp6951
sS'Monona'
p6952
(S'42.0266548'
p6953
S'-96.0972376'
p6954
tp6955
sS'Marshall'
p6956
(S'42.0494323'
p6957
S'-92.9079774'
p6958
tp6959
sS'Washington'
p6960
(S'41.4797413'
p6961
S'-91.5812759'
p6962
tp6963
sS'Decatur'
p6964
(S'40.5805596'
p6965
S'-93.7438345'
p6966
tp6967
sS'Scott'
p6968
(S'41.6580864'
p6969
S'-90.5845823'
p6970
tp6971
sS'Grundy'
p6972
(S'42.323597'
p6973
S'-92.5993615'
p6974
tp6975
sS'Palo Alto'
p6976
(S'43.1291322'
p6977
S'-94.8991531'
p6978
tp6979
sS'Des Moines'
p6980
(S'40.8075391'
p6981
S'-91.1129233'
p6982
tp6983
sS'Warren'
p6984
(S'41.3580484'
p6985
S'-93.5574376'
p6986
tp6987
sS'Polk'
p6988
(S'41.6005448'
p6989
S'-93.6091064'
p6990
tp6991
sS'Muscatine'
p6992
(S'41.424473'
p6993
S'-91.0432051'
p6994
tp6995
sS'Cerro Gordo'
p6996
(S'43.1535728'
p6997
S'-93.2010367'
p6998
tp6999
ssS'OK'
p7000
(dp7001
S'Ellis'
p7002
(S'36.2758728'
p7003
S'-99.8812321'
p7004
tp7005
sS'Comanche'
p7006
(S'34.6086854'
p7007
S'-98.3903305'
p7008
tp7009
sS'Grant'
p7010
(S'36.669197'
p7011
S'-97.8011661'
p7012
tp7013
sS'Cherokee'
p7014
(S'35.91537'
p7015
S'-94.969956'
p7016
tp7017
sS'Oklahoma'
p7018
(S'35.6528323'
p7019
S'-97.4780954'
p7020
tp7021
sS'Delaware'
p7022
(S'36.5789684'
p7023
S'-94.9710719'
p7024
tp7025
sS'Hughes'
p7026
(S'35.0803617'
p7027
S'-96.3991765'
p7028
tp7029
sS'Cotton'
p7030
(S'34.3598075'
p7031
S'-98.3078258'
p7032
tp7033
sS'Pittsburg'
p7034
(S'34.9334298'
p7035
S'-95.7697131'
p7036
tp7037
sS'Marshall'
p7038
(S'33.9987101'
p7039
S'-96.7197217'
p7040
tp7041
sS'Seminole'
p7042
(S'35.2245201'
p7043
S'-96.670573'
p7044
tp7045
sS'McClain'
p7046
(S'35.2472869'
p7047
S'-97.59976'
p7048
tp7049
sS'Texas'
p7050
(S'36.954193'
p7051
S'-101.065444'
p7052
tp7053
sS'Cimarron'
p7054
(S'36.9030764'
p7055
S'-102.9632621'
p7056
tp7057
sS'Jackson'
p7058
(S'34.6381255'
p7059
S'-99.3339754'
p7060
tp7061
sS'Washita'
p7062
(S'35.290608'
p7063
S'-98.988411'
p7064
tp7065
sS'Tulsa'
p7066
(S'36.1539816'
p7067
S'-95.992775'
p7068
tp7069
sS'Latimer'
p7070
(S'34.91871'
p7071
S'-95.3091383'
p7072
tp7073
sS'Logan'
p7074
(S'35.878937'
p7075
S'-97.4253185'
p7076
tp7077
sS'Le Flore'
p7078
(S'34.7514893'
p7079
S'-95.0480162'
p7080
tp7081
sS'Payne'
p7082
(S'36.1156071'
p7083
S'-97.0583681'
p7084
tp7085
sS'Kingfisher'
p7086
(S'35.861432'
p7087
S'-97.9317203'
p7088
tp7089
sS'Haskell'
p7090
(S'35.252597'
p7091
S'-95.237467'
p7092
tp7093
sS'Caddo'
p7094
(S'35.333946'
p7095
S'-98.1306072'
p7096
tp7097
sS'Pontotoc'
p7098
(S'34.774531'
p7099
S'-96.678345'
p7100
tp7101
sS'Harmon'
p7102
(S'34.6883948'
p7103
S'-99.9120456'
p7104
tp7105
sS'Beckham'
p7106
(S'35.2189409'
p7107
S'-99.5056465'
p7108
tp7109
sS'Bryan'
p7110
(S'33.9939861'
p7111
S'-96.370824'
p7112
tp7113
sS'Lincoln'
p7114
(S'35.8947842'
p7115
S'-96.8722487'
p7116
tp7117
sS'Rogers'
p7118
(S'36.3125964'
p7119
S'-95.61609'
p7120
tp7121
sS'Canadian'
p7122
(S'35.5067215'
p7123
S'-97.7625442'
p7124
tp7125
sS'Adair'
p7126
(S'36.1092487'
p7127
S'-94.5702202'
p7128
tp7129
sS'Custer'
p7130
(S'35.7442157'
p7131
S'-98.747584'
p7132
tp7133
sS'McCurtain'
p7134
(S'34.4373272'
p7135
S'-94.5574402'
p7136
tp7137
sS'Ottawa'
p7138
(S'36.8745146'
p7139
S'-94.8774554'
p7140
tp7141
sS'Coal'
p7142
(S'34.4692588'
p7143
S'-96.2163853'
p7144
tp7145
sS'Kiowa'
p7146
(S'35.0975577'
p7147
S'-98.7464553'
p7148
tp7149
sS'Jefferson'
p7150
(S'34.0200965'
p7151
S'-97.9575353'
p7152
tp7153
sS'Wagoner'
p7154
(S'35.9595442'
p7155
S'-95.3694116'
p7156
tp7157
sS'McIntosh'
p7158
(S'35.4700993'
p7159
S'-95.5230356'
p7160
tp7161
sS'Kay'
p7162
(S'36.706981'
p7163
S'-97.0855948'
p7164
tp7165
sS'Creek'
p7166
(S'35.9448155'
p7167
S'-96.0652751'
p7168
tp7169
sS'Muskogee'
p7170
(S'35.7478769'
p7171
S'-95.3696909'
p7172
tp7173
sS'Osage'
p7174
(S'36.2381336'
p7175
S'-96.3166808'
p7176
tp7177
sS'Love'
p7178
(S'33.907879'
p7179
S'-97.2889056'
p7180
tp7181
sS'Carter'
p7182
(S'34.1742611'
p7183
S'-97.1436254'
p7184
tp7185
sS'Stephens'
p7186
(S'34.5023029'
p7187
S'-97.9578129'
p7188
tp7189
sS'Okmulgee'
p7190
(S'35.6234367'
p7191
S'-95.9605502'
p7192
tp7193
sS'Woodward'
p7194
(S'36.4336481'
p7195
S'-99.3903862'
p7196
tp7197
sS'Nowata'
p7198
(S'36.700645'
p7199
S'-95.6380341'
p7200
tp7201
sS'Roger Mills'
p7202
(S'35.6328261'
p7203
S'-99.3817653'
p7204
tp7205
sS'Washington'
p7206
(S'36.7959193'
p7207
S'-95.9355387'
p7208
tp7209
sS'Sequoyah'
p7210
(S'35.4603711'
p7211
S'-94.7874463'
p7212
tp7213
sS'Murray'
p7214
(S'34.5045317'
p7215
S'-97.1194637'
p7216
tp7217
sS'Craig'
p7218
(S'36.6386937'
p7219
S'-95.1541339'
p7220
tp7221
sS'Garfield'
p7222
(S'36.3955891'
p7223
S'-97.8783911'
p7224
tp7225
sS'Woods'
p7226
(S'36.8050308'
p7227
S'-98.6664737'
p7228
tp7229
sS'Grady'
p7230
(S'35.2908947'
p7231
S'-97.8122658'
p7232
tp7233
sS'Blaine'
p7234
(S'36.1333716'
p7235
S'-98.5506371'
p7236
tp7237
sS'Choctaw'
p7238
(S'34.0187169'
p7239
S'-95.266344'
p7240
tp7241
sS'Cleveland'
p7242
(S'35.2225668'
p7243
S'-97.4394777'
p7244
tp7245
sS'Beaver'
p7246
(S'36.8161371'
p7247
S'-100.5198713'
p7248
tp7249
sS'Alfalfa'
p7250
(S'36.5461432'
p7251
S'-98.2700706'
p7252
tp7253
sS'Pawnee'
p7254
(S'36.3100688'
p7255
S'-96.4641886'
p7256
tp7257
sS'Pottawatomie'
p7258
(S'35.2606255'
p7259
S'-97.1197479'
p7260
tp7261
sS'Garvin'
p7262
(S'34.6228594'
p7263
S'-97.3964138'
p7264
tp7265
ssS'AZ'
p7266
(dp7267
S'Yuma'
p7268
(S'32.7253249'
p7269
S'-114.624397'
p7270
tp7271
sS'Pinal'
p7272
(S'32.977839'
p7273
S'-111.517624'
p7274
tp7275
sS'Greenlee'
p7276
(S'32.7214599'
p7277
S'-109.1053408'
p7278
tp7279
sS'Maricopa'
p7280
(S'33.4483771'
p7281
S'-112.0740373'
p7282
tp7283
sS'Mohave'
p7284
(S'34.483901'
p7285
S'-114.3224548'
p7286
tp7287
sS'Gila'
p7288
(S'34.2308684'
p7289
S'-111.3251355'
p7290
tp7291
sS'Santa Cruz'
p7292
(S'31.568702'
p7293
S'-111.0523126'
p7294
tp7295
sS'Cochise'
p7296
(S'31.5545394'
p7297
S'-110.3036912'
p7298
tp7299
sS'La Paz'
p7300
(S'33.7444747'
p7301
S'-113.7521564'
p7302
tp7303
sS'Coconino'
p7304
(S'34.8697395'
p7305
S'-111.7609896'
p7306
tp7307
sS'Pima'
p7308
(S'32.436738'
p7309
S'-111.2253822'
p7310
tp7311
sS'Apache'
p7312
(S'36.0730594'
p7313
S'-109.8923374'
p7314
tp7315
sS'Navajo'
p7316
(S'34.2542084'
p7317
S'-110.0298327'
p7318
tp7319
sS'Graham'
p7320
(S'32.8339546'
p7321
S'-109.70758'
p7322
tp7323
sS'Yavapai'
p7324
(S'34.3450288'
p7325
S'-112.1590486'
p7326
tp7327
ssS'ID'
p7328
(dp7329
S'Nez Perce'
p7330
(S'46.4165506'
p7331
S'-117.0176569'
p7332
tp7333
sS'Gooding'
p7334
(S'42.8121244'
p7335
S'-114.898669'
p7336
tp7337
sS'Jefferson'
p7338
(S'43.6724119'
p7339
S'-111.9149681'
p7340
tp7341
sS'Ada'
p7342
(S'43.6135002'
p7343
S'-116.2034505'
p7344
tp7345
sS'Boundary'
p7346
(S'48.6913257'
p7347
S'-116.3163092'
p7348
tp7349
sS'Valley'
p7350
(S'44.911006'
p7351
S'-116.0987364'
p7352
tp7353
sS'Teton'
p7354
(S'43.6026976'
p7355
S'-111.1113318'
p7356
tp7357
sS'Idaho'
p7358
(S'45.4221105'
p7359
S'-116.315411'
p7360
tp7361
sS'Bingham'
p7362
(S'43.1904709'
p7363
S'-112.3449773'
p7364
tp7365
sS'Owyhee'
p7366
(S'43.5454359'
p7367
S'-116.8131958'
p7368
tp7369
sS'Custer'
p7370
(S'44.217423'
p7371
S'-114.938582'
p7372
tp7373
sS'Fremont'
p7374
(S'44.4243637'
p7375
S'-111.3710645'
p7376
tp7377
sS'Canyon'
p7378
(S'43.5407172'
p7379
S'-116.5634624'
p7380
tp7381
sS'Boise'
p7382
(S'43.9126714'
p7383
S'-115.8923353'
p7384
tp7385
sS'Bonneville'
p7386
(S'43.4665809'
p7387
S'-112.0341374'
p7388
tp7389
sS'Butte'
p7390
(S'43.7357346'
p7391
S'-113.3663993'
p7392
tp7393
sS'Twin Falls'
p7394
(S'42.5629668'
p7395
S'-114.4608711'
p7396
tp7397
sS'Gem'
p7398
(S'43.8734979'
p7399
S'-116.4993012'
p7400
tp7401
sS'Lincoln'
p7402
(S'42.9360165'
p7403
S'-114.4058752'
p7404
tp7405
sS'Benewah'
p7406
(S'47.3351803'
p7407
S'-116.8885094'
p7408
tp7409
sS'Lemhi'
p7410
(S'45.2424203'
p7411
S'-113.8934018'
p7412
tp7413
sS'Bannock'
p7414
(S'42.8713032'
p7415
S'-112.4455344'
p7416
tp7417
sS'Latah'
p7418
(S'46.7323875'
p7419
S'-117.0001651'
p7420
tp7421
sS'Madison'
p7422
(S'43.8260227'
p7423
S'-111.7896876'
p7424
tp7425
sS'Kootenai'
p7426
(S'47.7660161'
p7427
S'-116.7865815'
p7428
tp7429
sS'Lewis'
p7430
(S'46.2271182'
p7431
S'-116.0293071'
p7432
tp7433
sS'Minidoka'
p7434
(S'42.5585202'
p7435
S'-113.7639048'
p7436
tp7437
sS'Washington'
p7438
(S'44.5726619'
p7439
S'-116.6759919'
p7440
tp7441
sS'Elmore'
p7442
(S'43.1329504'
p7443
S'-115.6911975'
p7444
tp7445
sS'Payette'
p7446
(S'44.0076639'
p7447
S'-116.9165461'
p7448
tp7449
sS'Blaine'
p7450
(S'43.5196288'
p7451
S'-114.3153245'
p7452
tp7453
sS'Bonner'
p7454
(S'48.2477073'
p7455
S'-116.3071233'
p7456
tp7457
sS'Cassia'
p7458
(S'42.5357428'
p7459
S'-113.7927948'
p7460
tp7461
sS'Bear Lake'
p7462
(S'42.3221498'
p7463
S'-111.2977044'
p7464
tp7465
sS'Jerome'
p7466
(S'42.6057451'
p7467
S'-114.2108634'
p7468
tp7469
sS'Shoshone'
p7470
(S'47.6435372'
p7471
S'-115.9179444'
p7472
tp7473
ssS'CT'
p7474
(dp7475
S'New London'
p7476
(S'41.6362097'
p7477
S'-72.2125789'
p7478
tp7479
sS'New Haven'
p7480
(S'41.2795414'
p7481
S'-72.8150989'
p7482
tp7483
sS'Middlesex'
p7484
(S'41.5950989'
p7485
S'-72.6453705'
p7486
tp7487
sS'Litchfield'
p7488
(S'41.6739862'
p7489
S'-73.073164'
p7490
tp7491
sS'Fairfield'
p7492
(S'41.1412078'
p7493
S'-73.2637258'
p7494
tp7495
sS'Tolland'
p7496
(S'41.7689878'
p7497
S'-72.4334173'
p7498
tp7499
sS'Windham'
p7500
(S'41.8464872'
p7501
S'-71.8875721'
p7502
tp7503
sS'Hartford'
p7504
(S'41.7637111'
p7505
S'-72.6850932'
p7506
tp7507
ssS'ME'
p7508
(dp7509
S'Penobscot'
p7510
(S'44.9342349'
p7511
S'-68.6453092'
p7512
tp7513
sS'Sagadahoc'
p7514
(S'43.9186905'
p7515
S'-69.8011576'
p7516
tp7517
sS'Lincoln'
p7518
(S'44.0328573'
p7519
S'-69.5186585'
p7520
tp7521
sS'Cumberland'
p7522
(S'43.661471'
p7523
S'-70.2553259'
p7524
tp7525
sS'Waldo'
p7526
(S'44.38924'
p7527
S'-69.3028205'
p7528
tp7529
sS'Washington'
p7530
(S'44.7909119'
p7531
S'-67.1755412'
p7532
tp7533
sS'Hancock'
p7534
(S'44.5434095'
p7535
S'-68.4194642'
p7536
tp7537
sS'Androscoggin'
p7538
(S'44.100351'
p7539
S'-70.2147764'
p7540
tp7541
sS'Aroostook'
p7542
(S'46.1261637'
p7543
S'-67.8402961'
p7544
tp7545
sS'Piscataquis'
p7546
(S'45.1336651'
p7547
S'-69.4331038'
p7548
tp7549
sS'York'
p7550
(S'43.5009176'
p7551
S'-70.4428286'
p7552
tp7553
sS'Franklin'
p7554
(S'44.8231128'
p7555
S'-70.3395105'
p7556
tp7557
sS'Oxford'
p7558
(S'44.0164588'
p7559
S'-70.9806238'
p7560
tp7561
sS'Knox'
p7562
(S'44.2650774'
p7563
S'-69.1589289'
p7564
tp7565
sS'Somerset'
p7566
(S'44.7825642'
p7567
S'-69.3833814'
p7568
tp7569
sS'Kennebec'
p7570
(S'44.5520105'
p7571
S'-69.6317121'
p7572
tp7573
ssS'MD'
p7574
(dp7575
S'Howard'
p7576
(S'39.2403841'
p7577
S'-76.8394184'
p7578
tp7579
sS'Carroll'
p7580
(S'39.3737149'
p7581
S'-76.9677566'
p7582
tp7583
sS'Garrett'
p7584
(S'39.6950833'
p7585
S'-79.1511411'
p7586
tp7587
sS'Montgomery'
p7588
(S'39.0181651'
p7589
S'-77.2085914'
p7590
tp7591
sS'Kent'
p7592
(S'39.2089986'
p7593
S'-76.0666126'
p7594
tp7595
sS'Somerset'
p7596
(S'37.9834575'
p7597
S'-75.8538211'
p7598
tp7599
sS'Caroline'
p7600
(S'38.6942809'
p7601
S'-75.7721551'
p7602
tp7603
sS'Dorchester'
p7604
(S'38.2681785'
p7605
S'-76.0677155'
p7606
tp7607
sS'Baltimore (city)'
p7608
(S'39.2903848'
p7609
S'-76.6121893'
p7610
tp7611
sS"Prince George's"
p7612
(S'38.8140024'
p7613
S'-76.9455296'
p7614
tp7615
sS'Harford'
p7616
(S'39.492608'
p7617
S'-76.3205142'
p7618
tp7619
sS'Anne Arundel'
p7620
(S'38.9784453'
p7621
S'-76.4921829'
p7622
tp7623
sS'Frederick'
p7624
(S'39.5742655'
p7625
S'-77.5505444'
p7626
tp7627
sS'Allegany'
p7628
(S'39.5675895'
p7629
S'-78.83891'
p7630
tp7631
sS"St. Mary's"
p7632
(S'38.2367924'
p7633
S'-76.4971762'
p7634
tp7635
sS'Wicomico'
p7636
(S'38.3606736'
p7637
S'-75.5993692'
p7638
tp7639
sS'Baltimore'
p7640
(S'39.4014955'
p7641
S'-76.6019125'
p7642
tp7643
sS"Queen Anne's"
p7644
(S'38.9806679'
p7645
S'-76.3143999'
p7646
tp7647
sS'Charles'
p7648
(S'38.2584626'
p7649
S'-76.8438581'
p7650
tp7651
sS'Washington'
p7652
(S'39.6417629'
p7653
S'-77.7199932'
p7654
tp7655
sS'Worcester'
p7656
(S'38.3365033'
p7657
S'-75.0849058'
p7658
tp7659
sS'Talbot'
p7660
(S'38.7792822'
p7661
S'-76.0479961'
p7662
tp7663
sS'Calvert'
p7664
(S'38.6159533'
p7665
S'-76.613015'
p7666
tp7667
sS'Cecil'
p7668
(S'39.6067789'
p7669
S'-75.8332718'
p7670
tp7671
ssS'MA'
p7672
(dp7673
S'Hampden'
p7674
(S'42.1237053'
p7675
S'-72.4314731'
p7676
tp7677
sS'Nantucket'
p7678
(S'41.2834563'
p7679
S'-70.0994605'
p7680
tp7681
sS'Essex'
p7682
(S'42.6159286'
p7683
S'-70.6619888'
p7684
tp7685
sS'Barnstable'
p7686
(S'41.8651071'
p7687
S'-69.9911305'
p7688
tp7689
sS'Berkshire'
p7690
(S'42.4381417'
p7691
S'-73.0459339'
p7692
tp7693
sS'Worcester'
p7694
(S'42.4556475'
p7695
S'-71.6731246'
p7696
tp7697
sS'Hampshire'
p7698
(S'42.3803676'
p7699
S'-72.523143'
p7700
tp7701
sS'Suffolk'
p7702
(S'42.3750973'
p7703
S'-71.0392173'
p7704
tp7705
sS'Norfolk'
p7706
(S'42.0667652'
p7707
S'-71.3281114'
p7708
tp7709
sS'Plymouth'
p7710
(S'41.9584367'
p7711
S'-70.6672577'
p7712
tp7713
sS'Franklin'
p7714
(S'42.5875857'
p7715
S'-72.5995339'
p7716
tp7717
sS'Bristol'
p7718
(S'41.7695463'
p7719
S'-71.128656'
p7720
tp7721
sS'Dukes'
p7722
(S'41.3890052'
p7723
S'-70.5133599'
p7724
tp7725
sS'Middlesex'
p7726
(S'42.4906499'
p7727
S'-71.2761686'
p7728
tp7729
ssS'OH'
p7730
(dp7731
S'Preble'
p7732
(S'39.6478321'
p7733
S'-84.5271711'
p7734
tp7735
sS'Richland'
p7736
(S'40.75839'
p7737
S'-82.5154471'
p7738
tp7739
sS'Shelby'
p7740
(S'40.4394935'
p7741
S'-84.0402203'
p7742
tp7743
sS'Union'
p7744
(S'40.1606156'
p7745
S'-83.3946433'
p7746
tp7747
sS'Paulding'
p7748
(S'41.095605'
p7749
S'-84.3805036'
p7750
tp7751
sS'Montgomery'
p7752
(S'39.7589478'
p7753
S'-84.1916069'
p7754
tp7755
sS'Wayne'
p7756
(S'40.8050565'
p7757
S'-81.935143'
p7758
tp7759
sS'Brown'
p7760
(S'38.7456277'
p7761
S'-83.8449245'
p7762
tp7763
sS'Champaign'
p7764
(S'40.1917242'
p7765
S'-83.6190948'
p7766
tp7767
sS'Defiance'
p7768
(S'41.2844933'
p7769
S'-84.3557802'
p7770
tp7771
sS'Miami'
p7772
(S'40.0394982'
p7773
S'-84.2032767'
p7774
tp7775
sS'Hancock'
p7776
(S'41.0442201'
p7777
S'-83.6499321'
p7778
tp7779
sS'Lorain'
p7780
(S'41.5053178'
p7781
S'-82.0282001'
p7782
tp7783
sS'Columbiana'
p7784
(S'40.7720044'
p7785
S'-80.7681336'
p7786
tp7787
sS'Muskingum'
p7788
(S'39.9403453'
p7789
S'-82.0131924'
p7790
tp7791
sS'Washington'
p7792
(S'39.2739639'
p7793
S'-81.5729029'
p7794
tp7795
sS'Gallia'
p7796
(S'38.809803'
p7797
S'-82.2023691'
p7798
tp7799
sS'Marion'
p7800
(S'40.6878354'
p7801
S'-83.2124167'
p7802
tp7803
sS'Allen'
p7804
(S'40.742551'
p7805
S'-84.1052256'
p7806
tp7807
sS'Huron'
p7808
(S'41.2425531'
p7809
S'-82.6157331'
p7810
tp7811
sS'Darke'
p7812
(S'40.1028264'
p7813
S'-84.6330115'
p7814
tp7815
sS'Warren'
p7816
(S'39.5589474'
p7817
S'-84.3041074'
p7818
tp7819
sS'Perry'
p7820
(S'39.7053462'
p7821
S'-82.2912613'
p7822
tp7823
sS'Jackson'
p7824
(S'38.856465'
p7825
S'-82.6290524'
p7826
tp7827
sS'Belmont'
p7828
(S'39.9561849'
p7829
S'-80.7836976'
p7830
tp7831
sS'Wyandot'
p7832
(S'40.8272785'
p7833
S'-83.2813089'
p7834
tp7835
sS'Geauga'
p7836
(S'41.3864428'
p7837
S'-81.339553'
p7838
tp7839
sS'Jefferson'
p7840
(S'40.3553457'
p7841
S'-80.7642483'
p7842
tp7843
sS'Ashtabula'
p7844
(S'41.9475551'
p7845
S'-80.5542409'
p7846
tp7847
sS'Butler'
p7848
(S'39.3995008'
p7849
S'-84.5613355'
p7850
tp7851
sS'Ross'
p7852
(S'39.3331197'
p7853
S'-82.9824019'
p7854
tp7855
sS'Vinton'
p7856
(S'39.2464596'
p7857
S'-82.4784898'
p7858
tp7859
sS'Hamilton'
p7860
(S'39.1620036'
p7861
S'-84.4568863'
p7862
tp7863
sS'Scioto'
p7864
(S'38.77202'
p7865
S'-83.0154529'
p7866
tp7867
sS'Greene'
p7868
(S'39.6847822'
p7869
S'-83.9296526'
p7870
tp7871
sS'Fulton'
p7872
(S'41.5492182'
p7873
S'-84.1416147'
p7874
tp7875
sS'Seneca'
p7876
(S'41.1144992'
p7877
S'-83.1779747'
p7878
tp7879
sS'Madison'
p7880
(S'39.9375608'
p7881
S'-83.4065858'
p7882
tp7883
sS'Clinton'
p7884
(S'39.4014502'
p7885
S'-83.9813202'
p7886
tp7887
sS'Clark'
p7888
(S'39.9242266'
p7889
S'-83.8088172'
p7890
tp7891
sS'Trumbull'
p7892
(S'41.1564463'
p7893
S'-80.569239'
p7894
tp7895
sS'Erie'
p7896
(S'41.3950489'
p7897
S'-82.5551733'
p7898
tp7899
sS'Cuyahoga'
p7900
(S'41.4847663'
p7901
S'-81.9220845'
p7902
tp7903
sS'Meigs'
p7904
(S'39.0642437'
p7905
S'-82.1198666'
p7906
tp7907
sS'Delaware'
p7908
(S'40.1983958'
p7909
S'-83.0101843'
p7910
tp7911
sS'Stark'
p7912
(S'40.8372809'
p7913
S'-81.2595519'
p7914
tp7915
sS'Fairfield'
p7916
(S'39.6620105'
p7917
S'-82.4334885'
p7918
tp7919
sS'Morgan'
p7920
(S'39.639795'
p7921
S'-81.6237389'
p7922
tp7923
sS'Coshocton'
p7924
(S'40.21396'
p7925
S'-81.8817982'
p7926
tp7927
sS'Lawrence'
p7928
(S'38.630357'
p7929
S'-82.6673852'
p7930
tp7931
sS'Fayette'
p7932
(S'39.5364511'
p7933
S'-83.4390843'
p7934
tp7935
sS'Medina'
p7936
(S'41.2381096'
p7937
S'-81.8418007'
p7938
tp7939
sS'Van Wert'
p7940
(S'40.8694927'
p7941
S'-84.5841223'
p7942
tp7943
sS'Pike'
p7944
(S'39.0306272'
p7945
S'-82.8243382'
p7946
tp7947
sS'Adams'
p7948
(S'38.9928471'
p7949
S'-83.4643594'
p7950
tp7951
sS'Clermont'
p7952
(S'39.0770072'
p7953
S'-84.1768795'
p7954
tp7955
sS'Licking'
p7956
(S'39.9956193'
p7957
S'-82.6743341'
p7958
tp7959
sS'Athens'
p7960
(S'39.3292396'
p7961
S'-82.1012555'
p7962
tp7963
sS'Morrow'
p7964
(S'40.7114468'
p7965
S'-82.7457341'
p7966
tp7967
sS'Summit'
p7968
(S'41.012833'
p7969
S'-81.6051221'
p7970
tp7971
sS'Franklin'
p7972
(S'40.0992294'
p7973
S'-83.1140771'
p7974
tp7975
sS'Guernsey'
p7976
(S'39.9342386'
p7977
S'-81.4623419'
p7978
tp7979
sS'Highland'
p7980
(S'39.1447868'
p7981
S'-83.7379796'
p7982
tp7983
sS'Holmes'
p7984
(S'40.6145051'
p7985
S'-81.8679166'
p7986
tp7987
sS'Carroll'
p7988
(S'40.5728404'
p7989
S'-81.0856532'
p7990
tp7991
sS'Harrison'
p7992
(S'40.2728452'
p7993
S'-80.9967628'
p7994
tp7995
sS'Mercer'
p7996
(S'40.4797688'
p7997
S'-84.628291'
p7998
tp7999
sS'Mahoning'
p8000
(S'41.0031141'
p8001
S'-80.7856355'
p8002
tp8003
sS'Portage'
p8004
(S'41.1575566'
p8005
S'-81.2420473'
p8006
tp8007
sS'Sandusky'
p8008
(S'41.3503303'
p8009
S'-83.1218634'
p8010
tp8011
sS'Lake'
p8012
(S'41.6331034'
p8013
S'-81.4687274'
p8014
tp8015
sS'Hocking'
p8016
(S'39.473397'
p8017
S'-82.7393363'
p8018
tp8019
sS'Wood'
p8020
(S'41.3747744'
p8021
S'-83.6513229'
p8022
tp8023
sS'Crawford'
p8024
(S'40.9622785'
p8025
S'-82.8543501'
p8026
tp8027
sS'Williams'
p8028
(S'41.4747732'
p8029
S'-84.5524508'
p8030
tp8031
sS'Noble'
p8032
(S'39.7967389'
p8033
S'-81.3359494'
p8034
tp8035
sS'Tuscarawas'
p8036
(S'40.2336795'
p8037
S'-81.3442776'
p8038
tp8039
sS'Knox'
p8040
(S'40.4475643'
p8041
S'-82.2601584'
p8042
tp8043
sS'Putnam'
p8044
(S'41.0289404'
p8045
S'-84.0791114'
p8046
tp8047
sS'Hardin'
p8048
(S'40.6469982'
p8049
S'-83.6096516'
p8050
tp8051
sS'Lucas'
p8052
(S'41.7189392'
p8053
S'-83.7129935'
p8054
tp8055
sS'Ottawa'
p8056
(S'41.5119954'
p8057
S'-82.9376919'
p8058
tp8059
sS'Auglaize'
p8060
(S'40.5678265'
p8061
S'-84.1935594'
p8062
tp8063
sS'Ashland'
p8064
(S'40.8686675'
p8065
S'-82.3182178'
p8066
tp8067
sS'Pickaway'
p8068
(S'39.7156186'
p8069
S'-82.9529584'
p8070
tp8071
sS'Logan'
p8072
(S'40.338388'
p8073
S'-83.6771533'
p8074
tp8075
sS'Monroe'
p8076
(S'39.7650722'
p8077
S'-81.2412235'
p8078
tp8079
ssS'UT'
p8080
(dp8081
S'San Juan'
p8082
(S'37.0194409'
p8083
S'-110.7912486'
p8084
tp8085
sS'Wasatch'
p8086
(S'40.5068991'
p8087
S'-111.4132388'
p8088
tp8089
sS'Utah'
p8090
(S'40.3141169'
p8091
S'-112.006882'
p8092
tp8093
sS'Millard'
p8094
(S'39.24496'
p8095
S'-112.1041015'
p8096
tp8097
sS'Cache'
p8098
(S'41.7354862'
p8099
S'-111.834388'
p8100
tp8101
sS'Wayne'
p8102
(S'38.3969236'
p8103
S'-111.589627'
p8104
tp8105
sS'Grand'
p8106
(S'38.5733155'
p8107
S'-109.5498395'
p8108
tp8109
sS'Weber'
p8110
(S'41.223'
p8111
S'-111.9738304'
p8112
tp8113
sS'Juab'
p8114
(S'39.7102336'
p8115
S'-111.8363216'
p8116
tp8117
sS'Tooele'
p8118
(S'40.5307776'
p8119
S'-112.29828'
p8120
tp8121
sS'Sevier'
p8122
(S'38.6871925'
p8123
S'-112.122426'
p8124
tp8125
sS'Sanpete'
p8126
(S'39.626351'
p8127
S'-111.4396325'
p8128
tp8129
sS'Carbon'
p8130
(S'39.5994095'
p8131
S'-110.8107148'
p8132
tp8133
sS'Emery'
p8134
(S'39.3488582'
p8135
S'-110.8515521'
p8136
tp8137
sS'Duchesne'
p8138
(S'40.299403'
p8139
S'-109.9887605'
p8140
tp8141
sS'Iron'
p8142
(S'37.6774769'
p8143
S'-113.0618931'
p8144
tp8145
sS'Davis'
p8146
(S'41.0893878'
p8147
S'-112.0646657'
p8148
tp8149
sS'Kane'
p8150
(S'37.3177609'
p8151
S'-112.5971542'
p8152
tp8153
sS'Washington'
p8154
(S'37.1888714'
p8155
S'-112.9985515'
p8156
tp8157
sS'Garfield'
p8158
(S'37.7702663'
p8159
S'-111.602119'
p8160
tp8161
sS'Summit'
p8162
(S'40.6460622'
p8163
S'-111.4979729'
p8164
tp8165
sS'Salt Lake'
p8166
(S'40.6110589'
p8167
S'-111.8999353'
p8168
tp8169
sS'Beaver'
p8170
(S'38.2769149'
p8171
S'-112.6410518'
p8172
tp8173
sS'Uintah'
p8174
(S'40.4555157'
p8175
S'-109.5287479'
p8176
tp8177
sS'Box Elder'
p8178
(S'41.4091053'
p8179
S'-112.0360557'
p8180
tp8181
ssS'MO'
p8182
(dp8183
S'Mississippi'
p8184
(S'36.7797776'
p8185
S'-89.3856298'
p8186
tp8187
sS'Shelby'
p8188
(S'39.7419808'
p8189
S'-92.2585152'
p8190
tp8191
sS'Barry'
p8192
(S'36.6322872'
p8193
S'-93.6343588'
p8194
tp8195
sS'Montgomery'
p8196
(S'38.9103198'
p8197
S'-91.4482167'
p8198
tp8199
sS'Dunklin'
p8200
(S'36.5570028'
p8201
S'-89.9664798'
p8202
tp8203
sS'Wayne'
p8204
(S'36.9711635'
p8205
S'-90.5495598'
p8206
tp8207
sS'St. Francois'
p8208
(S'37.7808846'
p8209
S'-90.4217895'
p8210
tp8211
sS'Worth'
p8212
(g1836
g1836
tp8213
sS'Texas'
p8214
(S'37.4994884'
p8215
S'-91.8570984'
p8216
tp8217
sS'Laclede'
p8218
(S'37.6805968'
p8219
S'-92.6637865'
p8220
tp8221
sS'Hickory'
p8222
(S'37.9408663'
p8223
S'-93.2076953'
p8224
tp8225
sS'Adair'
p8226
(S'40.2319728'
p8227
S'-92.708531'
p8228
tp8229
sS'Henry'
p8230
(S'38.3094675'
p8231
S'-93.5465974'
p8232
tp8233
sS'Webster'
p8234
(S'37.338658'
p8235
S'-92.9071209'
p8236
tp8237
sS'New Madrid'
p8238
(S'36.410618'
p8239
S'-89.9056442'
p8240
tp8241
sS'Gasconade'
p8242
(S'38.7042119'
p8243
S'-91.4373845'
p8244
tp8245
sS'Newton'
p8246
(S'36.8689554'
p8247
S'-94.367996'
p8248
tp8249
sS'Washington'
p8250
(S'37.936438'
p8251
S'-90.7879086'
p8252
tp8253
sS'Moniteau'
p8254
(S'38.6275278'
p8255
S'-92.5665787'
p8256
tp8257
sS'Marion'
p8258
(S'39.9381011'
p8259
S'-91.5237663'
p8260
tp8261
sS'Jasper'
p8262
(S'37.1492253'
p8263
S'-94.4430032'
p8264
tp8265
sS'Polk'
p8266
(S'37.6144838'
p8267
S'-93.4104749'
p8268
tp8269
sS'Buchanan'
p8270
(S'39.7686055'
p8271
S'-94.8466322'
p8272
tp8273
sS'Warren'
p8274
(S'38.8275491'
p8275
S'-91.0201422'
p8276
tp8277
sS'Perry'
p8278
(S'37.7242202'
p8279
S'-89.8612196'
p8280
tp8281
sS'Jackson'
p8282
(S'39.0169509'
p8283
S'-94.2816148'
p8284
tp8285
sS'Howard'
p8286
(S'39.1458654'
p8287
S'-92.6837943'
p8288
tp8289
sS'Caldwell'
p8290
(g1836
g1836
tp8291
sS'Wright'
p8292
(S'37.1306078'
p8293
S'-92.2634942'
p8294
tp8295
sS'Jefferson'
p8296
(S'38.4328317'
p8297
S'-90.3776187'
p8298
tp8299
sS'Taney'
p8300
(S'36.6436731'
p8301
S'-93.2185144'
p8302
tp8303
sS'Butler'
p8304
(S'36.7569994'
p8305
S'-90.3928881'
p8306
tp8307
sS'Putnam'
p8308
(S'40.48669'
p8309
S'-92.7635303'
p8310
tp8311
sS'St. Charles'
p8312
(S'38.5725523'
p8313
S'-90.8820811'
p8314
tp8315
sS'Oregon'
p8316
(S'36.5245064'
p8317
S'-91.5381967'
p8318
tp8319
sS'Stoddard'
p8320
(S'36.7958866'
p8321
S'-89.9578688'
p8322
tp8323
sS'Linn'
p8324
(S'39.7119703'
p8325
S'-92.9482526'
p8326
tp8327
sS'Callaway'
p8328
(S'38.8467082'
p8329
S'-91.9479586'
p8330
tp8331
sS'Pettis'
p8332
(S'38.7044609'
p8333
S'-93.2282613'
p8334
tp8335
sS'Camden'
p8336
(S'38.1503113'
p8337
S'-92.6179621'
p8338
tp8339
sS'Stone'
p8340
(S'36.7300615'
p8341
S'-93.5101903'
p8342
tp8343
sS'Johnson'
p8344
(S'38.7627893'
p8345
S'-93.7360498'
p8346
tp8347
sS'Barton'
p8348
(S'37.3931054'
p8349
S'-94.0938304'
p8350
tp8351
sS'Maries'
p8352
(S'38.1867085'
p8353
S'-91.947112'
p8354
tp8355
sS'Greene'
p8356
(S'37.215326'
p8357
S'-93.2982436'
p8358
tp8359
sS'Ripley'
p8360
(S'36.6208917'
p8361
S'-90.8234551'
p8362
tp8363
sS'Clay'
p8364
(S'39.3391713'
p8365
S'-94.2260559'
p8366
tp8367
sS'Macon'
p8368
(S'39.7422561'
p8369
S'-92.4726859'
p8370
tp8371
sS'Madison'
p8372
(S'37.5728304'
p8373
S'-90.3948416'
p8374
tp8375
sS'Clinton'
p8376
(S'39.7402801'
p8377
S'-94.241057'
p8378
tp8379
sS'Clark'
p8380
(S'40.3628189'
p8381
S'-91.7543323'
p8382
tp8383
sS'McDonald'
p8384
(g1836
g1836
tp8385
sS'Ray'
p8386
(g1836
g1836
tp8387
sS'Saline'
p8388
(S'38.9636292'
p8389
S'-93.414932'
p8390
tp8391
sS'Miller'
p8392
(S'38.3241964'
p8393
S'-92.6651883'
p8394
tp8395
sS'Cooper'
p8396
(S'38.9736392'
p8397
S'-92.7432418'
p8398
tp8399
sS'Cass'
p8400
(S'38.801953'
p8401
S'-94.4527294'
p8402
tp8403
sS'Dallas'
p8404
(S'37.6439289'
p8405
S'-93.0924093'
p8406
tp8407
sS'Scotland'
p8408
(S'40.4578119'
p8409
S'-92.1712924'
p8410
tp8411
sS'Morgan'
p8412
(S'38.2722523'
p8413
S'-92.719633'
p8414
tp8415
sS'Lawrence'
p8416
(S'37.1036666'
p8417
S'-93.8185401'
p8418
tp8419
sS'Vernon'
p8420
(S'37.8392052'
p8421
S'-94.3546719'
p8422
tp8423
sS'Cedar'
p8424
(S'37.6989279'
p8425
S'-93.796044'
p8426
tp8427
sS'Gentry'
p8428
(g1836
g1836
tp8429
sS'Ozark'
p8430
(S'36.7770036'
p8431
S'-92.2173801'
p8432
tp8433
sS'Pike'
p8434
(S'39.491435'
p8435
S'-91.1323619'
p8436
tp8437
sS'Lincoln'
p8438
(S'38.9794923'
p8439
S'-90.9806954'
p8440
tp8441
sS'Dent'
p8442
(S'37.6455993'
p8443
S'-91.5359808'
p8444
tp8445
sS'Nodaway'
p8446
(S'40.3461017'
p8447
S'-94.8724707'
p8448
tp8449
sS'Franklin'
p8450
(S'38.4147749'
p8451
S'-90.8140225'
p8452
tp8453
sS'Audrain'
p8454
(S'39.1697626'
p8455
S'-91.8829484'
p8456
tp8457
sS'St. Louis (city)'
p8458
(S'38.6272733'
p8459
S'-90.1978889'
p8460
tp8461
sS'Carroll'
p8462
(g1836
g1836
tp8463
sS'Ralls'
p8464
(S'39.508098'
p8465
S'-91.528766'
p8466
tp8467
sS'Grundy'
p8468
(S'40.0789018'
p8469
S'-93.6166074'
p8470
tp8471
sS'Harrison'
p8472
(S'40.1416732'
p8473
S'-93.8724475'
p8474
tp8475
sS'Lewis'
p8476
(S'40.0289308'
p8477
S'-91.9143374'
p8478
tp8479
sS'Cole'
p8480
(S'38.5767017'
p8481
S'-92.1735164'
p8482
tp8483
sS'Shannon'
p8484
(S'36.9911648'
p8485
S'-91.4926376'
p8486
tp8487
sS'Bollinger'
p8488
(S'37.3058871'
p8489
S'-89.9703793'
p8490
tp8491
sS'Iron'
p8492
(S'37.6361578'
p8493
S'-91.0017954'
p8494
tp8495
sS'Pulaski'
p8496
(S'37.8286516'
p8497
S'-92.2007227'
p8498
tp8499
sS'Crawford'
p8500
(S'37.9680999'
p8501
S'-91.354868'
p8502
tp8503
sS'Christian'
p8504
(S'37.0433863'
p8505
S'-93.294353'
p8506
tp8507
sS'Phelps'
p8508
(S'37.9514304'
p8509
S'-91.7712691'
p8510
tp8511
sS'Andrew'
p8512
(g1836
g1836
tp8513
sS'Atchison'
p8514
(S'40.5347196'
p8515
S'-95.3191476'
p8516
tp8517
sS'St. Clair'
p8518
(S'38.1400275'
p8519
S'-93.7268774'
p8520
tp8521
sS'Knox'
p8522
(S'39.9800378'
p8523
S'-92.3015738'
p8524
tp8525
sS'Platte'
p8526
(S'39.3702773'
p8527
S'-94.7824609'
p8528
tp8529
sS'Pemiscot'
p8530
(S'36.1931245'
p8531
S'-89.6556353'
p8532
tp8533
sS'Bates'
p8534
(S'38.0964191'
p8535
S'-94.3610616'
p8536
tp8537
sS'Cape Girardeau'
p8538
(S'37.3822732'
p8539
S'-89.6662064'
p8540
tp8541
sS'Benton'
p8542
(S'38.2430811'
p8543
S'-93.3818711'
p8544
tp8545
sS'Lafayette'
p8546
(g1836
g1836
tp8547
sS'Howell'
p8548
(S'36.9922768'
p8549
S'-91.9698742'
p8550
tp8551
sS'Boone'
p8552
(S'38.9517053'
p8553
S'-92.3340724'
p8554
tp8555
sS'St. Louis'
p8556
(S'38.5131094'
p8557
S'-90.4359532'
p8558
tp8559
sS'Carter'
p8560
(S'36.9342189'
p8561
S'-90.7467876'
p8562
tp8563
sS'Randolph'
p8564
(S'39.4183689'
p8565
S'-92.4382367'
p8566
tp8567
sS'Scott'
p8568
(S'36.876719'
p8569
S'-89.5878579'
p8570
tp8571
sS'Reynolds'
p8572
(S'37.4536594'
p8573
S'-90.7948435'
p8574
tp8575
sS'Monroe'
p8576
(S'39.6536529'
p8577
S'-91.7346056'
p8578
tp8579
ssS'MN'
p8580
(dp8581
S'Le Sueur'
p8582
(S'44.5432966'
p8583
S'-93.5760652'
p8584
tp8585
sS'Lyon'
p8586
(S'44.4469033'
p8587
S'-95.7883541'
p8588
tp8589
sS'Hubbard'
p8590
(S'46.9221813'
p8591
S'-95.0586322'
p8592
tp8593
sS'Goodhue'
p8594
(S'44.5624676'
p8595
S'-92.5338013'
p8596
tp8597
sS'Martin'
p8598
(S'43.6521779'
p8599
S'-94.7269247'
p8600
tp8601
sS'Grant'
p8602
(S'46.093016'
p8603
S'-95.8175498'
p8604
tp8605
sS'Steele'
p8606
(S'44.0838517'
p8607
S'-93.226044'
p8608
tp8609
sS'Olmsted'
p8610
(S'44.0216306'
p8611
S'-92.4698992'
p8612
tp8613
sS'Lake'
p8614
(S'47.0227111'
p8615
S'-91.6707322'
p8616
tp8617
sS'Douglas'
p8618
(S'45.8852397'
p8619
S'-95.3775379'
p8620
tp8621
sS'Mower'
p8622
(S'43.7096849'
p8623
S'-92.9696363'
p8624
tp8625
sS'Wright'
p8626
(S'45.1719084'
p8627
S'-93.8746941'
p8628
tp8629
sS'Wilkin'
p8630
(S'46.2635701'
p8631
S'-96.588129'
p8632
tp8633
sS'Nobles'
p8634
(S'43.6349663'
p8635
S'-95.932797'
p8636
tp8637
sS'Pine'
p8638
(S'45.8260672'
p8639
S'-92.9685423'
p8640
tp8641
sS'Rice'
p8642
(S'44.4582983'
p8643
S'-93.161604'
p8644
tp8645
sS'Nicollet'
p8646
(S'44.1732996'
p8647
S'-94.0338451'
p8648
tp8649
sS'Morrison'
p8650
(S'46.3366315'
p8651
S'-94.646125'
p8652
tp8653
sS'Dodge'
p8654
(S'44.0280197'
p8655
S'-92.8546377'
p8656
tp8657
sS'Brown'
p8658
(S'44.3124626'
p8659
S'-94.4605287'
p8660
tp8661
sS'Clay'
p8662
(S'46.8807932'
p8663
S'-96.3167309'
p8664
tp8665
sS'Pennington'
p8666
(S'48.1191353'
p8667
S'-96.1811473'
p8668
tp8669
sS'Norman'
p8670
(S'47.4580288'
p8671
S'-96.8184126'
p8672
tp8673
sS'Mahnomen'
p8674
(S'47.3152389'
p8675
S'-95.968654'
p8676
tp8677
sS'Koochiching'
p8678
(S'48.6010491'
p8679
S'-93.4109824'
p8680
tp8681
sS'Winona'
p8682
(S'43.9430192'
p8683
S'-91.6357021'
p8684
tp8685
sS'Faribault'
p8686
(S'43.767733'
p8687
S'-94.1657949'
p8688
tp8689
sS'Ramsey'
p8690
(S'44.9444101'
p8691
S'-93.0932742'
p8692
tp8693
sS'Watonwan'
p8694
(S'43.9824577'
p8695
S'-94.6269181'
p8696
tp8697
sS'Cook'
p8698
(S'47.6471193'
p8699
S'-90.6748582'
p8700
tp8701
sS'Kittson'
p8702
(S'48.55831'
p8703
S'-96.5919903'
p8704
tp8705
sS'Wabasha'
p8706
(S'44.244689'
p8707
S'-92.295731'
p8708
tp8709
sS'Isanti'
p8710
(S'45.7227387'
p8711
S'-93.1707758'
p8712
tp8713
sS'Mille Lacs'
p8714
(S'45.569965'
p8715
S'-93.5816278'
p8716
tp8717
sS'Lincoln'
p8718
(S'44.4996864'
p8719
S'-96.2314295'
p8720
tp8721
sS'Stearns'
p8722
(S'45.737465'
p8723
S'-94.9525216'
p8724
tp8725
sS'Roseau'
p8726
(S'48.8460926'
p8727
S'-95.7627661'
p8728
tp8729
sS'Freeborn'
p8730
(S'43.7607932'
p8731
S'-93.2040929'
p8732
tp8733
sS'Aitkin'
p8734
(S'46.6066151'
p8735
S'-93.313842'
p8736
tp8737
sS'Traverse'
p8738
(S'45.8044052'
p8739
S'-96.499233'
p8740
tp8741
sS'Hennepin'
p8742
(S'44.9799654'
p8743
S'-93.2638361'
p8744
tp8745
sS'Sherburne'
p8746
(S'45.3038538'
p8747
S'-93.5671825'
p8748
tp8749
sS'Meeker'
p8750
(S'45.1505185'
p8751
S'-94.6830533'
p8752
tp8753
sS'Otter Tail'
p8754
(S'46.5180161'
p8755
S'-95.3761465'
p8756
tp8757
sS'Cass'
p8758
(S'47.1013462'
p8759
S'-94.5872162'
p8760
tp8761
sS'Chisago'
p8762
(S'45.3869076'
p8763
S'-92.7477114'
p8764
tp8765
sS'Becker'
p8766
(S'47.0966263'
p8767
S'-95.8433756'
p8768
tp8769
sS'Anoka'
p8770
(S'45.1630223'
p8771
S'-93.0557757'
p8772
tp8773
sS'Beltrami'
p8774
(S'47.4735633'
p8775
S'-94.8802767'
p8776
tp8777
sS'St. Louis'
p8778
(S'46.7832731'
p8779
S'-92.1065787'
p8780
tp8781
sS'Houston'
p8782
(S'43.5610799'
p8783
S'-91.6359787'
p8784
tp8785
sS'McLeod'
p8786
(S'44.9032959'
p8787
S'-94.1955334'
p8788
tp8789
sS'Carver'
p8790
(S'44.7894072'
p8791
S'-93.6021791'
p8792
tp8793
sS'Fillmore'
p8794
(S'43.7207974'
p8795
S'-91.9768224'
p8796
tp8797
sS'Renville'
p8798
(S'44.5513496'
p8799
S'-94.9844392'
p8800
tp8801
sS'Pope'
p8802
(S'45.6502394'
p8803
S'-95.3897582'
p8804
tp8805
sS'Crow Wing'
p8806
(S'46.2944038'
p8807
S'-93.8269216'
p8808
tp8809
sS'Yellow Medicine'
p8810
(S'44.7088525'
p8811
S'-96.2764335'
p8812
tp8813
sS'Washington'
p8814
(S'44.9238552'
p8815
S'-92.9593797'
p8816
tp8817
sS'Kanabec'
p8818
(S'45.8769031'
p8819
S'-93.2938352'
p8820
tp8821
sS'Carlton'
p8822
(S'46.6791141'
p8823
S'-92.9599311'
p8824
tp8825
sS'Scott'
p8826
(S'44.6669074'
p8827
S'-93.6269014'
p8828
tp8829
sS'Itasca'
p8830
(S'47.2371658'
p8831
S'-93.5302142'
p8832
tp8833
sS'Dakota'
p8834
(S'44.7677424'
p8835
S'-93.2777226'
p8836
tp8837
sS'Blue Earth'
p8838
(S'44.1635775'
p8839
S'-93.9993996'
p8840
tp8841
sS'Polk'
p8842
(S'47.6982979'
p8843
S'-96.1411553'
p8844
tp8845
sS'Sibley'
p8846
(S'44.5530201'
p8847
S'-94.220531'
p8848
tp8849
sS'Kandiyohi'
p8850
(S'45.3010756'
p8851
S'-94.9441773'
p8852
tp8853
ssS'MI'
p8854
(dp8855
S'Osceola'
p8856
(S'44.1025148'
p8857
S'-85.1469835'
p8858
tp8859
sS'Jackson'
p8860
(S'42.105874'
p8861
S'-84.2482819'
p8862
tp8863
sS'Branch'
p8864
(S'41.7967165'
p8865
S'-85.0052424'
p8866
tp8867
sS'Isabella'
p8868
(S'43.5978075'
p8869
S'-84.7675139'
p8870
tp8871
sS'Gogebic'
p8872
(S'46.4546698'
p8873
S'-90.1710081'
p8874
tp8875
sS'Ingham'
p8876
(S'42.7369792'
p8877
S'-84.4838654'
p8878
tp8879
sS'Leelanau'
p8880
(S'44.9808323'
p8881
S'-85.7150847'
p8882
tp8883
sS'Dickinson'
p8884
(S'45.8202334'
p8885
S'-88.0659603'
p8886
tp8887
sS'Calhoun'
p8888
(S'42.243097'
p8889
S'-84.7530304'
p8890
tp8891
sS'Grand Traverse'
p8892
(S'44.7630567'
p8893
S'-85.6206317'
p8894
tp8895
sS'Gladwin'
p8896
(S'43.9808549'
p8897
S'-84.4864007'
p8898
tp8899
sS'Delta'
p8900
(S'45.7102456'
p8901
S'-87.3048536'
p8902
tp8903
sS'Presque Isle'
p8904
(S'45.2200137'
p8905
S'-83.5208142'
p8906
tp8907
sS'Wayne'
p8908
(S'42.36837'
p8909
S'-83.3527097'
p8910
tp8911
sS'Montmorency'
p8912
(S'44.8839001'
p8913
S'-84.3055687'
p8914
tp8915
sS'Keweenaw'
p8916
(S'47.4176892'
p8917
S'-88.082606'
p8918
tp8919
sS'Kent'
p8920
(S'42.8566988'
p8921
S'-85.3802937'
p8922
tp8923
sS'Ionia'
p8924
(S'42.7847564'
p8925
S'-85.1383367'
p8926
tp8927
sS'Alpena'
p8928
(S'45.0775112'
p8929
S'-83.7160984'
p8930
tp8931
sS'Crawford'
p8932
(S'44.6614039'
p8933
S'-84.7147512'
p8934
tp8935
sS'Benzie'
p8936
(S'44.6336096'
p8937
S'-86.2345396'
p8938
tp8939
sS'Oscoda'
p8940
(S'44.6522362'
p8941
S'-84.1297276'
p8942
tp8943
sS'Mecosta'
p8944
(S'43.7733539'
p8945
S'-85.5025468'
p8946
tp8947
sS'Tuscola'
p8948
(S'43.4911322'
p8949
S'-83.396897'
p8950
tp8951
sS'Midland'
p8952
(S'43.6728053'
p8953
S'-84.3805544'
p8954
tp8955
sS'Sanilac'
p8956
(S'43.4308578'
p8957
S'-82.5424244'
p8958
tp8959
sS'Baraga'
p8960
(S'46.7565991'
p8961
S'-88.4529085'
p8962
tp8963
sS'St. Clair'
p8964
(S'43.0125274'
p8965
S'-82.9279881'
p8966
tp8967
sS'Manistee'
p8968
(S'44.3222245'
p8969
S'-86.22342'
p8970
tp8971
sS'Cheboygan'
p8972
(S'45.783901'
p8973
S'-84.7278275'
p8974
tp8975
sS'Van Buren'
p8976
(S'42.3608691'
p8977
S'-85.8794636'
p8978
tp8979
sS'Ogemaw'
p8980
(S'44.2764083'
p8981
S'-84.2386132'
p8982
tp8983
sS'Macomb'
p8984
(S'42.5803122'
p8985
S'-83.0302033'
p8986
tp8987
sS'Roscommon'
p8988
(S'44.314739'
p8989
S'-84.7647496'
p8990
tp8991
sS'Lapeer'
p8992
(S'43.0514161'
p8993
S'-83.3188341'
p8994
tp8995
sS'Muskegon'
p8996
(S'43.2341813'
p8997
S'-86.2483921'
p8998
tp8999
sS'Oceana'
p9000
(S'43.7816728'
p9001
S'-86.4331355'
p9002
tp9003
sS'Missaukee'
p9004
(S'44.3352872'
p9005
S'-85.2150455'
p9006
tp9007
sS'Mason'
p9008
(S'44.0466729'
p9009
S'-86.1786886'
p9010
tp9011
sS'Emmet'
p9012
(S'45.3733428'
p9013
S'-84.9553297'
p9014
tp9015
sS'Wexford'
p9016
(S'44.193896'
p9017
S'-85.7145062'
p9018
tp9019
sS'Iosco'
p9020
(S'44.2694612'
p9021
S'-83.5146973'
p9022
tp9023
sS'St. Joseph'
p9024
(S'41.9439368'
p9025
S'-85.632493'
p9026
tp9027
sS'Kalkaska'
p9028
(S'44.7341729'
p9029
S'-85.1758873'
p9030
tp9031
sS'Houghton'
p9032
(S'46.8899335'
p9033
S'-88.8754114'
p9034
tp9035
sS'Saginaw'
p9036
(S'43.4194699'
p9037
S'-83.9508068'
p9038
tp9039
sS'Berrien'
p9040
(S'41.9430986'
p9041
S'-86.5569659'
p9042
tp9043
sS'Gratiot'
p9044
(S'43.3855873'
p9045
S'-84.835568'
p9046
tp9047
sS'Washtenaw'
p9048
(S'42.2708716'
p9049
S'-83.7263294'
p9050
tp9051
sS'Iron'
p9052
(S'46.0927322'
p9053
S'-88.6423544'
p9054
tp9055
sS'Hillsdale'
p9056
(S'41.8394928'
p9057
S'-84.7480134'
p9058
tp9059
sS'Ottawa'
p9060
(S'42.8125246'
p9061
S'-86.018651'
p9062
tp9063
sS'Bay'
p9064
(S'43.5944677'
p9065
S'-83.8888648'
p9066
tp9067
sS'Allegan'
p9068
(S'42.6550248'
p9069
S'-86.2019826'
p9070
tp9071
sS'Lake'
p9072
(S'43.9011229'
p9073
S'-85.8517287'
p9074
tp9075
sS'Livingston'
p9076
(S'42.5294773'
p9077
S'-83.7802214'
p9078
tp9079
sS'Eaton'
p9080
(S'42.5636478'
p9081
S'-84.8358211'
p9082
tp9083
sS'Alcona'
p9084
(S'44.5877917'
p9085
S'-83.3163567'
p9086
tp9087
sS'Cass'
p9088
(S'41.7861603'
p9089
S'-85.8677756'
p9090
tp9091
sS'Newaygo'
p9092
(S'43.7430676'
p9093
S'-86.0192321'
p9094
tp9095
sS'Montcalm'
p9096
(S'43.2925317'
p9097
S'-85.0814074'
p9098
tp9099
sS'Charlevoix'
p9100
(S'45.3180632'
p9101
S'-85.2584004'
p9102
tp9103
sS'Mackinac'
p9104
(S'46.0041827'
p9105
S'-84.425869'
p9106
tp9107
sS'Kalamazoo'
p9108
(S'42.2917069'
p9109
S'-85.5872286'
p9110
tp9111
sS'Huron'
p9112
(S'43.9411253'
p9113
S'-83.2713468'
p9114
tp9115
sS'Clinton'
p9116
(S'42.842256'
p9117
S'-84.5691487'
p9118
tp9119
sS'Alger'
p9120
(S'46.4110574'
p9121
S'-86.6479361'
p9122
tp9123
sS'Luce'
p9124
(S'46.3549984'
p9125
S'-85.5095586'
p9126
tp9127
sS'Clare'
p9128
(S'44.0039086'
p9129
S'-84.7850221'
p9130
tp9131
sS'Schoolcraft'
p9132
(S'45.9577506'
p9133
S'-86.2462523'
p9134
tp9135
sS'Arenac'
p9136
(S'44.0333538'
p9137
S'-84.0227717'
p9138
tp9139
sS'Chippewa'
p9140
(S'46.4952997'
p9141
S'-84.3453169'
p9142
tp9143
sS'Lenawee'
p9144
(S'41.9697676'
p9145
S'-84.308279'
p9146
tp9147
sS'Genesee'
p9148
(S'43.0125274'
p9149
S'-83.6874562'
p9150
tp9151
sS'Antrim'
p9152
(S'44.902229'
p9153
S'-85.0608848'
p9154
tp9155
sS'Barry'
p9156
(S'42.6458683'
p9157
S'-85.2908404'
p9158
tp9159
sS'Shiawassee'
p9160
(S'42.8264205'
p9161
S'-84.2194127'
p9162
tp9163
sS'Otsego'
p9164
(S'45.0275126'
p9165
S'-84.6747523'
p9166
tp9167
sS'Ontonagon'
p9168
(S'46.7657749'
p9169
S'-89.2756983'
p9170
tp9171
sS'Marquette'
p9172
(S'46.5435442'
p9173
S'-87.395417'
p9174
tp9175
sS'Menominee'
p9176
(S'45.1077627'
p9177
S'-87.6142737'
p9178
tp9179
sS'Oakland'
p9180
(S'42.735863'
p9181
S'-83.4188304'
p9182
tp9183
sS'Monroe'
p9184
(S'41.7658819'
p9185
S'-83.6279921'
p9186
tp9187
ssS'RI'
p9188
(dp9189
S'Newport'
p9190
(S'41.4901024'
p9191
S'-71.3128285'
p9192
tp9193
sS'Providence'
p9194
(S'41.8500997'
p9195
S'-71.4661703'
p9196
tp9197
sS'Washington'
p9198
(S'41.3775996'
p9199
S'-71.8272911'
p9200
tp9201
sS'Bristol'
p9202
(S'41.740657'
p9203
S'-71.3086618'
p9204
tp9205
sS'Kent'
p9206
(S'41.7000996'
p9207
S'-71.6828444'
p9208
tp9209
ssS'KS'
p9210
(dp9211
S'Saline'
p9212
(S'38.8402805'
p9213
S'-97.6114237'
p9214
tp9215
sS'Lyon'
p9216
(S'38.506956'
p9217
S'-96.2619425'
p9218
tp9219
sS'Ellis'
p9220
(S'38.8791783'
p9221
S'-99.3267702'
p9222
tp9223
sS'Russell'
p9224
(S'38.8952893'
p9225
S'-98.8598061'
p9226
tp9227
sS'Nemaha'
p9228
(S'39.834165'
p9229
S'-96.0641676'
p9230
tp9231
sS'Cherokee'
p9232
(S'37.0236759'
p9233
S'-94.7355042'
p9234
tp9235
sS'Harvey'
p9236
(S'38.0466779'
p9237
S'-97.3450365'
p9238
tp9239
sS'Finney'
p9240
(S'37.9716898'
p9241
S'-100.8726618'
p9242
tp9243
sS'Lincoln'
p9244
(S'39.0094539'
p9245
S'-98.394228'
p9246
tp9247
sS'Douglas'
p9248
(S'38.9716689'
p9249
S'-95.2352501'
p9250
tp9251
sS'Montgomery'
p9252
(S'37.0373005'
p9253
S'-95.6163665'
p9254
tp9255
sS'Phillips'
p9256
(S'39.7561207'
p9257
S'-99.3239853'
p9258
tp9259
sS'Jefferson'
p9260
(S'39.1958333'
p9261
S'-95.2083035'
p9262
tp9263
sS'Dickinson'
p9264
(S'38.9172216'
p9265
S'-97.2139094'
p9266
tp9267
sS'Butler'
p9268
(S'37.7139041'
p9269
S'-97.1364294'
p9270
tp9271
sS'Shawnee'
p9272
(S'39.0483336'
p9273
S'-95.6780371'
p9274
tp9275
sS'McPherson'
p9276
(S'38.3861194'
p9277
S'-97.4280895'
p9278
tp9279
sS'Rice'
p9280
(S'38.3980652'
p9281
S'-98.0119966'
p9282
tp9283
sS'Crawford'
p9284
(S'37.4108841'
p9285
S'-94.70496'
p9286
tp9287
sS'Bourbon'
p9288
(S'38.015034'
p9289
S'-94.8835775'
p9290
tp9291
sS'Riley'
p9292
(S'39.1836082'
p9293
S'-96.5716694'
p9294
tp9295
sS'Brown'
p9296
(S'39.8525033'
p9297
S'-95.5358156'
p9298
tp9299
sS'Jackson'
p9300
(S'39.4652724'
p9301
S'-95.7363723'
p9302
tp9303
sS'Labette'
p9304
(S'37.3403384'
p9305
S'-95.2610838'
p9306
tp9307
sS'Gove'
p9308
(S'39.112507'
p9309
S'-100.3587474'
p9310
tp9311
sS'Sherman'
p9312
(S'39.350833'
p9313
S'-101.7101722'
p9314
tp9315
sS'Kearny'
p9316
(S'37.9405752'
p9317
S'-101.254892'
p9318
tp9319
sS'Ness'
p9320
(S'38.6402918'
p9321
S'-99.7462292'
p9322
tp9323
sS'Ford'
p9324
(S'37.7527982'
p9325
S'-100.0170787'
p9326
tp9327
sS'Linn'
p9328
(S'38.1778054'
p9329
S'-94.7113471'
p9330
tp9331
sS'Pratt'
p9332
(S'37.6439071'
p9333
S'-98.7375911'
p9334
tp9335
sS'Barber'
p9336
(S'37.090303'
p9337
S'-98.3984073'
p9338
tp9339
sS'Harper'
p9340
(S'37.2866863'
p9341
S'-98.0258945'
p9342
tp9343
sS'Mitchell'
p9344
(S'39.4561178'
p9345
S'-98.1061595'
p9346
tp9347
sS'Coffey'
p9348
(S'38.0839164'
p9349
S'-95.6344292'
p9350
tp9351
sS'Greenwood'
p9352
(S'37.9794705'
p9353
S'-96.1641647'
p9354
tp9355
sS'Gray'
p9356
(S'37.8066882'
p9357
S'-100.3482003'
p9358
tp9359
sS'Sheridan'
p9360
(S'39.3575049'
p9361
S'-100.441807'
p9362
tp9363
sS'Rawlins'
p9364
(S'39.806668'
p9365
S'-101.0421012'
p9366
tp9367
sS'Johnson'
p9368
(S'38.9822282'
p9369
S'-94.6707917'
p9370
tp9371
sS'Miami'
p9372
(S'38.5722354'
p9373
S'-94.8791294'
p9374
tp9375
sS'Barton'
p9376
(S'38.5180672'
p9377
S'-98.7781394'
p9378
tp9379
sS'Leavenworth'
p9380
(S'39.3111112'
p9381
S'-94.9224637'
p9382
tp9383
sS'Osage'
p9384
(S'38.7538947'
p9385
S'-95.8349868'
p9386
tp9387
sS'Ottawa'
p9388
(S'39.0305556'
p9389
S'-97.5941992'
p9390
tp9391
sS'Wyandotte'
p9392
(S'39.1141708'
p9393
S'-94.627457'
p9394
tp9395
sS'Franklin'
p9396
(S'38.6155668'
p9397
S'-95.2677515'
p9398
tp9399
sS'Clay'
p9400
(S'39.3769407'
p9401
S'-97.1247428'
p9402
tp9403
sS'Sedgwick'
p9404
(S'37.6922361'
p9405
S'-97.3375448'
p9406
tp9407
sS'Sumner'
p9408
(S'37.2653004'
p9409
S'-97.3717119'
p9410
tp9411
sS'Cowley'
p9412
(S'37.2397486'
p9413
S'-96.9955919'
p9414
tp9415
sS'Seward'
p9416
(S'37.0430812'
p9417
S'-100.920999'
p9418
tp9419
sS'Marshall'
p9420
(S'39.8411129'
p9421
S'-96.647242'
p9422
tp9423
sS'Geary'
p9424
(S'39.1683299'
p9425
S'-96.9125112'
p9426
tp9427
sS'Rush'
p9428
(S'38.5227908'
p9429
S'-99.1973224'
p9430
tp9431
sS'Thomas'
p9432
(S'39.3958369'
p9433
S'-101.0523773'
p9434
tp9435
sS'Rooks'
p9436
(S'39.4380656'
p9437
S'-99.2650967'
p9438
tp9439
sS'Kingman'
p9440
(S'37.6458491'
p9441
S'-98.1136734'
p9442
tp9443
sS'Neosho'
p9444
(S'37.6792135'
p9445
S'-95.4572034'
p9446
tp9447
sS'Reno'
p9448
(S'38.0608445'
p9449
S'-97.9297743'
p9450
tp9451
sS'Hodgeman'
p9452
(S'38.0844625'
p9453
S'-99.8934619'
p9454
tp9455
sS'Logan'
p9456
(S'39.133341'
p9457
S'-100.8637593'
p9458
tp9459
sS'Marion'
p9460
(S'38.3483493'
p9461
S'-97.017245'
p9462
tp9463
sS'Cloud'
p9464
(S'39.5994495'
p9465
S'-97.8611542'
p9466
tp9467
sS'Allen'
p9468
(S'37.8105961'
p9469
S'-95.4369264'
p9470
tp9471
sS'Morton'
p9472
(S'37.0080792'
p9473
S'-101.8901664'
p9474
tp9475
sS'Graham'
p9476
(S'39.351116'
p9477
S'-99.9723477'
p9478
tp9479
sS'Pawnee'
p9480
(S'38.1805693'
p9481
S'-99.098713'
p9482
tp9483
sS'Pottawatomie'
p9484
(S'39.2019412'
p9485
S'-96.3049976'
p9486
tp9487
ssS'MT'
p9488
(dp9489
S'Judith Basin'
p9490
(S'47.0533007'
p9491
S'-109.9104723'
p9492
tp9493
sS'Glacier'
p9494
(S'48.6330395'
p9495
S'-112.3261618'
p9496
tp9497
sS'Silver Bow'
p9498
(S'46.0038153'
p9499
S'-112.5347447'
p9500
tp9501
sS'Daniels'
p9502
(S'48.7925243'
p9503
S'-105.4208268'
p9504
tp9505
sS'Petroleum'
p9506
(S'47.002759'
p9507
S'-108.3520716'
p9508
tp9509
sS'Lake'
p9510
(S'47.6935498'
p9511
S'-114.1631719'
p9512
tp9513
sS'Phillips'
p9514
(S'47.9177736'
p9515
S'-108.5262585'
p9516
tp9517
sS'Jefferson'
p9518
(S'46.5377111'
p9519
S'-111.9327688'
p9520
tp9521
sS'Hill'
p9522
(S'48.549999'
p9523
S'-109.6840887'
p9524
tp9525
sS'Valley'
p9526
(S'48.1969637'
p9527
S'-106.6367127'
p9528
tp9529
sS'Powell'
p9530
(S'46.3957608'
p9531
S'-112.7300383'
p9532
tp9533
sS'Sanders'
p9534
(S'47.4602135'
p9535
S'-114.8829119'
p9536
tp9537
sS'Custer'
p9538
(S'46.4083362'
p9539
S'-105.8405582'
p9540
tp9541
sS'Park'
p9542
(S'45.6624354'
p9543
S'-110.5610396'
p9544
tp9545
sS'Chouteau'
p9546
(S'48.1785915'
p9547
S'-110.1121523'
p9548
tp9549
sS'Meagher'
p9550
(S'46.548277'
p9551
S'-110.9021561'
p9552
tp9553
sS'Wheatland'
p9554
(S'46.4355121'
p9555
S'-109.8343499'
p9556
tp9557
sS'Yellowstone'
p9558
(S'45.7832856'
p9559
S'-108.5006904'
p9560
tp9561
sS'Carbon'
p9562
(S'45.1857782'
p9563
S'-109.2468211'
p9564
tp9565
sS'Stillwater'
p9566
(S'45.6327243'
p9567
S'-108.9179269'
p9568
tp9569
sS'Flathead'
p9570
(S'48.1957925'
p9571
S'-114.3129081'
p9572
tp9573
sS'Lincoln'
p9574
(S'48.8799647'
p9575
S'-115.0535001'
p9576
tp9577
sS'Mineral'
p9578
(S'47.1165912'
p9579
S'-114.7801276'
p9580
tp9581
sS'Fergus'
p9582
(S'47.0624732'
p9583
S'-109.428238'
p9584
tp9585
sS'Big Horn'
p9586
(S'45.6016413'
p9587
S'-107.4611944'
p9588
tp9589
sS'Ravalli'
p9590
(S'46.6315897'
p9591
S'-114.0789959'
p9592
tp9593
sS'Missoula'
p9594
(S'46.872146'
p9595
S'-113.9939982'
p9596
tp9597
sS'Cascade'
p9598
(S'47.5002354'
p9599
S'-111.3008083'
p9600
tp9601
sS'Roosevelt'
p9602
(S'48.0905736'
p9603
S'-105.6405566'
p9604
tp9605
sS'Beaverhead'
p9606
(S'45.3679793'
p9607
S'-113.4089438'
p9608
tp9609
sS'Lewis and Clark'
p9610
(S'46.5896567'
p9611
S'-111.9155461'
p9612
tp9613
sS'Sweet Grass'
p9614
(S'45.8349395'
p9615
S'-109.9554647'
p9616
tp9617
sS'Pondera'
p9618
(S'48.1702505'
p9619
S'-111.9461301'
p9620
tp9621
sS'Deer Lodge'
p9622
(S'46.1285369'
p9623
S'-112.9422641'
p9624
tp9625
sS'Rosebud'
p9626
(S'45.6230476'
p9627
S'-106.6666984'
p9628
tp9629
sS'Prairie'
p9630
(S'46.7930626'
p9631
S'-105.3122086'
p9632
tp9633
sS'Blaine'
p9634
(S'47.9891595'
p9635
S'-108.6943234'
p9636
tp9637
sS'Dawson'
p9638
(S'47.1052899'
p9639
S'-104.7124597'
p9640
tp9641
sS'Toole'
p9642
(S'48.5052631'
p9643
S'-111.8569667'
p9644
tp9645
sS'Gallatin'
p9646
(S'45.6796526'
p9647
S'-111.0385582'
p9648
tp9649
ssS'MS'
p9650
(dp9651
S'Yalobusha'
p9652
(S'34.1514989'
p9653
S'-89.6314736'
p9654
tp9655
sS'Yazoo'
p9656
(S'32.8551326'
p9657
S'-90.4056469'
p9658
tp9659
sS'Jackson'
p9660
(S'30.4113097'
p9661
S'-88.8278058'
p9662
tp9663
sS'Sunflower'
p9664
(S'33.4509513'
p9665
S'-90.6550917'
p9666
tp9667
sS'Lamar'
p9668
(S'31.4173935'
p9669
S'-89.5422909'
p9670
tp9671
sS'Tate'
p9672
(S'34.6176032'
p9673
S'-89.9687011'
p9674
tp9675
sS'Pontotoc'
p9676
(S'34.3076058'
p9677
S'-89.1781251'
p9678
tp9679
sS'Smith'
p9680
(S'31.9834895'
p9681
S'-89.520902'
p9682
tp9683
sS'Calhoun'
p9684
(S'33.9920553'
p9685
S'-89.3489641'
p9686
tp9687
sS'Hinds'
p9688
(S'32.2987573'
p9689
S'-90.1848103'
p9690
tp9691
sS'Bolivar'
p9692
(S'33.7440023'
p9693
S'-90.7248187'
p9694
tp9695
sS'Tishomingo'
p9696
(S'34.5098193'
p9697
S'-88.20921'
p9698
tp9699
sS'Covington'
p9700
(S'31.5623892'
p9701
S'-89.4975669'
p9702
tp9703
sS'Perry'
p9704
(S'31.343786'
p9705
S'-89.1397794'
p9706
tp9707
sS'Webster'
p9708
(S'33.5406769'
p9709
S'-89.2670124'
p9710
tp9711
sS'Wilkinson'
p9712
(S'31.104619'
p9713
S'-91.2995551'
p9714
tp9715
sS'Adams'
p9716
(S'31.5604442'
p9717
S'-91.403171'
p9718
tp9719
sS'Leflore'
p9720
(S'33.5162315'
p9721
S'-90.1795281'
p9722
tp9723
sS'Newton'
p9724
(S'32.5715272'
p9725
S'-89.1214478'
p9726
tp9727
sS'Lee'
p9728
(S'34.2576067'
p9729
S'-88.7033859'
p9730
tp9731
sS'Pearl River'
p9732
(S'30.5254692'
p9733
S'-89.6795084'
p9734
tp9735
sS'Leake'
p9736
(S'32.7326356'
p9737
S'-89.5361825'
p9738
tp9739
sS'Rankin'
p9740
(S'32.3095903'
p9741
S'-90.1389757'
p9742
tp9743
sS'Walthall'
p9744
(S'31.1160119'
p9745
S'-90.1420331'
p9746
tp9747
sS'Amite'
p9748
(S'31.1973959'
p9749
S'-91.0217703'
p9750
tp9751
sS'Scott'
p9752
(S'32.3537557'
p9753
S'-89.6545171'
p9754
tp9755
sS'DeSoto'
p9756
(S'34.823987'
p9757
S'-89.9937018'
p9758
tp9759
sS'Winston'
p9760
(S'33.1237377'
p9761
S'-89.0550624'
p9762
tp9763
sS'Prentiss'
p9764
(S'34.5020433'
p9765
S'-88.4689382'
p9766
tp9767
sS'Clarke'
p9768
(S'31.9070982'
p9769
S'-88.7125421'
p9770
tp9771
sS'Alcorn'
p9772
(S'34.9342548'
p9773
S'-88.5222702'
p9774
tp9775
sS'Jones'
p9776
(S'31.6940509'
p9777
S'-89.1306124'
p9778
tp9779
sS'Pike'
p9780
(S'31.1432328'
p9781
S'-90.4587081'
p9782
tp9783
sS'Choctaw'
p9784
(S'33.3101243'
p9785
S'-89.1728434'
p9786
tp9787
sS'Humphreys'
p9788
(S'33.1842912'
p9789
S'-90.4892563'
p9790
tp9791
sS'Hancock'
p9792
(S'30.2868632'
p9793
S'-89.3761587'
p9794
tp9795
sS'Coahoma'
p9796
(S'34.2001086'
p9797
S'-90.5709323'
p9798
tp9799
sS'Lafayette'
p9800
(S'34.3264959'
p9801
S'-89.5236929'
p9802
tp9803
sS'Franklin'
p9804
(S'31.4723928'
p9805
S'-90.8967682'
p9806
tp9807
sS'Grenada'
p9808
(S'33.7690049'
p9809
S'-89.8084192'
p9810
tp9811
sS'Noxubee'
p9812
(S'33.1054039'
p9813
S'-88.5608767'
p9814
tp9815
sS'Simpson'
p9816
(S'32.0020993'
p9817
S'-90.1989754'
p9818
tp9819
sS'Kemper'
p9820
(S'32.751245'
p9821
S'-88.8300516'
p9822
tp9823
sS'Lauderdale'
p9824
(S'32.4979183'
p9825
S'-88.8458832'
p9826
tp9827
sS'Madison'
p9828
(S'32.4284761'
p9829
S'-90.1323087'
p9830
tp9831
sS'Tunica'
p9832
(S'34.6845455'
p9833
S'-90.382877'
p9834
tp9835
sS'Quitman'
p9836
(S'34.2565001'
p9837
S'-90.2720375'
p9838
tp9839
sS'Copiah'
p9840
(S'31.8009956'
p9841
S'-90.324257'
p9842
tp9843
sS'Panola'
p9844
(S'34.3114982'
p9845
S'-89.9442567'
p9846
tp9847
sS'Washington'
p9848
(S'33.4101161'
p9849
S'-91.0617735'
p9850
tp9851
sS'Itawamba'
p9852
(S'34.2178846'
p9853
S'-88.5100477'
p9854
tp9855
sS'George'
p9856
(S'30.9251869'
p9857
S'-88.5900235'
p9858
tp9859
sS'Holmes'
p9860
(S'33.075129'
p9861
S'-89.8545276'
p9862
tp9863
sS'Wayne'
p9864
(S'31.5687743'
p9865
S'-88.4839129'
p9866
tp9867
sS'Marion'
p9868
(S'31.0362936'
p9869
S'-89.8047993'
p9870
tp9871
sS'Jasper'
p9872
(S'31.8668234'
p9873
S'-89.2633939'
p9874
tp9875
sS'Harrison'
p9876
(S'30.3674198'
p9877
S'-89.0928155'
p9878
tp9879
sS'Attala'
p9880
(S'33.0576295'
p9881
S'-89.5875764'
p9882
tp9883
sS'Jefferson Davis'
p9884
(S'31.5379472'
p9885
S'-89.7950766'
p9886
tp9887
sS'Oktibbeha'
p9888
(S'33.4503998'
p9889
S'-88.8183872'
p9890
tp9891
sS'Lowndes'
p9892
(S'33.4956744'
p9893
S'-88.4272627'
p9894
tp9895
sS'Forrest'
p9896
(S'31.3271189'
p9897
S'-89.2903392'
p9898
tp9899
sS'Marshall'
p9900
(S'34.8723179'
p9901
S'-89.6906396'
p9902
tp9903
sS'Monroe'
p9904
(S'33.9842768'
p9905
S'-88.488099'
p9906
tp9907
sS'Warren'
p9908
(S'32.3526457'
p9909
S'-90.8778821'
p9910
tp9911
ssS'SC'
p9912
(dp9913
S'Lancaster'
p9914
(S'34.6729271'
p9915
S'-80.7189578'
p9916
tp9917
sS'Colleton'
p9918
(S'32.9051704'
p9919
S'-80.6667688'
p9920
tp9921
sS'Richland'
p9922
(S'34.0007104'
p9923
S'-81.0348144'
p9924
tp9925
sS'Cherokee'
p9926
(S'35.0717945'
p9927
S'-81.6498195'
p9928
tp9929
sS'Sumter'
p9930
(S'33.9204354'
p9931
S'-80.3414693'
p9932
tp9933
sS'Greenville'
p9934
(S'34.8526176'
p9935
S'-82.3940105'
p9936
tp9937
sS'Fairfield'
p9938
(S'34.2518165'
p9939
S'-81.2550938'
p9940
tp9941
sS'Kershaw'
p9942
(S'34.1709826'
p9943
S'-80.794252'
p9944
tp9945
sS'Anderson'
p9946
(S'34.7023389'
p9947
S'-82.4645714'
p9948
tp9949
sS'Abbeville'
p9950
(S'34.1781719'
p9951
S'-82.3790148'
p9952
tp9953
sS'Horry'
p9954
(S'33.6890603'
p9955
S'-78.8866943'
p9956
tp9957
sS'Spartanburg'
p9958
(S'35.0470617'
p9959
S'-82.0901088'
p9960
tp9961
sS'Pickens'
p9962
(S'34.8834489'
p9963
S'-82.7073573'
p9964
tp9965
sS'Georgetown'
p9966
(S'33.4332236'
p9967
S'-79.1214313'
p9968
tp9969
sS'Lee'
p9970
(S'34.2182107'
p9971
S'-80.2484056'
p9972
tp9973
sS'Clarendon'
p9974
(S'33.6951627'
p9975
S'-80.2109134'
p9976
tp9977
sS'Marlboro'
p9978
(S'34.5304359'
p9979
S'-79.701171'
p9980
tp9981
sS'Saluda'
p9982
(S'34.0015232'
p9983
S'-81.7720522'
p9984
tp9985
sS'Oconee'
p9986
(S'34.6648197'
p9987
S'-83.0965425'
p9988
tp9989
sS'Newberry'
p9990
(S'34.5029146'
p9991
S'-81.6114932'
p9992
tp9993
sS'York'
p9994
(S'34.9248667'
p9995
S'-81.0250784'
p9996
tp9997
sS'Berkeley'
p9998
(S'32.9857275'
p9999
S'-80.1098123'
p10000
tp10001
sS'Beaufort'
p10002
(S'32.4315813'
p10003
S'-80.6698286'
p10004
tp10005
sS'Greenwood'
p10006
(S'34.1954001'
p10007
S'-82.1617883'
p10008
tp10009
sS'Orangeburg'
p10010
(S'33.4354328'
p10011
S'-80.9209272'
p10012
tp10013
sS'Laurens'
p10014
(S'34.6081774'
p10015
S'-82.113438'
p10016
tp10017
sS'Williamsburg'
p10018
(S'33.6590552'
p10019
S'-79.5133935'
p10020
tp10021
sS'Lexington'
p10022
(S'33.9815369'
p10023
S'-81.2362107'
p10024
tp10025
sS'Chester'
p10026
(S'34.8040264'
p10027
S'-81.2392529'
p10028
tp10029
sS'Charleston'
p10030
(S'32.7940651'
p10031
S'-79.8625851'
p10032
tp10033
sS'Chesterfield'
p10034
(S'34.7732102'
p10035
S'-80.3917315'
p10036
tp10037
sS'Dorchester'
p10038
(S'33.0185039'
p10039
S'-80.1756481'
p10040
tp10041
sS'Hampton'
p10042
(S'32.7457295'
p10043
S'-80.9278856'
p10044
tp10045
sS'Aiken'
p10046
(S'33.5018026'
p10047
S'-81.9651153'
p10048
tp10049
sS'Dillon'
p10050
(S'34.4165505'
p10051
S'-79.3711579'
p10052
tp10053
sS'Jasper'
p10054
(S'32.4807435'
p10055
S'-80.980386'
p10056
tp10057
sS'Darlington'
p10058
(S'34.2998762'
p10059
S'-79.8761741'
p10060
tp10061
sS'Barnwell'
p10062
(S'33.1351522'
p10063
S'-81.4312186'
p10064
tp10065
sS'Florence'
p10066
(S'34.2365434'
p10067
S'-79.7345054'
p10068
tp10069
ssS'KY'
p10070
(dp10071
S'Metcalfe'
p10072
(S'36.9800563'
p10073
S'-85.6121906'
p10074
tp10075
sS'Daviess'
p10076
(S'37.7742152'
p10077
S'-87.1133304'
p10078
tp10079
sS'Russell'
p10080
(S'37.0561788'
p10081
S'-85.0885667'
p10082
tp10083
sS'Shelby'
p10084
(S'38.22257'
p10085
S'-85.3552349'
p10086
tp10087
sS'Union'
p10088
(S'37.6833776'
p10089
S'-87.9166916'
p10090
tp10091
sS'Montgomery'
p10092
(S'38.0564679'
p10093
S'-83.9432556'
p10094
tp10095
sS'Wayne'
p10096
(S'36.8297937'
p10097
S'-84.8491126'
p10098
tp10099
sS'Bourbon'
p10100
(S'38.2097987'
p10101
S'-84.2529869'
p10102
tp10103
sS'Powell'
p10104
(S'37.8456373'
p10105
S'-83.8582525'
p10106
tp10107
sS'Boyle'
p10108
(S'37.6456329'
p10109
S'-84.7721702'
p10110
tp10111
sS'Henderson'
p10112
(S'37.8361538'
p10113
S'-87.5900134'
p10114
tp10115
sS'Breckinridge'
p10116
(S'37.5900543'
p10117
S'-86.5488713'
p10118
tp10119
sS'Casey'
p10120
(S'37.3184064'
p10121
S'-84.9393979'
p10122
tp10123
sS'Adair'
p10124
(S'37.2428449'
p10125
S'-85.1894035'
p10126
tp10127
sS'McCreary'
p10128
(S'36.7436893'
p10129
S'-84.4807721'
p10130
tp10131
sS'Nelson'
p10132
(S'37.8092279'
p10133
S'-85.4669025'
p10134
tp10135
sS'Henry'
p10136
(S'38.4622879'
p10137
S'-85.3035678'
p10138
tp10139
sS'Barren'
p10140
(S'36.995884'
p10141
S'-85.9119215'
p10142
tp10143
sS'Bullitt'
p10144
(S'37.9883991'
p10145
S'-85.7157924'
p10146
tp10147
sS'Trimble'
p10148
(S'38.7236714'
p10149
S'-85.3694018'
p10150
tp10151
sS'Marion'
p10152
(S'37.5697869'
p10153
S'-85.2527381'
p10154
tp10155
sS'Allen'
p10156
(S'36.7533781'
p10157
S'-86.1905424'
p10158
tp10159
sS'Warren'
p10160
(S'36.9903199'
p10161
S'-86.4436018'
p10162
tp10163
sS'Perry'
p10164
(S'37.24954'
p10165
S'-83.1932284'
p10166
tp10167
sS'Graves'
p10168
(S'36.9203351'
p10169
S'-88.520045'
p10170
tp10171
sS'Grant'
p10172
(S'38.6820123'
p10173
S'-84.5899426'
p10174
tp10175
sS'Oldham'
p10176
(S'38.3242355'
p10177
S'-85.4724593'
p10178
tp10179
sS'Mason'
p10180
(S'38.6411854'
p10181
S'-83.744365'
p10182
tp10183
sS'Wolfe'
p10184
(S'37.7342526'
p10185
S'-83.547409'
p10186
tp10187
sS'Anderson'
p10188
(S'38.0372967'
p10189
S'-84.8966171'
p10190
tp10191
sS'Jefferson'
p10192
(S'38.2542376'
p10193
S'-85.759407'
p10194
tp10195
sS'Breathitt'
p10196
(S'37.5531457'
p10197
S'-83.3835135'
p10198
tp10199
sS'Kenton'
p10200
(S'39.0167275'
p10201
S'-84.6007773'
p10202
tp10203
sS'Boyd'
p10204
(S'38.4784144'
p10205
S'-82.6379387'
p10206
tp10207
sS'McLean'
p10208
(S'37.5389351'
p10209
S'-87.2583316'
p10210
tp10211
sS'Johnson'
p10212
(S'37.8145384'
p10213
S'-82.8071054'
p10214
tp10215
sS'Hopkins'
p10216
(S'37.3281005'
p10217
S'-87.4988882'
p10218
tp10219
sS'Whitley'
p10220
(S'36.7434169'
p10221
S'-84.1596561'
p10222
tp10223
sS'Woodford'
p10224
(S'38.052576'
p10225
S'-84.7299464'
p10226
tp10227
sS'Green'
p10228
(S'37.2608936'
p10229
S'-85.4988548'
p10230
tp10231
sS'Clay'
p10232
(S'37.14643'
p10233
S'-83.904847'
p10234
tp10235
sS'Ohio'
p10236
(S'37.3442149'
p10237
S'-86.7547121'
p10238
tp10239
sS'Spencer'
p10240
(S'38.0317304'
p10241
S'-85.3424533'
p10242
tp10243
sS'Fulton'
p10244
(S'36.5042277'
p10245
S'-88.874226'
p10246
tp10247
sS'Madison'
p10248
(S'37.7478572'
p10249
S'-84.2946539'
p10250
tp10251
sS'Taylor'
p10252
(S'37.3433974'
p10253
S'-85.3419069'
p10254
tp10255
sS'Clark'
p10256
(g1836
g1836
tp10257
sS'Todd'
p10258
(S'36.8100425'
p10259
S'-87.1541675'
p10260
tp10261
sS'Grayson'
p10262
(S'37.4800544'
p10263
S'-86.2938637'
p10264
tp10265
sS'Hart'
p10266
(S'37.179496'
p10267
S'-85.9069175'
p10268
tp10269
sS'Lyon'
p10270
(S'37.0944971'
p10271
S'-88.080301'
p10272
tp10273
sS'Morgan'
p10274
(S'37.8120323'
p10275
S'-83.3335131'
p10276
tp10277
sS'Magoffin'
p10278
(S'37.7525922'
p10279
S'-83.0687816'
p10280
tp10281
sS'Jessamine'
p10282
(S'37.8806341'
p10283
S'-84.5729961'
p10284
tp10285
sS'Letcher'
p10286
(S'37.1956586'
p10287
S'-82.6990458'
p10288
tp10289
sS'Jackson'
p10290
(S'37.3753724'
p10291
S'-83.9037059'
p10292
tp10293
sS'Lawrence'
p10294
(S'38.1142544'
p10295
S'-82.6032119'
p10296
tp10297
sS'Trigg'
p10298
(S'36.8650496'
p10299
S'-87.835295'
p10300
tp10301
sS'McCracken'
p10302
(S'37.0831102'
p10303
S'-88.7442202'
p10304
tp10305
sS'Fayette'
p10306
(S'37.9886892'
p10307
S'-84.4777153'
p10308
tp10309
sS'Floyd'
p10310
(S'37.6656527'
p10311
S'-82.7715486'
p10312
tp10313
sS'Pike'
p10314
(S'37.6203804'
p10315
S'-82.2690294'
p10316
tp10317
sS'Lincoln'
p10318
(S'37.4731315'
p10319
S'-84.8157827'
p10320
tp10321
sS'Ballard'
p10322
(S'36.9647754'
p10323
S'-89.0892349'
p10324
tp10325
sS'Livingston'
p10326
(S'37.0031109'
p10327
S'-88.2344746'
p10328
tp10329
sS'Harlan'
p10330
(S'36.8892571'
p10331
S'-83.0551667'
p10332
tp10333
sS'Franklin'
p10334
(S'38.2009055'
p10335
S'-84.8732836'
p10336
tp10337
sS'Larue'
p10338
(S'37.5739497'
p10339
S'-85.7399606'
p10340
tp10341
sS'Bell'
p10342
(S'36.6084155'
p10343
S'-83.7165824'
p10344
tp10345
sS'Marshall'
p10346
(S'36.8467216'
p10347
S'-88.2391991'
p10348
tp10349
sS'Carroll'
p10350
(S'38.6808958'
p10351
S'-85.1793979'
p10352
tp10353
sS'Bath'
p10354
(S'38.1200809'
p10355
S'-83.6146346'
p10356
tp10357
sS'Campbell'
p10358
(S'39.1064489'
p10359
S'-84.478831'
p10360
tp10361
sS'Laurel'
p10362
(S'37.0245332'
p10363
S'-84.0752089'
p10364
tp10365
sS'Mercer'
p10366
(S'37.762298'
p10367
S'-84.8432852'
p10368
tp10369
sS'Gallatin'
p10370
(S'38.7145093'
p10371
S'-84.8227255'
p10372
tp10373
sS'Cumberland'
p10374
(S'36.7903399'
p10375
S'-85.3705186'
p10376
tp10377
sS'Pulaski'
p10378
(S'37.0920222'
p10379
S'-84.6041084'
p10380
tp10381
sS'Rowan'
p10382
(S'38.1839705'
p10383
S'-83.4326841'
p10384
tp10385
sS'Elliott'
p10386
(S'38.187861'
p10387
S'-83.0187808'
p10388
tp10389
sS'Christian'
p10390
(S'37.0478218'
p10391
S'-87.4850022'
p10392
tp10393
sS'Greenup'
p10394
(S'38.72091'
p10395
S'-82.9582284'
p10396
tp10397
sS'Leslie'
p10398
(S'37.1609254'
p10399
S'-83.3732373'
p10400
tp10401
sS'Knox'
p10402
(S'36.8664765'
p10403
S'-83.8888138'
p10404
tp10405
sS'Hancock'
p10406
(S'37.9000554'
p10407
S'-86.754988'
p10408
tp10409
sS'Hardin'
p10410
(S'37.8403456'
p10411
S'-85.9491298'
p10412
tp10413
sS'Meade'
p10414
(S'37.9292349'
p10415
S'-86.1794145'
p10416
tp10417
sS'Boone'
p10418
(S'38.9989499'
p10419
S'-84.6266111'
p10420
tp10421
sS'Garrard'
p10422
(S'37.6195246'
p10423
S'-84.5779957'
p10424
tp10425
sS'Edmonson'
p10426
(S'37.1925472'
p10427
S'-86.2677545'
p10428
tp10429
sS'Simpson'
p10430
(S'36.722263'
p10431
S'-86.5772177'
p10432
tp10433
sS'Muhlenberg'
p10434
(S'37.2011539'
p10435
S'-87.1788854'
p10436
tp10437
sS'Carter'
p10438
(S'38.3000809'
p10439
S'-83.1740654'
p10440
tp10441
sS'Knott'
p10442
(S'37.3212123'
p10443
S'-82.8029367'
p10444
tp10445
sS'Lewis'
p10446
(S'38.599243'
p10447
S'-83.3187952'
p10448
tp10449
sS'Calloway'
p10450
(S'36.6103334'
p10451
S'-88.314761'
p10452
tp10453
sS'Fleming'
p10454
(S'38.4222995'
p10455
S'-83.7338076'
p10456
tp10457
sS'Logan'
p10458
(S'36.7889307'
p10459
S'-86.8038857'
p10460
tp10461
sS'Scott'
p10462
(S'38.2097967'
p10463
S'-84.5588311'
p10464
tp10465
sS'Monroe'
p10466
(S'36.7022797'
p10467
S'-85.6916396'
p10468
tp10469
ssS'OR'
p10470
(dp10471
S'Sherman'
p10472
(S'45.3601247'
p10473
S'-120.7856114'
p10474
tp10475
sS'Jackson'
p10476
(S'42.3265153'
p10477
S'-122.8755949'
p10478
tp10479
sS'Grant'
p10480
(S'44.4159883'
p10481
S'-118.95301'
p10482
tp10483
sS'Union'
p10484
(S'45.3245771'
p10485
S'-118.0877188'
p10486
tp10487
sS'Umatilla'
p10488
(S'45.8404101'
p10489
S'-119.2894605'
p10490
tp10491
sS'Lane'
p10492
(S'44.0520691'
p10493
S'-123.0867536'
p10494
tp10495
sS'Lake'
p10496
(S'43.127918'
p10497
S'-121.0461084'
p10498
tp10499
sS'Douglas'
p10500
(S'43.216505'
p10501
S'-123.3417381'
p10502
tp10503
sS'Klamath'
p10504
(S'42.224867'
p10505
S'-121.7816704'
p10506
tp10507
sS'Wasco'
p10508
(S'45.5945645'
p10509
S'-121.1786823'
p10510
tp10511
sS'Jefferson'
p10512
(S'44.4245638'
p10513
S'-121.2383729'
p10514
tp10515
sS'Hood River'
p10516
(S'45.7053966'
p10517
S'-121.5214623'
p10518
tp10519
sS'Coos'
p10520
(S'43.4065012'
p10521
S'-124.2242803'
p10522
tp10523
sS'Multnomah'
p10524
(S'45.5234515'
p10525
S'-122.6762071'
p10526
tp10527
sS'Columbia'
p10528
(S'45.7542809'
p10529
S'-122.8776039'
p10530
tp10531
sS'Crook'
p10532
(S'44.2998485'
p10533
S'-120.8344664'
p10534
tp10535
sS'Clackamas'
p10536
(S'45.4462305'
p10537
S'-122.6392606'
p10538
tp10539
sS'Linn'
p10540
(S'44.5365119'
p10541
S'-122.9070339'
p10542
tp10543
sS'Lincoln'
p10544
(S'45.0242748'
p10545
S'-123.9465021'
p10546
tp10547
sS'Wallowa'
p10548
(S'45.3543187'
p10549
S'-117.2296126'
p10550
tp10551
sS'Baker'
p10552
(S'44.7748748'
p10553
S'-117.8343848'
p10554
tp10555
sS'Clatsop'
p10556
(S'46.1878841'
p10557
S'-123.8312534'
p10558
tp10559
sS'Benton'
p10560
(S'44.5645659'
p10561
S'-123.2620435'
p10562
tp10563
sS'Yamhill'
p10564
(S'45.2942822'
p10565
S'-123.1764949'
p10566
tp10567
sS'Morrow'
p10568
(S'45.8956885'
p10569
S'-119.4914117'
p10570
tp10571
sS'Malheur'
p10572
(S'44.0265525'
p10573
S'-116.9629378'
p10574
tp10575
sS'Deschutes'
p10576
(S'44.3528981'
p10577
S'-121.1778129'
p10578
tp10579
sS'Curry'
p10580
(S'42.0526114'
p10581
S'-124.2839819'
p10582
tp10583
sS'Harney'
p10584
(S'43.541538'
p10585
S'-119.5038422'
p10586
tp10587
sS'Josephine'
p10588
(S'42.439007'
p10589
S'-123.3283925'
p10590
tp10591
sS'Washington'
p10592
(S'45.5228939'
p10593
S'-122.989827'
p10594
tp10595
sS'Tillamook'
p10596
(S'45.7201074'
p10597
S'-123.8940225'
p10598
tp10599
sS'Marion'
p10600
(S'44.9428975'
p10601
S'-123.0350963'
p10602
tp10603
sS'Polk'
p10604
(S'44.8512305'
p10605
S'-123.1867655'
p10606
tp10607
ssS'SD'
p10608
(dp10609
S'Bon Homme'
p10610
(S'43.1497151'
p10611
S'-97.7175669'
p10612
tp10613
sS'Lyman'
p10614
(S'43.903602'
p10615
S'-99.8617834'
p10616
tp10617
sS'Union'
p10618
(S'42.5272168'
p10619
S'-96.4830864'
p10620
tp10621
sS'Lake'
p10622
(S'44.0060847'
p10623
S'-97.1139496'
p10624
tp10625
sS'Brookings'
p10626
(S'44.3113573'
p10627
S'-96.7983877'
p10628
tp10629
sS'Lincoln'
p10630
(S'43.3541476'
p10631
S'-96.8919951'
p10632
tp10633
sS'Brown'
p10634
(S'45.4646985'
p10635
S'-98.4864829'
p10636
tp10637
sS'Minnehaha'
p10638
(S'43.5499749'
p10639
S'-96.700327'
p10640
tp10641
sS'Pennington'
p10642
(S'44.0805434'
p10643
S'-103.2310149'
p10644
tp10645
sS'Custer'
p10646
(S'43.7666507'
p10647
S'-103.5988057'
p10648
tp10649
sS'Lawrence'
p10650
(S'44.376651'
p10651
S'-103.7296416'
p10652
tp10653
sS'Yankton'
p10654
(S'42.8711088'
p10655
S'-97.3972813'
p10656
tp10657
sS'Codington'
p10658
(S'45.0546849'
p10659
S'-97.3298021'
p10660
tp10661
sS'Day'
p10662
(S'45.3321795'
p10663
S'-97.5200891'
p10664
tp10665
sS'Moody'
p10666
(S'43.9991383'
p10667
S'-96.6489366'
p10668
tp10669
sS'Davison'
p10670
(S'43.7094283'
p10671
S'-98.0297992'
p10672
tp10673
sS'Hughes'
p10674
(S'44.3683156'
p10675
S'-100.3509665'
p10676
tp10677
sS'Hutchinson'
p10678
(S'43.1880473'
p10679
S'-97.8386801'
p10680
tp10681
sS'Edmunds'
p10682
(S'45.4444193'
p10683
S'-99.0292784'
p10684
tp10685
sS'Roberts'
p10686
(S'45.6646815'
p10687
S'-97.0498046'
p10688
tp10689
sS'Meade'
p10690
(S'44.4097069'
p10691
S'-103.5090786'
p10692
tp10693
sS'Clay'
p10694
(S'43.0083269'
p10695
S'-97.1067167'
p10696
tp10697
sS'Gregory'
p10698
(S'43.2322227'
p10699
S'-99.4303833'
p10700
tp10701
sS'Brule'
p10702
(S'43.810828'
p10703
S'-99.3306556'
p10704
tp10705
sS'Fall River'
p10706
(S'43.431646'
p10707
S'-103.4743625'
p10708
tp10709
sS'Marshall'
p10710
(S'45.7916192'
p10711
S'-97.7509366'
p10712
tp10713
sS'Beadle'
p10714
(S'44.3633173'
p10715
S'-98.2142572'
p10716
tp10717
sS'Charles Mix'
p10718
(S'43.0797156'
p10719
S'-98.2931342'
p10720
tp10721
sS'Hyde'
p10722
(S'44.2480425'
p10723
S'-99.4531649'
p10724
tp10725
sS'Kingsbury'
p10726
(S'44.3644133'
p10727
S'-97.1331212'
p10728
tp10729
sS'Todd'
p10730
(S'43.2327824'
p10731
S'-100.8534779'
p10732
tp10733
sS'Turner'
p10734
(S'43.2435997'
p10735
S'-97.2795028'
p10736
tp10737
sS'Dewey'
p10738
(S'45.0024802'
p10739
S'-101.233485'
p10740
tp10741
sS'Shannon'
p10742
(S'43.0255408'
p10743
S'-102.5562743'
p10744
tp10745
ss.