(dp0
S'WA'
p1
(dp2
S'San Juan'
p3
(F48.5342662
F-123.0171242
tp4
sS'Pend Oreille'
p5
(F48.1796277
F-117.0432583
tp6
sS'Snohomish'
p7
(F47.9128756
F-122.0981848
tp8
sS'Grant'
p9
(F47.1301417
F-119.2780771
tp10
sS'Lincoln'
p11
(F47.6540456
F-118.149973
tp12
sS'Douglas'
p13
(F47.4156824
F-120.2931263
tp14
sS'Kittitas'
p15
(F46.9965144
F-120.5478474
tp16
sS'Jefferson'
p17
(F48.1170387
F-122.7604472
tp18
sS'Wahkiakum'
p19
(F46.2031656
F-123.3831834
tp20
sS'Whatcom'
p21
(F48.7595529
F-122.4882249
tp22
sS'Adams'
p23
(F46.8259742
F-119.1752913
tp24
sS'Cowlitz'
p25
(F46.1381677
F-122.9381672
tp26
sS'Thurston'
p27
(F47.0378741
F-122.9006951
tp28
sS'Yakima'
p29
(F46.6540153
F-120.5300666
tp30
sS'Klickitat'
p31
(F45.8206794
F-120.8217312
tp32
sS'Okanogan'
p33
(F47.9654304
F-118.9761322
tp34
sS'Kitsap'
p35
(F47.5673176
F-122.6326391
tp36
sS'Clallam'
p37
(F48.0795365
F-123.1018437
tp38
sS'King'
p39
(F47.5301011
F-122.0326191
tp40
sS'Pierce'
p41
(F47.0978795
F-122.2042824
tp42
sS'Spokane'
p43
(F47.6587803
F-117.4260466
tp44
sS'Whitman'
p45
(F46.9101688
F-117.0757252
tp46
sS'Grays Harbor'
p47
(F46.9809247
F-123.8893348
tp48
sS'Island'
p49
(F48.0400945
F-122.406257
tp50
sS'Benton'
p51
(F46.2112458
F-119.1372338
tp52
sS'Franklin'
p53
(F46.2395793
F-119.1005657
tp54
sS'Ferry'
p55
(F48.6482183
F-118.7378067
tp56
sS'Mason'
p57
(F47.2150945
F-123.1007066
tp58
sS'Skagit'
p59
(F48.5126045
F-122.6126718
tp60
sS'Skamania'
p61
(F45.7253947
F-121.8192443
tp62
sS'Clark'
p63
(F45.6387281
F-122.6614861
tp64
sS'Walla Walla'
p65
(F46.0493026
F-118.3883012
tp66
sS'Lewis'
p67
(F46.7162136
F-122.9542972
tp68
sS'Stevens'
p69
(F48.0393344
F-117.8594101
tp70
sS'Pacific'
p71
(F46.3523219
F-124.0543234
tp72
sS'Chelan'
p73
(F47.4234599
F-120.3103494
tp74
sS'Asotin'
p75
(F46.4162724
F-117.0451581
tp76
ssS'DE'
p77
(dp78
S'New Castle'
p79
(F39.6620572
F-75.5663132
tp80
sS'Sussex'
p81
(F38.8698352
F-75.4229746
tp82
sS'Kent'
p83
(F39.158168
F-75.5243682
tp84
ssS'WI'
p85
(dp86
S'Marinette'
p87
(F45.099985
F-87.6306623
tp88
sS'Langlade'
p89
(F45.140245
F-89.1523353
tp90
sS'Jackson'
p91
(F44.2127373
F-91.1237621
tp92
sS'Richland'
p93
(F43.5258118
F-90.221516
tp94
sS'Grant'
p95
(F42.5327799
F-90.4345722
tp96
sS'Portage'
p97
(F44.5235792
F-89.574563
tp98
sS'Rock'
p99
(F42.6827885
F-89.0187223
tp100
sS'Trempealeau'
p101
(F44.367461
F-91.3165482
tp102
sS'Douglas'
p103
(F46.7207737
F-92.1040796
tp104
sS'Ozaukee'
p105
(F43.3872247
F-87.875644
tp106
sS'Bayfield'
p107
(F46.8107671
F-90.81824
tp108
sS'St. Croix'
p109
(F44.9746896
F-92.7568703
tp110
sS'Jefferson'
p111
(F42.9802852
F-88.6312126
tp112
sS'Forest'
p113
(F45.5719072
F-88.9028922
tp114
sS'Waushara'
p115
(F44.133584
F-89.523177
tp116
sS'Fond du Lac'
p117
(F43.7730448
F-88.4470508
tp118
sS'Lincoln'
p119
(F45.4710792
F-89.7298594
tp120
sS'Racine'
p121
(F42.7261309
F-87.7828523
tp122
sS'Waupaca'
p123
(F44.6205349
F-88.7623228
tp124
sS'Dodge'
p125
(F43.4941611
F-88.5448237
tp126
sS'Brown'
p127
(F44.519159
F-88.019826
tp128
sS'Iowa'
p129
(F42.9177726
F-90.2734579
tp130
sS'Dunn'
p131
(F44.6921869
F-92.0115629
tp132
sS'Barron'
p133
(F45.3141273
F-91.6510007
tp134
sS'Winnebago'
p135
(F44.2022084
F-88.4464973
tp136
sS'Manitowoc'
p137
(F44.199439
F-87.7214755
tp138
sS'Oconto'
p139
(F45.1846963
F-88.4737157
tp140
sS'Walworth'
p141
(F42.6727927
F-88.5445447
tp142
sS'Vernon'
p143
(F43.5746959
F-90.6404083
tp144
sS'Sheboygan'
p145
(F43.8338831
F-87.8200887
tp146
sS'Waukesha'
p147
(F43.0116784
F-88.2314813
tp148
sS'Rusk'
p149
(F45.4830249
F-90.9926422
tp150
sS'Pierce'
p151
(F44.8613563
F-92.6238083
tp152
sS'Vilas'
p153
(F45.9171763
F-89.2442988
tp154
sS'Adams'
p155
(F44.2205996
F-89.8084259
tp156
sS'Kenosha'
p157
(F42.5847425
F-87.8211854
tp158
sS'Oneida'
p159
(F45.6366228
F-89.4120753
tp160
sS'Sawyer'
p161
(F46.0130065
F-91.4846208
tp162
sS'Green'
p163
(F42.6011194
F-89.6384532
tp164
sS'Iron'
p165
(F46.4280033
F-90.2460097
tp166
sS'Burnett'
p167
(F45.7763419
F-92.6827041
tp168
sS'Sauk'
p169
(F43.4710944
F-89.7442907
tp170
sS'Door'
p171
(F45.2547094
F-87.0715033
tp172
sS'Dane'
p173
(F42.9261116
F-89.3845634
tp174
sS'Eau Claire'
p175
(F44.811349
F-91.4984941
tp176
sS'Buffalo'
p177
(F44.3199654
F-91.9148839
tp178
sS'Menominee'
p179
(F44.8838712
F-88.6337152
tp180
sS'La Crosse'
p181
(F43.8013556
F-91.2395807
tp182
sS'Taylor'
p183
(F45.1385798
F-90.3401404
tp184
sS'Green Lake'
p185
(F43.9680365
F-88.9434477
tp186
sS'Calumet'
p187
(F44.0288803
F-88.1628785
tp188
sS'Clark'
p189
(F44.5888512
F-90.4612469
tp190
sS'Chippewa'
p191
(F44.9369054
F-91.3929348
tp192
sS'Washington'
p193
(F43.2286174
F-88.1103691
tp194
sS'Outagamie'
p195
(F44.2619309
F-88.4153847
tp196
sS'Ashland'
p197
(F46.5924428
F-90.8837982
tp198
sS'Shawano'
p199
(F44.7822064
F-88.6089917
tp200
sS'Wood'
p201
(F44.6269065
F-90.0076294
tp202
sS'Marathon'
p203
(F44.9591352
F-89.6301221
tp204
sS'Juneau'
p205
(F43.7121987
F-89.8995699
tp206
sS'Milwaukee'
p207
(F43.0389025
F-87.9064736
tp208
sS'Washburn'
p209
(F45.7110618
F-91.8065608
tp210
sS'Kewaunee'
p211
(F44.6088884
F-87.4325891
tp212
sS'Polk'
p213
(F45.3069062
F-92.3621369
tp214
sS'Monroe'
p215
(F43.978576
F-90.5040214
tp216
sS'Columbia'
p217
(F43.6274794
F-89.7709579
tp218
ssS'WV'
p219
(dp220
S'Summers'
p221
(F37.674008
F-80.889254
tp222
sS'Jackson'
p223
(F38.7914742
F-81.7098518
tp224
sS'Braxton'
p225
(F38.6645444
F-80.7098191
tp226
sS'Grant'
p227
(F39.1367737
F-79.1522579
tp228
sS'Pendleton'
p229
(F38.6248402
F-79.2447608
tp230
sS'Calhoun'
p231
(F38.9223096
F-81.018443
tp232
sS'Hampshire'
p233
(F39.1384388
F-78.6700147
tp234
sS'Wetzel'
p235
(F39.7075815
F-80.5811945
tp236
sS'Roane'
p237
(F38.6389816
F-81.4020653
tp238
sS'Wirt'
p239
(F39.0070253
F-81.369564
tp240
sS'Wood'
p241
(F39.2667418
F-81.5615135
tp242
sS'Webster'
p243
(F38.4095529
F-80.5578662
tp244
sS'Nicholas'
p245
(F38.2812203
F-80.8525981
tp246
sS'Putnam'
p247
(F38.4417575
F-81.9168002
tp248
sS'McDowell'
p249
(F37.2084482
F-81.5601083
tp250
sS'Greenbrier'
p251
(F37.9348405
F-80.6520294
tp252
sS'Gilmer'
p253
(F38.9342573
F-80.8376033
tp254
sS'Fayette'
p255
(F38.1362201
F-81.0995479
tp256
sS'Tucker'
p257
(F39.128719
F-79.4647739
tp258
sS'Barbour'
p259
(F39.0251028
F-79.9356301
tp260
sS'Berkeley'
p261
(F39.3578781
F-78.0399994
tp262
sS'Brooke'
p263
(F40.3275693
F-80.5959065
tp264
sS'Ritchie'
p265
(F39.2850799
F-80.9684422
tp266
sS'Pocahontas'
p267
(F38.1887328
F-80.0161727
tp268
sS'Randolph'
p269
(F38.9259397
F-79.8467349
tp270
sS'Wayne'
p271
(F38.3228619
F-82.4468201
tp272
sS'Lincoln'
p273
(F38.2387052
F-81.9892984
tp274
sS'Mineral'
p275
(F39.4409277
F-78.9739156
tp276
sS'Hancock'
p277
(F40.4967329
F-80.6067392
tp278
sS'Boone'
p279
(F37.9748295
F-81.5290005
tp280
sS'Pleasants'
p281
(F39.391742
F-81.2051132
tp282
sS'Raleigh'
p283
(F37.7431716
F-81.1228751
tp284
sS'Morgan'
p285
(F39.5320379
F-78.4583445
tp286
sS'Ohio'
p287
(F40.0639616
F-80.7209149
tp288
sS'Monongalia'
p289
(F39.629526
F-79.9558968
tp290
sS'Upshur'
p291
(F38.9939872
F-80.2320276
tp292
sS'Taylor'
p293
(F39.3409249
F-80.0189659
tp294
sS'Lewis'
p295
(F39.0384274
F-80.467313
tp296
sS'Marshall'
p297
(F39.9203526
F-80.7431407
tp298
sS'Mingo'
p299
(F37.6742682
F-82.2773629
tp300
sS'Cabell'
p301
(F38.4095298
F-82.2945923
tp302
sS'Tyler'
p303
(F39.4922999
F-80.9037181
tp304
sS'Logan'
p305
(F37.9737114
F-82.0173502
tp306
sS'Jefferson'
p307
(F39.3881556
F-77.8855516
tp308
sS'Marion'
p309
(F39.4850848
F-80.1425781
tp310
sS'Harrison'
p311
(F39.4209193
F-80.2778632
tp312
sS'Kanawha'
p313
(F38.4234318
F-81.4262309
tp314
sS'Mercer'
p315
(F37.3662293
F-81.1025918
tp316
sS'Mason'
p317
(F38.8445251
F-82.1370889
tp318
sS'Preston'
p319
(F39.552306
F-79.7978358
tp320
ssS'HI'
p321
(dp322
S'Maui'
p323
(F20.8896075
F-156.5010595
tp324
sS'Hawaii'
p325
(F19.722474
F-155.0868273
tp326
sS'Kauai'
p327
(F22.1422622
F-159.3138837
tp328
sS'Honolulu'
p329
(F21.3069444
F-157.8583333
tp330
ssS'FL'
p331
(dp332
S'Alachua'
p333
(F29.6516344
F-82.3248262
tp334
sS'Pasco'
p335
(F28.2441768
F-82.7192671
tp336
sS'Jackson'
p337
(F30.7743596
F-85.2268735
tp338
sS'Santa Rosa'
p339
(F30.4015879
F-86.863571
tp340
sS'Gulf'
p341
(F30.1127004
F-85.2004716
tp342
sS'Union'
p343
(F30.0227391
F-82.3395574
tp344
sS'Volusia'
p345
(F28.8830452
F-81.3086755
tp346
sS'Duval'
p347
(F30.3321838
F-81.655651
tp348
sS'Sumter'
p349
(F28.934084
F-81.959943
tp350
sS'Lake'
p351
(F28.4775015
F-81.9059115
tp352
sS'Hillsborough'
p353
(F27.9475216
F-82.4584279
tp354
sS'Flagler'
p355
(F29.5849736
F-81.2078411
tp356
sS'Okaloosa'
p357
(F30.3935337
F-86.4957834
tp358
sS'Miami-Dade'
p359
(F25.7742658
F-80.1936589
tp360
sS'Seminole'
p361
(F28.677775
F-81.3278455
tp362
sS'Orange'
p363
(F28.5383355
F-81.3792365
tp364
sS'Indian River'
p365
(F27.6386434
F-80.3972736
tp366
sS'Levy'
p367
(F29.4749621
F-82.8598421
tp368
sS'Hardee'
p369
(F27.5472589
F-81.8114715
tp370
sS'Columbia'
p371
(F29.9232908
F-82.7137327
tp372
sS'Lee'
p373
(F26.5628537
F-81.9495331
tp374
sS'Sarasota'
p375
(F27.0681121
F-82.3728728
tp376
sS'Okeechobee'
p377
(F27.2439349
F-80.8297828
tp378
sS'Manatee'
p379
(F27.4953156
F-82.7109329
tp380
sS'Walton'
p381
(F30.3960324
F-86.2288322
tp382
sS'Hernando'
p383
(F28.5155513
F-82.5728769
tp384
sS'Hamilton'
p385
(F30.5182727
F-82.94819
tp386
sS'Nassau'
p387
(F30.3846821
F-81.9387195
tp388
sS'Broward'
p389
(F26.0112014
F-80.1494901
tp390
sS'Putnam'
p391
(F29.6583026
F-81.5984139
tp392
sS'St. Lucie'
p393
(F27.2939333
F-80.3503283
tp394
sS'Bradford'
p395
(F29.9441298
F-82.1098275
tp396
sS'Suwannee'
p397
(F30.2568926
F-82.9026289
tp398
sS'Highlands'
p399
(F27.495592
F-81.440907
tp400
sS'Gadsden'
p401
(F30.5871392
F-84.5832453
tp402
sS'Osceola'
p403
(F28.2919557
F-81.407571
tp404
sS'St. Johns'
p405
(F30.2274645
F-81.3800824
tp406
sS'Taylor'
p407
(F29.6710597
F-83.387638
tp408
sS'Glades'
p409
(F27.1303277
F-80.8936735
tp410
sS'Franklin'
p411
(F29.7257675
F-84.9832435
tp412
sS'Pinellas'
p413
(F27.9772415
F-82.8278812
tp414
sS'Martin'
p415
(F27.059498
F-80.1364323
tp416
sS'Monroe'
p417
(F24.9762421
F-80.5522836
tp418
sS'Bay'
p419
(F30.2540906
F-85.9568811
tp420
sS'DeSoto'
p421
(F27.2158826
F-81.8584164
tp422
sS'Holmes'
p423
(F30.8624071
F-85.9432695
tp424
sS'Charlotte'
p425
(F26.9761707
F-82.0906448
tp426
sS'Palm Beach'
p427
(F26.3586885
F-80.0830984
tp428
sS'Dixie'
p429
(F29.4413454
F-83.2873552
tp430
sS'Washington'
p431
(F30.5796374
F-85.8646562
tp432
sS'Gilchrist'
p433
(F29.6132942
F-82.8176203
tp434
sS'Leon'
p435
(F30.339367
F-84.387958
tp436
sS'Jefferson'
p437
(F30.5452022
F-83.8701636
tp438
sS'Citrus'
p439
(F28.9974771
F-82.4706548
tp440
sS'Brevard'
p441
(F28.3861159
F-80.7419984
tp442
sS'Marion'
p443
(F29.4460829
F-81.9745332
tp444
sS'Wakulla'
p445
(F30.1760358
F-84.3751778
tp446
sS'Escambia'
p447
(F30.421309
F-87.2169149
tp448
sS'Collier'
p449
(F26.1420358
F-81.7948103
tp450
sS'Polk'
p451
(F28.0394654
F-81.9498042
tp452
sS'Clay'
p453
(F30.0688512
F-81.8603778
tp454
ssS'WY'
p455
(dp456
S'Goshen'
p457
(F42.0624646
F-104.1843943
tp458
sS'Albany'
p459
(F41.3113669
F-105.5911007
tp460
sS'Sheridan'
p461
(F44.7971939
F-106.9561792
tp462
sS'Converse'
p463
(F43.2319119
F-105.2602574
tp464
sS'Natrona'
p465
(F42.866632
F-106.313081
tp466
sS'Johnson'
p467
(F44.3483072
F-106.6989376
tp468
sS'Fremont'
p469
(F42.833014
F-108.7306725
tp470
sS'Bear Lake'
p471
(F42.1829887
F-111.0474131
tp472
sS'Sweetwater'
p473
(F41.5874644
F-109.2029043
tp474
sS'Park'
p475
(F44.5263422
F-109.0565308
tp476
sS'Lincoln'
p477
(F43.163531
F-111.018017
tp478
sS'Laramie'
p479
(F41.1399814
F-104.8202462
tp480
sS'Crook'
p481
(F44.3577604
F-104.8105258
tp482
sS'Hot Springs'
p483
(F43.6460672
F-108.2120432
tp484
sS'Washakie'
p485
(F44.0169014
F-107.9553721
tp486
sS'Uinta'
p487
(F41.327451
F-110.2929325
tp488
sS'Sublette'
p489
(F42.6332811
F-109.4656909
tp490
sS'Campbell'
p491
(F44.2910915
F-105.5022205
tp492
sS'Carbon'
p493
(F41.7910697
F-107.2386627
tp494
sS'Platte'
p495
(F41.7566391
F-104.8216351
tp496
sS'Teton'
p497
(F43.4799291
F-110.7624282
tp498
ssS'NH'
p499
(dp500
S'Coos'
p501
(F44.4686696
F-71.1850768
tp502
sS'Belknap'
p503
(F43.4892431
F-71.5822978
tp504
sS'Strafford'
p505
(F43.4367466
F-71.1722886
tp506
sS'Sullivan'
p507
(F43.3767402
F-72.3467561
tp508
sS'Grafton'
p509
(F43.5911851
F-71.7367456
tp510
sS'Carroll'
p511
(F44.0536805
F-71.1284041
tp512
sS'Merrimack'
p513
(F43.2806329
F-71.8167461
tp514
sS'Hillsborough'
p515
(F42.7653662
F-71.467566
tp516
sS'Rockingham'
p517
(F43.0717552
F-70.7625532
tp518
sS'Cheshire'
p519
(F42.823972
F-72.1811944
tp520
ssS'NJ'
p521
(dp522
S'Cape May'
p523
(F39.2776156
F-74.5746001
tp524
sS'Hudson'
p525
(F40.7695457
F-74.0204177
tp526
sS'Middlesex'
p527
(F40.4148291
F-74.3654267
tp528
sS'Cumberland'
p529
(F39.5445598
F-75.0490645
tp530
sS'Monmouth'
p531
(F40.3042778
F-73.9923596
tp532
sS'Union'
p533
(F40.6639916
F-74.2107006
tp534
sS'Mercer'
p535
(F40.2762189
F-74.8490528
tp536
sS'Gloucester'
p537
(F39.6862263
F-74.995168
tp538
sS'Sussex'
p539
(F41.0334307
F-74.6384947
tp540
sS'Essex'
p541
(F40.7706562
F-74.2326463
tp542
sS'Ocean'
p543
(F39.9537291
F-74.1979192
tp544
sS'Morris'
p545
(F40.7331563
F-74.4876548
tp546
sS'Salem'
p547
(F39.6515027
F-75.3282454
tp548
sS'Burlington'
p549
(F39.934002
F-74.8909988
tp550
sS'Camden'
p551
(F39.769838
F-74.8873855
tp552
sS'Somerset'
p553
(F40.718712
F-74.569324
tp554
sS'Atlantic'
p555
(F39.3898388
F-74.5240422
tp556
sS'Passaic'
p557
(F40.9253763
F-74.2765368
tp558
sS'Bergen'
p559
(F40.788434
F-74.1331988
tp560
sS'Hunterdon'
p561
(F40.6409348
F-74.881278
tp562
sS'Warren'
p563
(F40.6937105
F-75.1110074
tp564
ssS'NM'
p565
(dp566
S'San Juan'
p567
(F36.7280583
F-108.2186856
tp568
sS'San Miguel'
p569
(F35.5742031
F-105.6750161
tp570
sS'Otero'
p571
(F32.8995325
F-105.960265
tp572
sS'Bernalillo'
p573
(F35.0844909
F-106.6511367
tp574
sS'Grant'
p575
(F33.0370125
F-108.7083897
tp576
sS'Rio Arriba'
p577
(F36.1589119
F-105.9747434
tp578
sS'Guadalupe'
p579
(F34.6017346
F-105.2083337
tp580
sS'Eddy'
p581
(F32.4206736
F-104.2288375
tp582
sS'Sierra'
p583
(F33.1284047
F-107.2528069
tp584
sS'Valencia'
p585
(F34.6628367
F-106.776416
tp586
sS'Torrance'
p587
(F34.8647778
F-106.0516864
tp588
sS'Taos'
p589
(F36.3586367
F-105.6094566
tp590
sS'Lea'
p591
(F32.9440077
F-103.3485543
tp592
sS'Cibola'
p593
(F35.14726
F-107.8514466
tp594
sS'Quay'
p595
(F35.171723
F-103.7249662
tp596
sS'Chaves'
p597
(F33.3942655
F-104.5230242
tp598
sS'Catron'
p599
(F34.3439383
F-108.4956203
tp600
sS'Sandoval'
p601
(F35.233375
F-106.6644716
tp602
sS'Socorro'
p603
(F34.1597887
F-106.9103061
tp604
sS'Lincoln'
p605
(F33.3317494
F-105.6730411
tp606
sS'Colfax'
p607
(F36.3930879
F-105.2850091
tp608
sS'Roosevelt'
p609
(F33.8423111
F-103.7719053
tp610
sS'Los Alamos'
p611
(F35.8880796
F-106.3069722
tp612
sS'Curry'
p613
(F34.4303525
F-103.63246
tp614
sS'De Baca'
p615
(F34.4717333
F-104.2455304
tp616
sS'Santa Fe'
p617
(F35.6869752
F-105.937799
tp618
sS'Luna'
p619
(F32.2686981
F-107.7586404
tp620
sS'Do\xc3\xb1a Ana'
p621
(F32.3123157
F-106.7783374
tp622
sS'McKinley'
p623
(F35.4250259
F-108.3153489
tp624
ssS'TX'
p625
(dp626
S'Wilson'
p627
(F29.1335781
F-98.1561192
tp628
sS'Sherman'
p629
(F36.3361403
F-102.0721191
tp630
sS'Zapata'
p631
(F26.6381079
F-99.0955885
tp632
sS'Bowie'
p633
(F33.425125
F-94.0476882
tp634
sS'Brewster'
p635
(F30.3584919
F-103.6610115
tp636
sS'Gonzales'
p637
(F29.5241234
F-97.608052
tp638
sS'Burnet'
p639
(F30.7437957
F-98.0555763
tp640
sS'Duval'
p641
(F27.8827965
F-98.6177929
tp642
sS'Smith'
p643
(F32.3512601
F-95.3010624
tp644
sS'Chambers'
p645
(F29.8202205
F-94.3840777
tp646
sS'Montgomery'
p647
(F30.3882613
F-95.6963355
tp648
sS'Tyler'
p649
(F30.5765947
F-94.176299
tp650
sS'Hill'
p651
(F32.1426501
F-97.3972382
tp652
sS'Schleicher'
p653
(F30.8601745
F-100.6009299
tp654
sS'Robertson'
p655
(F30.7293628
F-96.490244
tp656
sS'Hudspeth'
p657
(F31.9387239
F-105.2013454
tp658
sS'La Salle'
p659
(F28.436934
F-99.2350322
tp660
sS'Trinity'
p661
(F31.0549071
F-95.1257691
tp662
sS'Henderson'
p663
(F32.3345888
F-96.1513627
tp664
sS'Brown'
p665
(F31.7093197
F-98.9911611
tp666
sS'Sabine'
p667
(F31.245743
F-93.7687929
tp668
sS'Angelina'
p669
(F31.3382406
F-94.729097
tp670
sS'Goliad'
p671
(F28.7697115
F-97.2966582
tp672
sS'Upton'
p673
(F31.2226477
F-101.9379085
tp674
sS'Live Oak'
p675
(F28.4602717
F-98.1825071
tp676
sS'Hockley'
p677
(F33.5873164
F-102.37796
tp678
sS'Victoria'
p679
(F28.8052674
F-97.0035982
tp680
sS'Montague'
p681
(F33.5589953
F-97.8486457
tp682
sS'El Paso'
p683
(F31.7587198
F-106.4869314
tp684
sS'Harris'
p685
(F29.7857853
F-95.8243956
tp686
sS'Coryell'
p687
(F31.124062
F-97.9030785
tp688
sS'Shackelford'
p689
(F32.5476245
F-99.1659072
tp690
sS'Matagorda'
p691
(F28.9827565
F-95.969402
tp692
sS'Palo Pinto'
p693
(F32.8084605
F-98.1128223
tp694
sS'Uvalde'
p695
(F29.6152274
F-99.5269927
tp696
sS'Titus'
p697
(F33.2445617
F-94.9457685
tp698
sS'Camp'
p699
(F32.9954021
F-94.9657688
tp700
sS'Navarro'
p701
(F32.0954304
F-96.4688727
tp702
sS'Burleson'
p703
(F30.5313152
F-96.6930303
tp704
sS'Tarrant'
p705
(F32.735687
F-97.1080656
tp706
sS'San Jacinto'
p707
(F30.483259
F-95.193549
tp708
sS'Erath'
p709
(F32.3881918
F-98.1672639
tp710
sS'Upshur'
p711
(F32.7287472
F-94.9424379
tp712
sS'Colorado'
p713
(F29.7030111
F-96.7805333
tp714
sS'Parker'
p715
(F32.9659566
F-97.6836384
tp716
sS'Aransas'
p717
(F28.0205733
F-97.0544341
tp718
sS'Stephens'
p719
(F32.5823465
F-99.0567378
tp720
sS'Armstrong'
p721
(F35.1117176
F-101.3632223
tp722
sS'Freestone'
p723
(F31.7246128
F-96.1652482
tp724
sS'Panola'
p725
(F32.1573841
F-94.3374199
tp726
sS'Washington'
p727
(F30.1821602
F-96.5955277
tp728
sS'Hall'
p729
(F34.7247758
F-100.5340144
tp730
sS'Milam'
p731
(F30.8532454
F-96.9769304
tp732
sS'Marion'
p733
(F32.7876413
F-94.0735169
tp734
sS'Jasper'
p735
(F30.9201995
F-93.9965759
tp736
sS'Lampasas'
p737
(F31.063784
F-98.1816957
tp738
sS'Hemphill'
p739
(F35.91282
F-100.3820772
tp740
sS'San Augustine'
p741
(F31.3068546
F-94.2690876
tp742
sS'Polk'
p743
(F30.711029
F-94.9329898
tp744
sS'Newton'
p745
(F30.9999178
F-93.6679539
tp746
sS'Jackson'
p747
(F28.9785947
F-96.6460877
tp748
sS'Kent'
p749
(F33.2481485
F-100.5737264
tp750
sS'Howard'
p751
(F32.250398
F-101.4787356
tp752
sS'Caldwell'
p753
(F29.8454994
F-97.8408364
tp754
sS'Potter'
p755
(F35.2219971
F-101.8312969
tp756
sS'Deaf Smith'
p757
(F34.8150622
F-102.3977036
tp758
sS'Mills'
p759
(F31.4704394
F-98.4089282
tp760
sS'Liberty'
p761
(F30.4527067
F-94.7688162
tp762
sS'Mason'
p763
(F30.7487884
F-99.230611
tp764
sS'Anderson'
p765
(F31.6251747
F-95.5793977
tp766
sS'Jefferson'
p767
(F30.0860459
F-94.1018461
tp768
sS'Dickens'
p769
(F33.4764767
F-100.8556857
tp770
sS'Orange'
p771
(F30.1316001
F-94.0154542
tp772
sS'Hardin'
p773
(F30.3715975
F-94.3124116
tp774
sS'Nacogdoches'
p775
(F31.6035129
F-94.6554874
tp776
sS'Lamar'
p777
(F33.6631622
F-95.4624548
tp778
sS'Lee'
p779
(F30.4190974
F-97.0116515
tp780
sS'Maverick'
p781
(F28.7091433
F-100.4995214
tp782
sS'DeWitt'
p783
(F29.0938652
F-97.2891568
tp784
sS'Crockett'
p785
(F30.7101731
F-101.2006665
tp786
sS'Jeff Davis'
p787
(F30.5882111
F-103.8946253
tp788
sS'Terry'
p789
(F33.1812035
F-102.2743489
tp790
sS'Randall'
p791
(F34.9803342
F-101.9188024
tp792
sS'Ward'
p793
(F31.4612451
F-103.3937815
tp794
sS'Reeves'
p795
(F31.3693022
F-103.5379529
tp796
sS'Rusk'
p797
(F32.3312646
F-94.7924352
tp798
sS'Johnson'
p799
(F32.5420821
F-97.3208492
tp800
sS'Hopkins'
p801
(F33.0167863
F-95.3674472
tp802
sS'Kerr'
p803
(F30.0474332
F-99.1403189
tp804
sS'Stonewall'
p805
(F33.1334307
F-100.2273276
tp806
sS'Archer'
p807
(F33.5956593
F-98.6256128
tp808
sS'Clay'
p809
(F33.9503748
F-98.34616
tp810
sS'Comal'
p811
(F29.8752177
F-98.2625127
tp812
sS'Webb'
p813
(F27.506407
F-99.5075421
tp814
sS'Winkler'
p815
(F31.8576265
F-103.0926653
tp816
sS'Madison'
p817
(F31.0837966
F-95.925232
tp818
sS'Taylor'
p819
(F32.4487364
F-99.7331439
tp820
sS'Van Zandt'
p821
(F32.4459745
F-95.7038521
tp822
sS'Briscoe'
p823
(F34.350345
F-101.3304383
tp824
sS'Collingsworth'
p825
(F34.856166
F-100.2137263
tp826
sS'Travis'
p827
(F30.267153
F-97.7430608
tp828
sS'Cameron'
p829
(F26.0395222
F-97.5563763
tp830
sS'Nueces'
p831
(F27.8005828
F-97.396381
tp832
sS'Dawson'
p833
(F32.7376001
F-101.9509921
tp834
sS'Hidalgo'
p835
(F26.2034071
F-98.2300124
tp836
sS'Gillespie'
p837
(F30.2752011
F-98.8719843
tp838
sS'Lamb'
p839
(F33.9173148
F-102.3249022
tp840
sS'Bexar'
p841
(F29.4241219
F-98.4936282
tp842
sS'McCulloch'
p843
(F31.1351682
F-99.3350553
tp844
sS'Midland'
p845
(F31.9973456
F-102.0779147
tp846
sS'Blanco'
p847
(F30.4315837
F-98.3447448
tp848
sS'Cherokee'
p849
(F31.963778
F-95.2705042
tp850
sS'Collin'
p851
(F33.078174
F-96.4952654
tp852
sS'Red River'
p853
(F33.4706656
F-95.2138351
tp854
sS'Dallas'
p855
(F32.7830556
F-96.8066667
tp856
sS'Guadalupe'
p857
(F29.561618
F-98.2269553
tp858
sS'McLennan'
p859
(F31.4623902
F-97.1958377
tp860
sS'Starr'
p861
(F26.6681128
F-98.5644646
tp862
sS'Shelby'
p863
(F31.7954512
F-94.1790862
tp864
sS'Tom Green'
p865
(F31.4637723
F-100.4370375
tp866
sS'Frio'
p867
(F28.8921939
F-99.095033
tp868
sS'Hamilton'
p869
(F31.802096
F-98.1897589
tp870
sS'Gregg'
p871
(F32.5365333
F-94.9427169
tp872
sS'Pecos'
p873
(F30.8940431
F-102.8793222
tp874
sS'Fayette'
p875
(F30.1493838
F-96.6860862
tp876
sS'Medina'
p877
(F29.5441184
F-98.923085
tp878
sS'Wharton'
p879
(F29.1133102
F-96.3244109
tp880
sS'San Saba'
p881
(F31.1618339
F-98.9092119
tp882
sS'Zavala'
p883
(F28.9410814
F-99.8497801
tp884
sS'Garza'
p885
(F33.1909283
F-101.3781941
tp886
sS'Bosque'
p887
(F32.0576479
F-97.7494711
tp888
sS'Jim Wells'
p889
(F27.7522487
F-98.0697249
tp890
sS'Kinney'
p891
(F29.3105125
F-100.4178563
tp892
sS'Kendall'
p893
(F29.967715
F-98.9050337
tp894
sS'Eastland'
p895
(F32.0959745
F-98.963671
tp896
sS'Jack'
p897
(F33.2184477
F-98.1586558
tp898
sS'Hutchinson'
p899
(F35.6397656
F-101.603228
tp900
sS'Jim Hogg'
p901
(F27.3067057
F-98.6783517
tp902
sS'Bee'
p903
(F28.4008319
F-97.7483312
tp904
sS'Lavaca'
p905
(F29.4438528
F-96.9410929
tp906
sS'Somervell'
p907
(F32.2345872
F-97.7553061
tp908
sS'Franklin'
p909
(F33.0440087
F-95.2691103
tp910
sS'Fisher'
p911
(F32.7987176
F-100.5084432
tp912
sS'Walker'
p913
(F30.7235263
F-95.5507771
tp914
sS'Austin'
p915
(F0.0
F0.0
tp916
sS'Llano'
p917
(F30.6776836
F-98.5214209
tp918
sS'Bell'
p919
(F31.0835102
F-97.6597377
tp920
sS'Floyd'
p921
(F34.1434068
F-101.2043197
tp922
sS'Reagan'
p923
(F31.1915437
F-101.4603945
tp924
sS'Leon'
p925
(F31.0749073
F-96.1427375
tp926
sS'Kaufman'
p927
(F32.7359626
F-96.2752569
tp928
sS'Bandera'
p929
(F29.7266131
F-99.0736462
tp930
sS'Harrison'
p931
(F32.6165355
F-94.3193601
tp932
sS'Brazoria'
p933
(F29.5635666
F-95.2860474
tp934
sS'Hardeman'
p935
(F34.2564709
F-99.5167558
tp936
sS'San Patricio'
p937
(F27.8778026
F-97.211657
tp938
sS'Hood'
p939
(F32.4420826
F-97.7941967
tp940
sS'Denton'
p941
(F33.046233
F-96.994174
tp942
sS'Rockwall'
p943
(F32.9751204
F-96.3324817
tp944
sS'Ellis'
p945
(F32.5265264
F-96.8863898
tp946
sS'Sutton'
p947
(F30.5668484
F-100.6434273
tp948
sS'Galveston'
p949
(F29.3685674
F-94.9713134
tp950
sS'Lubbock'
p951
(F33.7659165
F-101.9576725
tp952
sS'Edwards'
p953
(F29.7935494
F-100.6748151
tp954
sS'Wood'
p955
(F32.9265125
F-95.3249464
tp956
sS'Roberts'
p957
(F35.6914327
F-100.6381933
tp958
sS'Coleman'
p959
(F31.6768186
F-99.253666
tp960
sS'Real'
p961
(F29.7288351
F-99.761448
tp962
sS'Williamson'
p963
(F30.6379733
F-97.5408381
tp964
sS'Runnels'
p965
(F31.9565343
F-99.962313
tp966
sS'Borden'
p967
(F32.8703796
F-101.6301417
tp968
sS'Brazos'
p969
(F30.627977
F-96.3344068
tp970
sS'Falls'
p971
(F31.0729608
F-96.9785993
tp972
sS'Hale'
p973
(F33.8695249
F-101.5973877
tp974
sS'Andrews'
p975
(F32.3187158
F-102.5457155
tp976
sS'Wheeler'
p977
(F35.6058803
F-100.1006736
tp978
sS'Ector'
p979
(F31.8456816
F-102.3676431
tp980
sS'Jones'
p981
(F32.7565042
F-99.896207
tp982
sS'Lynn'
p983
(F33.166758
F-102.0498903
tp984
sS'Wise'
p985
(F33.0534563
F-97.4719662
tp986
sS'Fort Bend'
p987
(F29.6196787
F-95.6349463
tp988
sS'Hays'
p989
(F30.1902067
F-98.0866781
tp990
sS'Hunt'
p991
(F32.9103998
F-96.1355295
tp992
sS'Wichita'
p993
(F33.9137085
F-98.4933873
tp994
sS'Willacy'
p995
(F26.5547883
F-97.4249807
tp996
sS'Concho'
p997
(F31.508491
F-99.9200779
tp998
sS'Grayson'
p999
(F33.4478881
F-96.747494
tp1000
sS'Cass'
p1001
(F32.8998554
F-94.5563119
tp1002
sS'Waller'
p1003
(F30.0688308
F-96.1141262
tp1004
sS'Yoakum'
p1005
(F33.2570508
F-103.0591102
tp1006
sS'Rains'
p1007
(F32.874566
F-95.7655183
tp1008
sS'Kleberg'
p1009
(F27.5158689
F-97.856109
tp1010
sS'Mitchell'
p1011
(F32.3881745
F-100.8645576
tp1012
sS'Wilbarger'
p1013
(F34.1545306
F-99.2650804
tp1014
sS'Grimes'
p1015
(F30.3879845
F-96.0877349
tp1016
sS'Comanche'
p1017
(F31.8973693
F-98.6036581
tp1018
sS'Houston'
p1019
(F31.2232382
F-95.2616055
tp1020
sS'Limestone'
p1021
(F31.5979455
F-96.776656
tp1022
sS'Val Verde'
p1023
(F29.3627296
F-100.896761
tp1024
sS'Presidio'
p1025
(F29.5607383
F-104.3721465
tp1026
sS'Atascosa'
p1027
(F28.967194
F-98.4786269
tp1028
sS'Fannin'
p1029
(F33.6520481
F-96.1797013
tp1030
sS'Gray'
p1031
(F35.5361559
F-100.9598709
tp1032
sS'Kimble'
p1033
(F30.4893555
F-99.7720109
tp1034
sS'Haskell'
p1035
(F33.0203845
F-99.8239825
tp1036
sS'Bastrop'
p1037
(F30.0085542
F-97.1594321
tp1038
sS'Callahan'
p1039
(F32.2587418
F-99.5395219
tp1040
sS'Cooke'
p1041
(F33.6259414
F-97.1333453
tp1042
ssS'LA'
p1043
(dp1044
S'Orleans'
p1045
(F29.9546482
F-90.075072
tp1046
sS'Jackson'
p1047
(F32.2412672
F-92.7159854
tp1048
sS'Richland'
p1049
(F32.4865316
F-91.8592945
tp1050
sS'Grant'
p1051
(F31.5257321
F-92.4070823
tp1052
sS'St. Bernard'
p1053
(F29.8957605
F-89.8978439
tp1054
sS'Plaquemines'
p1055
(F29.277165
F-89.3547759
tp1056
sS'Tangipahoa'
p1057
(F30.4388041
F-90.4414762
tp1058
sS'Jefferson'
p1059
(F29.9146493
F-90.0539604
tp1060
sS'St. John the Baptist'
p1061
(F30.023536
F-90.5711981
tp1062
sS'Jefferson Davis'
p1063
(F30.235485
F-92.9215367
tp1064
sS'St. Mary'
p1065
(F29.6993748
F-91.20677
tp1066
sS'Webster'
p1067
(F32.9415284
F-93.2987799
tp1068
sS'La Salle'
p1069
(F31.6832271
F-92.1337448
tp1070
sS'De Soto'
p1071
(F32.0376629
F-93.7001819
tp1072
sS'Terrebonne'
p1073
(F29.5957696
F-90.7195348
tp1074
sS'Ouachita'
p1075
(F32.5184775
F-92.1476353
tp1076
sS'Allen'
p1077
(F30.485479
F-92.850703
tp1078
sS'East Feliciana'
p1079
(F30.7912935
F-91.1306623
tp1080
sS'Caldwell'
p1081
(F32.1051567
F-92.0779129
tp1082
sS'St. James'
p1083
(F30.0263132
F-90.7131467
tp1084
sS'St. Tammany'
p1085
(F30.6301889
F-90.1873048
tp1086
sS'Union'
p1087
(F32.9015214
F-92.2420822
tp1088
sS'Acadia'
p1089
(F30.4029776
F-92.2151256
tp1090
sS'Caddo'
p1091
(F32.5251516
F-93.7501789
tp1092
sS'Lincoln'
p1093
(F32.5232053
F-92.637927
tp1094
sS'Natchitoches'
p1095
(F31.7582195
F-93.150166
tp1096
sS'Iberia'
p1097
(F30.0035365
F-91.8187285
tp1098
sS'St. Landry'
p1099
(F30.4943669
F-92.4176324
tp1100
sS'St. Charles'
p1101
(F29.8238196
F-90.4750838
tp1102
sS'East Carroll'
p1103
(F32.8042966
F-91.170109
tp1104
sS'Lafourche'
p1105
(F29.5427168
F-90.3381361
tp1106
sS'Sabine'
p1107
(F31.5687848
F-93.4840645
tp1108
sS'Calcasieu'
p1109
(F30.2265949
F-93.2173759
tp1110
sS'Rapides'
p1111
(F31.3112936
F-92.4451371
tp1112
sS'Livingston'
p1113
(F30.4868564
F-90.9562125
tp1114
sS'St. Martin'
p1115
(F30.2735323
F-91.8992837
tp1116
sS'Franklin'
p1117
(F32.1632079
F-91.720681
tp1118
sS'Pointe Coupee'
p1119
(F30.5590803
F-91.555945
tp1120
sS'Morehouse'
p1121
(F32.7562463
F-91.8723497
tp1122
sS'Beauregard'
p1123
(F30.8463055
F-93.2890528
tp1124
sS'Bossier'
p1125
(F32.5326514
F-93.5040627
tp1126
sS'West Baton Rouge'
p1127
(F30.3943588
F-91.2537199
tp1128
sS'East Baton Rouge'
p1129
(F30.4507462
F-91.154551
tp1130
sS'Washington'
p1131
(F30.7910204
F-89.8486858
tp1132
sS'Avoyelles'
p1133
(F31.2482404
F-92.2098516
tp1134
sS'Vermilion'
p1135
(F29.997984
F-92.2848515
tp1136
sS'Ascension'
p1137
(F30.2385294
F-90.9200987
tp1138
sS'Bienville'
p1139
(F32.2532134
F-93.1657218
tp1140
sS'Assumption'
p1141
(F29.9404803
F-91.0248214
tp1142
sS'Cameron'
p1143
(F29.9960464
F-93.3420996
tp1144
sS'Lafayette'
p1145
(F30.2240897
F-92.0198427
tp1146
sS'Iberville'
p1147
(F30.2890833
F-91.2342744
tp1148
ssS'NC'
p1149
(dp1150
S'Wilson'
p1151
(F35.7212689
F-77.9155395
tp1152
sS'Currituck'
p1153
(F36.3812697
F-75.8329731
tp1154
sS'Union'
p1155
(F34.9854275
F-80.5495112
tp1156
sS'Bladen'
p1157
(F34.640449
F-78.4838952
tp1158
sS'Montgomery'
p1159
(F35.3584743
F-79.8944901
tp1160
sS'Wayne'
p1161
(F35.3848841
F-77.9927651
tp1162
sS'Robeson'
p1163
(F34.9026635
F-79.0116971
tp1164
sS'Brunswick'
p1165
(F33.9732275
F-78.3858371
tp1166
sS'Henderson'
p1167
(F35.3456701
F-82.6023453
tp1168
sS'Anson'
p1169
(F35.1123727
F-80.2445063
tp1170
sS'Catawba'
p1171
(F35.6698552
F-81.2214708
tp1172
sS'Yadkin'
p1173
(F36.1345807
F-80.6595079
tp1174
sS'Stokes'
p1175
(F36.3293051
F-80.4331116
tp1176
sS'Pasquotank'
p1177
(F36.2946008
F-76.2510461
tp1178
sS'Hoke'
p1179
(F34.9809996
F-79.2241998
tp1180
sS'Wilkes'
p1181
(F36.1584651
F-81.1475841
tp1182
sS'Alamance'
p1183
(F36.0956918
F-79.4377991
tp1184
sS'Moore'
p1185
(F35.3459867
F-79.4169711
tp1186
sS'Washington'
p1187
(F35.8779403
F-76.6152183
tp1188
sS'Duplin'
p1189
(F35.1162764
F-78.1361033
tp1190
sS'Cabarrus'
p1191
(F35.4873613
F-80.6217341
tp1192
sS'Camden'
p1193
(F36.4601534
F-76.393276
tp1194
sS'New Hanover'
p1195
(F34.2257256
F-77.9447102
tp1196
sS'Polk'
p1197
(F35.2081695
F-82.2384479
tp1198
sS'Warren'
p1199
(F36.3984804
F-78.1552706
tp1200
sS'Watauga'
p1201
(F36.216795
F-81.6745517
tp1202
sS'Jackson'
p1203
(F35.3737111
F-83.2259803
tp1204
sS'Transylvania'
p1205
(F35.2542808
F-82.7001242
tp1206
sS'Caldwell'
p1207
(F35.7965205
F-81.4306458
tp1208
sS'Onslow'
p1209
(F34.7540524
F-77.4302415
tp1210
sS'Granville'
p1211
(F36.3107004
F-78.5908345
tp1212
sS'Orange'
p1213
(F35.9101438
F-79.0752895
tp1214
sS'Burke'
p1215
(F35.7454071
F-81.6848188
tp1216
sS'Lee'
p1217
(F35.4798757
F-79.1802994
tp1218
sS'Avery'
p1219
(F36.0665163
F-81.8703896
tp1220
sS'Buncombe'
p1221
(F35.536498
F-82.692907
tp1222
sS'Guilford'
p1223
(F36.0726355
F-79.7919754
tp1224
sS'Durham'
p1225
(F35.9940329
F-78.898619
tp1226
sS'Wake'
p1227
(F35.772096
F-78.6386145
tp1228
sS'Chatham'
p1229
(F35.7234734
F-79.4622431
tp1230
sS'Beaufort'
p1231
(F35.5465517
F-77.0521742
tp1232
sS'Vance'
p1233
(F36.3295905
F-78.3991638
tp1234
sS'Rutherford'
p1235
(F35.3601212
F-81.929271
tp1236
sS'Harnett'
p1237
(F35.42516
F-78.8147409
tp1238
sS'Davie'
p1239
(F35.9412482
F-80.4092217
tp1240
sS'Pender'
p1241
(F34.4626671
F-78.1011055
tp1242
sS'Forsyth'
p1243
(F36.1198589
F-80.0736533
tp1244
sS'Clay'
p1245
(F35.0462004
F-83.8179527
tp1246
sS'Macon'
p1247
(F35.1823171
F-83.3815429
tp1248
sS'Madison'
p1249
(F35.7973284
F-82.6840252
tp1250
sS'Gaston'
p1251
(F35.3398565
F-81.3220272
tp1252
sS'Northampton'
p1253
(F36.4370974
F-77.2288563
tp1254
sS'Hyde'
p1255
(F35.1146152
F-75.9810097
tp1256
sS'Stanly'
p1257
(F35.4431965
F-80.2192225
tp1258
sS'Lenoir'
p1259
(F35.2626635
F-77.5816353
tp1260
sS'Cherokee'
p1261
(F35.1231345
F-84.2940873
tp1262
sS'Scotland'
p1263
(F34.8879397
F-79.3661515
tp1264
sS'Richmond'
p1265
(F34.9393201
F-79.7739457
tp1266
sS'Davidson'
p1267
(F35.8826369
F-80.0819879
tp1268
sS'Columbus'
p1269
(F34.3387802
F-78.7030721
tp1270
sS'Mecklenburg'
p1271
(F35.2270869
F-80.8431268
tp1272
sS'Bertie'
p1273
(F36.2296005
F-77.1141282
tp1274
sS'Alexander'
p1275
(F35.9037438
F-81.0906356
tp1276
sS'Lincoln'
p1277
(F35.5545766
F-81.5028683
tp1278
sS'Sampson'
p1279
(F34.9829465
F-78.4166696
tp1280
sS'Edgecombe'
p1281
(F35.9098789
F-77.5452497
tp1282
sS'Ashe'
p1283
(F36.420403
F-81.4734376
tp1284
sS'Craven'
p1285
(F34.8790492
F-76.9013301
tp1286
sS'Iredell'
p1287
(F35.7826363
F-80.8872959
tp1288
sS'Franklin'
p1289
(F36.0248732
F-78.4744439
tp1290
sS'Carteret'
p1291
(F34.7993274
F-76.909386
tp1292
sS'Johnston'
p1293
(F35.650711
F-78.4563914
tp1294
sS'Nash'
p1295
(F35.9382103
F-77.790534
tp1296
sS'Caswell'
p1297
(F36.394584
F-79.1544596
tp1298
sS'Cleveland'
p1299
(F35.2923513
F-81.5356463
tp1300
sS'Halifax'
p1301
(F36.4648726
F-77.6797027
tp1302
sS'Cumberland'
p1303
(F35.0526641
F-78.8783585
tp1304
sS'Rockingham'
p1305
(F36.385415
F-79.959485
tp1306
sS'Rowan'
p1307
(F35.7212505
F-80.4989482
tp1308
sS'McDowell'
p1309
(F35.6840131
F-82.0092745
tp1310
sS'Haywood'
p1311
(F35.5278815
F-82.9595811
tp1312
sS'Pamlico'
p1313
(F35.0257168
F-76.8254925
tp1314
sS'Dare'
p1315
(F36.0307226
F-75.6760101
tp1316
sS'Jones'
p1317
(F35.0671046
F-77.352737
tp1318
sS'Pitt'
p1319
(F35.3726629
F-77.4374642
tp1320
sS'Martin'
p1321
(F35.9637687
F-77.3080209
tp1322
sS'Mitchell'
p1323
(F35.9154007
F-82.0645611
tp1324
sS'Gates'
p1325
(F36.4273762
F-76.8532909
tp1326
sS'Person'
p1327
(F36.4459737
F-79.0664018
tp1328
sS'Yancey'
p1329
(F35.9173358
F-82.300961
tp1330
sS'Surry'
p1331
(F36.4893004
F-80.6336757
tp1332
sS'Perquimans'
p1333
(F36.1459923
F-76.410772
tp1334
sS'Randolph'
p1335
(F35.7079146
F-79.8136446
tp1336
ssS'ND'
p1337
(dp1338
S'Stutsman'
p1339
(F46.9105438
F-98.7084357
tp1340
sS'Richland'
p1341
(F46.4694065
F-96.8745267
tp1342
sS'Kidder'
p1343
(F47.1435993
F-99.9945518
tp1344
sS'Stark'
p1345
(F46.8838957
F-102.3157292
tp1346
sS'Grand Forks'
p1347
(F47.9252568
F-97.0328547
tp1348
sS'Williams'
p1349
(F48.1469683
F-103.6179745
tp1350
sS'Dunn'
p1351
(F47.3544535
F-102.3360118
tp1352
sS'Ramsey'
p1353
(F48.2216668
F-99.0890209
tp1354
sS'Ward'
p1355
(F48.2325095
F-101.2962732
tp1356
sS'Benson'
p1357
(F47.9799986
F-98.9929005
tp1358
sS'McLean'
p1359
(F47.6522225
F-101.4157165
tp1360
sS'Sioux'
p1361
(F46.0869408
F-100.6301271
tp1362
sS'Rolette'
p1363
(F48.8391713
F-99.7448688
tp1364
sS'Cass'
p1365
(F46.8771863
F-96.7898034
tp1366
sS'Cavalier'
p1367
(F48.7600007
F-98.3681728
tp1368
sS'Steele'
p1369
(F47.3222102
F-97.7223196
tp1370
sS'Logan'
p1371
(F46.5083133
F-99.7712195
tp1372
sS'Traill'
p1373
(F47.4980408
F-97.3245354
tp1374
sS'Emmons'
p1375
(F46.4847126
F-100.2795573
tp1376
sS'Morton'
p1377
(F46.8266603
F-100.8895762
tp1378
sS'Mercer'
p1379
(F47.2944481
F-101.622665
tp1380
sS'Burleigh'
p1381
(F46.8083268
F-100.7837392
tp1382
ssS'NE'
p1383
(dp1384
S'Lancaster'
p1385
(F40.8000011
F-96.6669599
tp1386
sS'Box Butte'
p1387
(F42.1016344
F-102.872145
tp1388
sS'Frontier'
p1389
(F40.6625066
F-100.0295705
tp1390
sS'Pierce'
p1391
(F42.3600032
F-97.5967282
tp1392
sS'Cherry'
p1393
(F42.6386118
F-100.2381825
tp1394
sS'Otoe'
p1395
(F40.7236135
F-96.1169524
tp1396
sS'Douglas'
p1397
(F41.2586096
F-95.937792
tp1398
sS'Gage'
p1399
(F40.2680555
F-96.7469704
tp1400
sS'Wayne'
p1401
(F42.2305588
F-97.0178236
tp1402
sS'Dixon'
p1403
(F42.5624971
F-96.7055918
tp1404
sS'Hooker'
p1405
(F42.0427753
F-101.0426593
tp1406
sS'Valley'
p1407
(F41.6033429
F-98.9261987
tp1408
sS'Dodge'
p1409
(F41.4619485
F-96.7797515
tp1410
sS'Brown'
p1411
(F42.5499993
F-99.8626236
tp1412
sS'Stanton'
p1413
(F41.950284
F-97.2239336
tp1414
sS'Sarpy'
p1415
(F41.1544433
F-96.0422378
tp1416
sS'Thurston'
p1417
(F42.2358272
F-96.4725338
tp1418
sS'Buffalo'
p1419
(F40.699457
F-99.0814767
tp1420
sS'Holt'
p1421
(F42.4755589
F-98.8062032
tp1422
sS'Burt'
p1423
(F41.8358265
F-96.4669709
tp1424
sS'Merrick'
p1425
(F41.3089032
F-97.6578294
tp1426
sS'Hamilton'
p1427
(F40.8789014
F-97.8858867
tp1428
sS'York'
p1429
(F40.8680673
F-97.5919955
tp1430
sS'Cedar'
p1431
(F42.3786127
F-97.3570005
tp1432
sS'Knox'
p1433
(F42.7119455
F-98.074517
tp1434
sS'Cuming'
p1435
(F41.8416659
F-96.7086432
tp1436
sS'Keith'
p1437
(F41.1280481
F-101.7196184
tp1438
sS'Hall'
p1439
(F40.9250123
F-98.3420068
tp1440
sS'Scotts Bluff'
p1441
(F41.8666341
F-103.6671662
tp1442
sS'Lincoln'
p1443
(F41.1238873
F-100.7654232
tp1444
sS'Hitchcock'
p1445
(F40.3491653
F-101.1076608
tp1446
sS'Adams'
p1447
(F40.6211255
F-98.6575705
tp1448
sS'Johnson'
p1449
(F40.3666666
F-96.19612
tp1450
sS'Custer'
p1451
(F41.5565728
F-99.2407465
tp1452
sS'Arthur'
p1453
(F41.5716538
F-101.691565
tp1454
sS'Franklin'
p1455
(F40.0961242
F-98.9525807
tp1456
sS'Cass'
p1457
(F41.0113881
F-95.8822312
tp1458
sS'Clay'
p1459
(F40.3547334
F-98.1386573
tp1460
sS'Richardson'
p1461
(F40.0608352
F-95.6019294
tp1462
sS'Kearney'
p1463
(F40.4986252
F-98.9478594
tp1464
sS'Seward'
p1465
(F40.7744509
F-97.0505887
tp1466
sS'Keya Paha'
p1467
(F42.8244444
F-99.7490055
tp1468
sS'Fillmore'
p1469
(F40.6441737
F-97.4503271
tp1470
sS'Saunders'
p1471
(F41.0572232
F-96.6447377
tp1472
sS'Platte'
p1473
(F41.6916753
F-97.4844907
tp1474
sS'Greeley'
p1475
(F41.6889002
F-98.363404
tp1476
sS'Red Willow'
p1477
(F40.2019477
F-100.6257077
tp1478
sS'Washington'
p1479
(F41.4558282
F-96.0264024
tp1480
sS'Boyd'
p1481
(F42.9113874
F-98.8492562
tp1482
sS'Garfield'
p1483
(F41.7816732
F-99.1331539
tp1484
sS'Dawes'
p1485
(F42.8294187
F-102.999907
tp1486
sS'Dakota'
p1487
(F42.4155496
F-96.4183637
tp1488
sS'Polk'
p1489
(F41.1797366
F-97.5475501
tp1490
sS'Cheyenne'
p1491
(F41.1427623
F-102.9779785
tp1492
ssS'TN'
p1493
(dp1494
S'Wilson'
p1495
(F36.200055
F-86.5186054
tp1496
sS'Blount'
p1497
(F35.8275832
F-83.9407373
tp1498
sS'Shelby'
p1499
(F35.1495343
F-90.0489801
tp1500
sS'Union'
p1501
(F36.3436912
F-83.8040793
tp1502
sS'Smith'
p1503
(F36.2522766
F-85.951654
tp1504
sS'Montgomery'
p1505
(F36.5297706
F-87.3594529
tp1506
sS'Wayne'
p1507
(F35.0442495
F-87.6758589
tp1508
sS'Robertson'
p1509
(F36.5092119
F-86.8849984
tp1510
sS'White'
p1511
(F36.0050647
F-85.3885844
tp1512
sS'Hamblen'
p1513
(F36.2139814
F-83.2948922
tp1514
sS'Henderson'
p1515
(F35.681736
F-88.5692191
tp1516
sS'Weakley'
p1517
(F36.4033929
F-88.5872732
tp1518
sS'Dickson'
p1519
(F36.0533943
F-87.3125104
tp1520
sS'Bedford'
p1521
(F35.5272954
F-86.3336043
tp1522
sS'Obion'
p1523
(F36.4242303
F-89.0570096
tp1524
sS'Humphreys'
p1525
(F36.0839489
F-87.794747
tp1526
sS'Henry'
p1527
(F36.2778349
F-88.2294856
tp1528
sS'Trousdale'
p1529
(F36.3558822
F-86.2549901
tp1530
sS'Moore'
p1531
(F35.2831355
F-86.3741588
tp1532
sS'Sullivan'
p1533
(F36.548434
F-82.5618186
tp1534
sS'Maury'
p1535
(F35.6150716
F-87.0352831
tp1536
sS'Washington'
p1537
(F36.3134397
F-82.3534727
tp1538
sS'Bradley'
p1539
(F35.0514639
F-84.9585579
tp1540
sS'Marion'
p1541
(F35.0478571
F-85.6719138
tp1542
sS'Hickman'
p1543
(F35.8209003
F-87.2500097
tp1544
sS'Polk'
p1545
(F35.1742411
F-84.6535468
tp1546
sS'Warren'
p1547
(F35.6328484
F-85.7138683
tp1548
sS'Perry'
p1549
(F35.7720103
F-87.7839129
tp1550
sS'Jackson'
p1551
(F36.2753371
F-85.6583124
tp1552
sS'Anderson'
p1553
(F36.0139686
F-84.1235271
tp1554
sS'Jefferson'
p1555
(F36.0153693
F-83.4148895
tp1556
sS'Rhea'
p1557
(F35.692015
F-84.8607801
tp1558
sS'Hardin'
p1559
(F35.3700774
F-88.2939277
tp1560
sS'Putnam'
p1561
(F36.162839
F-85.5016423
tp1562
sS'Coffee'
p1563
(F35.3620235
F-86.2094342
tp1564
sS'Sevier'
p1565
(F35.7884241
F-83.5543329
tp1566
sS'Crockett'
p1567
(F35.7847949
F-89.1172883
tp1568
sS'Hamilton'
p1569
(F35.0456297
F-85.3096801
tp1570
sS'Lauderdale'
p1571
(F35.7453552
F-89.5297973
tp1572
sS'Johnson'
p1573
(F36.5320591
F-81.9465106
tp1574
sS'Rutherford'
p1575
(F35.9828413
F-86.5186045
tp1576
sS'Greene'
p1577
(F36.1631575
F-82.8309861
tp1578
sS'Overton'
p1579
(F36.2625616
F-85.3755267
tp1580
sS'Clay'
p1581
(F36.5486743
F-85.3116294
tp1582
sS'McMinn'
p1583
(F35.4428512
F-84.5929898
tp1584
sS'Gibson'
p1585
(F35.9839592
F-89.1222903
tp1586
sS'Macon'
p1587
(F36.5111574
F-86.178043
tp1588
sS'Madison'
p1589
(F35.6145169
F-88.8139469
tp1590
sS'Grainger'
p1591
(F36.3437017
F-83.284062
tp1592
sS'Hawkins'
p1593
(F36.5223207
F-82.7134921
tp1594
sS'Meigs'
p1595
(F35.5653498
F-84.7596652
tp1596
sS'Davidson'
p1597
(F36.1658899
F-86.7844432
tp1598
sS'Cheatham'
p1599
(F36.2742207
F-87.0641699
tp1600
sS'Bledsoe'
p1601
(F35.6095132
F-85.0680115
tp1602
sS'Lawrence'
p1603
(F35.2423023
F-87.3347389
tp1604
sS'Fayette'
p1605
(F35.228976
F-89.5150764
tp1606
sS'Claiborne'
p1607
(F36.45425
F-83.569352
tp1608
sS'Lincoln'
p1609
(F35.0800851
F-86.4391585
tp1610
sS'Franklin'
p1611
(F35.2706368
F-85.953036
tp1612
sS'Dyer'
p1613
(F36.0345159
F-89.3856281
tp1614
sS'Sumner'
p1615
(F36.3047735
F-86.6199957
tp1616
sS'Marshall'
p1617
(F35.5778481
F-86.6980531
tp1618
sS'Carroll'
p1619
(F35.9564512
F-88.3317132
tp1620
sS'Grundy'
p1621
(F35.2603569
F-85.7360833
tp1622
sS'Campbell'
p1623
(F36.4175798
F-84.3140995
tp1624
sS'Hardeman'
p1625
(F35.0645319
F-88.8908918
tp1626
sS'Cumberland'
p1627
(F35.9489566
F-85.0269015
tp1628
sS'Roane'
p1629
(F35.8809084
F-84.5085447
tp1630
sS'DeKalb'
p1631
(F35.8572885
F-85.7169264
tp1632
sS'Loudon'
p1633
(F35.756467
F-84.2179718
tp1634
sS'Haywood'
p1635
(F35.6117453
F-89.3575712
tp1636
sS'Williamson'
p1637
(F35.9250637
F-86.86889
tp1638
sS'Cannon'
p1639
(F35.7397918
F-86.1655473
tp1640
sS'Giles'
p1641
(F35.1998023
F-87.0308412
tp1642
sS'Knox'
p1643
(F35.9606384
F-83.9207392
tp1644
sS'Tipton'
p1645
(F35.4117501
F-89.5328538
tp1646
sS'Benton'
p1647
(F36.0928368
F-88.0055894
tp1648
sS'Pickett'
p1649
(F36.5608986
F-85.1663453
tp1650
sS'Morgan'
p1651
(F36.201463
F-84.7591131
tp1652
sS'Stewart'
p1653
(F36.5806054
F-87.7600191
tp1654
sS'Houston'
p1655
(F36.3383873
F-87.6047381
tp1656
sS'Fentress'
p1657
(F36.4997903
F-85.0060587
tp1658
sS'Carter'
p1659
(F36.2842787
F-82.1726295
tp1660
sS'Cocke'
p1661
(F35.9670412
F-83.1876578
tp1662
sS'Lewis'
p1663
(F35.5478513
F-87.5519628
tp1664
sS'Scott'
p1665
(F36.4981341
F-84.5127162
tp1666
sS'Monroe'
p1667
(F35.6014636
F-84.4610394
tp1668
ssS'NY'
p1669
(dp1670
S'Orleans'
p1671
(F43.327836
F-78.1908541
tp1672
sS'Ontario'
p1673
(F43.0320075
F-77.3322092
tp1674
sS'Albany'
p1675
(F42.6525793
F-73.7562317
tp1676
sS'Delaware'
p1677
(F42.2781401
F-74.9159946
tp1678
sS'Essex'
p1679
(F44.4406028
F-73.6881949
tp1680
sS'Broome'
p1681
(F42.0850747
F-76.053813
tp1682
sS'Montgomery'
p1683
(F42.9056288
F-74.5718073
tp1684
sS'Richmond'
p1685
(F40.5834379
F-74.1495875
tp1686
sS'St. Lawrence'
p1687
(F44.727284
F-75.3210467
tp1688
sS'Jefferson'
p1689
(F44.2153329
F-75.797165
tp1690
sS'Genesee'
p1691
(F42.9981156
F-78.1875167
tp1692
sS'Orange'
p1693
(F41.6081492
F-74.2990402
tp1694
sS'Cortland'
p1695
(F42.6011813
F-76.1804843
tp1696
sS'Cattaraugus'
p1697
(F42.1578412
F-78.7150311
tp1698
sS'Putnam'
p1699
(F41.3973163
F-73.6170721
tp1700
sS'Chautauqua'
p1701
(F42.2097798
F-79.466714
tp1702
sS'Tioga'
p1703
(F42.2097963
F-76.4932748
tp1704
sS'Columbia'
p1705
(F42.2511982
F-73.7801253
tp1706
sS'Dutchess'
p1707
(F41.7003713
F-73.9209701
tp1708
sS'Cayuga'
p1709
(F42.9317335
F-76.5660529
tp1710
sS'Otsego'
p1711
(F42.763405
F-75.2782213
tp1712
sS'Rockland'
p1713
(F41.1975947
F-73.9645837
tp1714
sS'Herkimer'
p1715
(F43.0256259
F-74.9859889
tp1716
sS'Hamilton'
p1717
(F43.7545099
F-74.7929488
tp1718
sS'Nassau'
p1719
(F40.6576022
F-73.5831835
tp1720
sS'Westchester'
p1721
(F41.204262
F-73.6437397
tp1722
sS'Queens'
p1723
(F40.7470464
F-73.8601355
tp1724
sS'Chemung'
p1725
(F42.167019
F-76.8205119
tp1726
sS'Wyoming'
p1727
(F42.6289515
F-78.0544514
tp1728
sS'Yates'
p1729
(F42.6609026
F-77.0538577
tp1730
sS'Saratoga'
p1731
(F43.0831301
F-73.7845651
tp1732
sS'Allegany'
p1733
(F42.1220125
F-77.9480575
tp1734
sS'Oneida'
p1735
(F43.2128473
F-75.4557304
tp1736
sS'Greene'
p1737
(F42.1623113
F-73.9676337
tp1738
sS'Livingston'
p1739
(F42.8711731
F-77.8852838
tp1740
sS'Rensselaer'
p1741
(F42.9145219
F-73.5137258
tp1742
sS'Franklin'
p1743
(F44.8486596
F-74.2948984
tp1744
sS'Bronx'
p1745
(F40.8552778
F-73.8863889
tp1746
sS'Chenango'
p1747
(F42.498403
F-75.7679711
tp1748
sS'Tompkins'
p1749
(F42.4406284
F-76.4966071
tp1750
sS'Fulton'
p1751
(F43.0528506
F-74.3437467
tp1752
sS'Seneca'
p1753
(F42.6764593
F-76.8230111
tp1754
sS'Madison'
p1755
(F43.0795121
F-75.7507413
tp1756
sS'Clinton'
p1757
(F44.6994873
F-73.4529124
tp1758
sS'Ulster'
p1759
(F41.8267597
F-74.1262549
tp1760
sS'Sullivan'
p1761
(F41.759814
F-74.5940484
tp1762
sS'Lewis'
p1763
(F43.9231241
F-75.3721314
tp1764
sS'Oswego'
p1765
(F43.3236802
F-76.1165902
tp1766
sS'Washington'
p1767
(F43.0281329
F-73.3812231
tp1768
sS'Schuyler'
p1769
(F42.5006271
F-76.8724586
tp1770
sS'New York'
p1771
(F40.7142691
F-74.0059729
tp1772
sS'Suffolk'
p1773
(F40.7298207
F-73.2103934
tp1774
sS'Wayne'
p1775
(F43.1392301
F-77.2722073
tp1776
sS'Niagara'
p1777
(F43.2503348
F-78.6472536
tp1778
sS'Onondaga'
p1779
(F43.0481221
F-76.1474244
tp1780
sS'Steuben'
p1781
(F42.3370164
F-77.3177577
tp1782
sS'Kings'
p1783
(F40.6751032
F-74.0095841
tp1784
sS'Erie'
p1785
(F42.978391
F-78.7997559
tp1786
sS'Schenectady'
p1787
(F42.8142432
F-73.9395687
tp1788
sS'Schoharie'
p1789
(F42.6659088
F-74.3095787
tp1790
sS'Monroe'
p1791
(F43.2122851
F-77.4299939
tp1792
sS'Warren'
p1793
(F43.4261809
F-73.7123408
tp1794
ssS'PA'
p1795
(dp1796
S'Lancaster'
p1797
(F40.2331483
F-76.1371684
tp1798
sS'Elk'
p1799
(F41.3639499
F-78.5555778
tp1800
sS'Perry'
p1801
(F40.3889725
F-77.288874
tp1802
sS'Cumberland'
p1803
(F40.0437031
F-77.1894262
tp1804
sS'Susquehanna'
p1805
(F41.7167495
F-75.4921284
tp1806
sS'Union'
p1807
(F40.9400816
F-77.0527488
tp1808
sS'Washington'
p1809
(F40.1378499
F-79.8981035
tp1810
sS'Delaware'
p1811
(F39.8301125
F-75.4415843
tp1812
sS'Philadelphia'
p1813
(F40.0556669
F-75.025171
tp1814
sS'Montgomery'
p1815
(F40.1023326
F-75.1521195
tp1816
sS'Jefferson'
p1817
(F40.9417307
F-78.9508666
tp1818
sS'Forest'
p1819
(F41.49534
F-79.4558798
tp1820
sS'Butler'
p1821
(F41.0145075
F-79.7428275
tp1822
sS'Indiana'
p1823
(F40.5434007
F-79.1622566
tp1824
sS'Somerset'
p1825
(F39.9900791
F-79.00197
tp1826
sS'Warren'
p1827
(F41.9414478
F-79.1350456
tp1828
sS'Dauphin'
p1829
(F40.2737002
F-76.8844179
tp1830
sS'Lycoming'
p1831
(F41.2411897
F-77.0010787
tp1832
sS'Juniata'
p1833
(F40.5697996
F-77.3969339
tp1834
sS'Tioga'
p1835
(F41.9861838
F-77.3108127
tp1836
sS'Montour'
p1837
(F40.96342
F-76.6127329
tp1838
sS'Columbia'
p1839
(F40.9520312
F-76.45967
tp1840
sS'Lawrence'
p1841
(F40.9533947
F-80.3828432
tp1842
sS'McKean'
p1843
(F41.810898
F-78.2797352
tp1844
sS'Crawford'
p1845
(F41.6458881
F-80.1767266
tp1846
sS'Blair'
p1847
(F40.3167419
F-78.5186269
tp1848
sS'Fayette'
p1849
(F39.8467433
F-79.8997755
tp1850
sS'Cambria'
p1851
(F40.3267407
F-78.9219698
tp1852
sS'York'
p1853
(F39.9625984
F-76.727745
tp1854
sS'Franklin'
p1855
(F39.7998154
F-77.5549904
tp1856
sS'Lebanon'
p1857
(F40.3409251
F-76.4113497
tp1858
sS'Carbon'
p1859
(F40.8442582
F-75.711023
tp1860
sS'Venango'
p1861
(F41.3978358
F-79.8314437
tp1862
sS'Luzerne'
p1863
(F40.9920288
F-75.9201999
tp1864
sS'Pike'
p1865
(F41.2200946
F-74.8712799
tp1866
sS'Bucks'
p1867
(F40.1006661
F-74.8518311
tp1868
sS'Wyoming'
p1869
(F41.4606332
F-75.8488072
tp1870
sS'Adams'
p1871
(F40.0089827
F-77.1155359
tp1872
sS'Bedford'
p1873
(F40.0742462
F-78.704464
tp1874
sS'Northumberland'
p1875
(F40.7839745
F-76.5699589
tp1876
sS'Clarion'
p1877
(F41.1272847
F-79.5408798
tp1878
sS'Greene'
p1879
(F39.8964641
F-80.1792299
tp1880
sS'Westmoreland'
p1881
(F40.4284015
F-79.697545
tp1882
sS'Snyder'
p1883
(F40.7989736
F-76.8621935
tp1884
sS'Berks'
p1885
(F40.354542
F-75.947466
tp1886
sS'Lackawanna'
p1887
(F41.408969
F-75.6624122
tp1888
sS'Erie'
p1889
(F42.1292241
F-80.085059
tp1890
sS'Clinton'
p1891
(F41.1370133
F-77.4469263
tp1892
sS'Armstrong'
p1893
(F40.9620082
F-79.6381031
tp1894
sS'Sullivan'
p1895
(F41.5345198
F-76.2863248
tp1896
sS'Mifflin'
p1897
(F40.5531301
F-77.5919368
tp1898
sS'Huntingdon'
p1899
(F40.2117469
F-78.0375031
tp1900
sS'Northampton'
p1901
(F40.6862075
F-75.4968501
tp1902
sS'Potter'
p1903
(F41.5867326
F-77.8947185
tp1904
sS'Bradford'
p1905
(F41.9789631
F-76.515499
tp1906
sS'Centre'
p1907
(F40.793395
F-77.8600013
tp1908
sS'Schuylkill'
p1909
(F40.7206451
F-76.1910536
tp1910
sS'Lehigh'
p1911
(F40.6084305
F-75.4901833
tp1912
sS'Wayne'
p1913
(F41.4539745
F-75.382681
tp1914
sS'Cameron'
p1915
(F41.5170078
F-78.2155642
tp1916
sS'Beaver'
p1917
(F40.6847887
F-80.2506165
tp1918
sS'Allegheny'
p1919
(F40.3981246
F-80.1856134
tp1920
sS'Clearfield'
p1921
(F41.0106148
F-78.6041932
tp1922
sS'Mercer'
p1923
(F41.404499
F-80.3911785
tp1924
sS'Monroe'
p1925
(F40.9867609
F-75.1946248
tp1926
sS'Chester'
p1927
(F40.0951038
F-75.6168681
tp1928
ssS'CA'
p1929
(dp1930
S'Fresno'
p1931
(F36.139678
F-120.3601496
tp1932
sS'Santa Clara'
p1933
(F37.3393857
F-121.8949555
tp1934
sS'Lake'
p1935
(F38.8221258
F-122.7230451
tp1936
sS'Imperial'
p1937
(F32.8475529
F-115.5694391
tp1938
sS'Sierra'
p1939
(F39.5896256
F-120.3674301
tp1940
sS'Madera'
p1941
(F36.9524464
F-120.2018345
tp1942
sS'Plumas'
p1943
(F39.9368363
F-120.9471764
tp1944
sS'Tuolumne'
p1945
(F37.9607582
F-120.2374109
tp1946
sS'Napa'
p1947
(F38.2971367
F-122.2855293
tp1948
sS'San Francisco'
p1949
(F37.7749295
F-122.4194155
tp1950
sS'Orange'
p1951
(F33.7091847
F-117.9536697
tp1952
sS'Tulare'
p1953
(F36.2077288
F-119.3473379
tp1954
sS'Riverside'
p1955
(F33.7825194
F-117.2286478
tp1956
sS'Alameda'
p1957
(F37.8043722
F-122.2708026
tp1958
sS'San Mateo'
p1959
(F37.4741667
F-122.1955556
tp1960
sS'Trinity'
p1961
(F40.7309778
F-122.9419708
tp1962
sS'Solano'
p1963
(F38.2493581
F-122.0399663
tp1964
sS'Sacramento'
p1965
(F38.7071247
F-121.2810611
tp1966
sS'San Diego'
p1967
(F32.7281061
F-117.2322583
tp1968
sS'Colusa'
p1969
(F39.2143343
F-122.0094175
tp1970
sS'Marin'
p1971
(F37.9871455
F-122.5888686
tp1972
sS'Santa Cruz'
p1973
(F36.9741171
F-122.0307963
tp1974
sS'Amador'
p1975
(F38.3488024
F-120.7741018
tp1976
sS'Los Angeles'
p1977
(F33.7669623
F-118.1892348
tp1978
sS'Modoc'
p1979
(F41.2398957
F-120.2805007
tp1980
sS'Lassen'
p1981
(F40.4162842
F-120.6530063
tp1982
sS'Butte'
p1983
(F39.7284945
F-121.8374777
tp1984
sS'Stanislaus'
p1985
(F37.4716001
F-121.129656
tp1986
sS'Alpine'
p1987
(F38.7026857
F-120.0726855
tp1988
sS'Shasta'
p1989
(F40.4734843
F-122.4758441
tp1990
sS'Siskiyou'
p1991
(F41.7354187
F-122.6344708
tp1992
sS'Placer'
p1993
(F38.7521235
F-121.2880059
tp1994
sS'Mono'
p1995
(F38.2557527
F-119.2312656
tp1996
sS'Contra Costa'
p1997
(F38.0279762
F-121.8846806
tp1998
sS'Del Norte'
p1999
(F41.7559481
F-124.2017474
tp2000
sS'Sutter'
p2001
(F39.1404477
F-121.6169108
tp2002
sS'Kern'
p2003
(F35.6224561
F-117.6708966
tp2004
sS'Ventura'
p2005
(F34.1975048
F-119.1770516
tp2006
sS'Calaveras'
p2007
(F38.22714
F-120.8532709
tp2008
sS'Inyo'
p2009
(F36.6060444
F-118.0628654
tp2010
sS'San Bernardino'
p2011
(F34.1063989
F-117.5931084
tp2012
sS'Monterey'
p2013
(F36.6844029
F-121.802173
tp2014
sS'Sonoma'
p2015
(F38.3396367
F-122.7010984
tp2016
sS'San Joaquin'
p2017
(F37.9552017
F-121.2585567
tp2018
sS'Humboldt'
p2019
(F40.9465152
F-124.1006205
tp2020
sS'Glenn'
p2021
(F39.7473803
F-122.1963748
tp2022
sS'Merced'
p2023
(F37.3021633
F-120.4829677
tp2024
sS'Yolo'
p2025
(F38.5804609
F-121.530234
tp2026
sS'Mariposa'
p2027
(F37.6427106
F-120.3713035
tp2028
sS'Yuba'
p2029
(F39.0954484
F-121.5521858
tp2030
sS'El Dorado'
p2031
(F38.6946259
F-120.8149355
tp2032
sS'San Luis Obispo'
p2033
(F35.0988648
F-120.612393
tp2034
sS'Mendocino'
p2035
(F39.3784978
F-123.3413984
tp2036
sS'San Benito'
p2037
(F36.8524545
F-121.4016021
tp2038
sS'Tehama'
p2039
(F40.1784886
F-122.2358302
tp2040
sS'Kings'
p2041
(F36.3007835
F-119.7829107
tp2042
sS'Nevada'
p2043
(F39.2190608
F-121.0610606
tp2044
sS'Santa Barbara'
p2045
(F34.8652574
F-120.4359966
tp2046
ssS'NV'
p2047
(dp2048
S'White Pine'
p2049
(F39.6532692
F-114.802522
tp2050
sS'Lyon'
p2051
(F39.4154714
F-119.2246073
tp2052
sS'Churchill'
p2053
(F39.4735288
F-118.7773743
tp2054
sS'Humboldt'
p2055
(F40.9729584
F-117.7356849
tp2056
sS'Clark'
p2057
(F36.1749705
F-115.137223
tp2058
sS'Pershing'
p2059
(F40.4474067
F-118.2895906
tp2060
sS'Elko'
p2061
(F40.7265927
F-115.5858953
tp2062
sS'Douglas'
p2063
(F38.9412959
F-119.7496216
tp2064
sS'Carson City (city)'
p2065
(F39.1637984
F-119.7674034
tp2066
sS'Washoe'
p2067
(F39.5296329
F-119.8138027
tp2068
sS'Mineral'
p2069
(F38.5246441
F-118.624578
tp2070
sS'Storey'
p2071
(F39.3807456
F-119.6437919
tp2072
sS'Eureka'
p2073
(F39.5127066
F-115.9606129
tp2074
sS'Lincoln'
p2075
(F37.644672
F-115.7436451
tp2076
sS'Nye'
p2077
(F38.1904897
F-116.3700542
tp2078
ssS'VA'
p2079
(dp2080
S'Roanoke'
p2081
(F37.2829156
F-79.8625371
tp2082
sS'Powhatan'
p2083
(F37.4751489
F-77.778885
tp2084
sS'Russell'
p2085
(F36.9364998
F-81.9665144
tp2086
sS'Arlington'
p2087
(F38.8731676
F-77.1266458
tp2088
sS'Charlottesville (city)'
p2089
(F38.0293059
F-78.4766781
tp2090
sS'Montgomery'
p2091
(F37.1298517
F-80.4089389
tp2092
sS'Salem (city)'
p2093
(F37.2804123
F-80.0867073
tp2094
sS'Fauquier'
p2095
(F38.7178955
F-77.6624913
tp2096
sS'Williamsburg (city)'
p2097
(F37.2707022
F-76.7074571
tp2098
sS'Franklin (city)'
p2099
(F36.6776507
F-76.9224608
tp2100
sS'Virginia Beach (city)'
p2101
(F36.7713889
F-76.1977778
tp2102
sS'Tazewell'
p2103
(F37.0753922
F-81.7087247
tp2104
sS'King George'
p2105
(F38.2681837
F-77.1844222
tp2106
sS'York'
p2107
(F37.2387556
F-76.5096731
tp2108
sS'Chesapeake (city)'
p2109
(F36.8190369
F-76.2749399
tp2110
sS'Bedford'
p2111
(F37.1381984
F-79.6178087
tp2112
sS'Roanoke (city)'
p2113
(F37.2534707
F-79.9600375
tp2114
sS'Bristol (city)'
p2115
(F36.6334414
F-82.1204086
tp2116
sS'Augusta'
p2117
(F38.0034669
F-79.1558633
tp2118
sS'Nelson'
p2119
(F37.7598637
F-78.870855
tp2120
sS'Henry'
p2121
(F36.7593037
F-79.9903195
tp2122
sS'Chesterfield'
p2123
(F37.5059814
F-77.6491578
tp2124
sS'Portsmouth (city)'
p2125
(F36.8354258
F-76.2982742
tp2126
sS'Nottoway'
p2127
(F37.1876529
F-78.2013859
tp2128
sS'Gloucester'
p2129
(F37.413752
F-76.5255062
tp2130
sS'Waynesboro (city)'
p2131
(F38.0684693
F-78.8894682
tp2132
sS'Charlotte'
p2133
(F37.0565362
F-78.638334
tp2134
sS'Washington'
p2135
(F36.7098335
F-81.9773482
tp2136
sS'Craig'
p2137
(F37.5001287
F-80.1108815
tp2138
sS'Prince George'
p2139
(F37.2973705
F-77.1308054
tp2140
sS'Warren'
p2141
(F38.9181671
F-78.1944446
tp2142
sS'Albemarle'
p2143
(F38.0431943
F-78.4419549
tp2144
sS'Fredericksburg (city)'
p2145
(F38.3031837
F-77.4605399
tp2146
sS'Orange'
p2147
(F38.2834654
F-78.0280542
tp2148
sS'Lynchburg (city)'
p2149
(F37.4137536
F-79.1422464
tp2150
sS'Caroline'
p2151
(F37.9287494
F-77.4558151
tp2152
sS'Smyth'
p2153
(F36.8815031
F-81.7620635
tp2154
sS'Culpeper'
p2155
(F38.4731815
F-77.9966639
tp2156
sS'Petersburg (city)'
p2157
(F37.2184835
F-77.4313723
tp2158
sS'Lee'
p2159
(F36.7328663
F-83.0821145
tp2160
sS'Spotsylvania'
p2161
(F38.200965
F-77.589154
tp2162
sS'Buena Vista (city)'
p2163
(F37.7343004
F-79.3539238
tp2164
sS'Richmond (city)'
p2165
(F37.5537575
F-77.4602617
tp2166
sS'Southampton'
p2167
(F36.7162613
F-77.0680195
tp2168
sS'Henrico'
p2169
(F37.5234794
F-77.3158118
tp2170
sS'Bedford (city)'
p2171
(F37.3343079
F-79.5230877
tp2172
sS'Northumberland'
p2173
(F37.9176323
F-76.4721742
tp2174
sS'Greene'
p2175
(F38.2973519
F-78.4400099
tp2176
sS'Westmoreland'
p2177
(F38.219019
F-76.9855276
tp2178
sS'Isle of Wight'
p2179
(F36.9823709
F-76.6310662
tp2180
sS'King and Queen'
p2181
(F37.7234753
F-77.0077471
tp2182
sS'Alexandria (city)'
p2183
(F38.8048356
F-77.0469214
tp2184
sS'Fairfax (city)'
p2185
(F38.8462236
F-77.3063733
tp2186
sS'Madison'
p2187
(F38.3804062
F-78.2575035
tp2188
sS'Goochland'
p2189
(F37.5848692
F-77.6833251
tp2190
sS'Loudoun'
p2191
(F39.1156615
F-77.5636015
tp2192
sS'Northampton'
p2193
(F37.3079157
F-75.9518758
tp2194
sS'Essex'
p2195
(F37.9826352
F-76.9613574
tp2196
sS'Newport News (city)'
p2197
(F36.9787588
F-76.428003
tp2198
sS'Amherst'
p2199
(F37.4309757
F-79.1230795
tp2200
sS'Falls Church (city)'
p2201
(F38.882334
F-77.1710914
tp2202
sS'Prince William'
p2203
(F38.6581723
F-77.2497049
tp2204
sS'Hampton (city)'
p2205
(F37.0298687
F-76.3452218
tp2206
sS'Clarke'
p2207
(F39.0931617
F-78.0594426
tp2208
sS'Richmond'
p2209
(F37.9587447
F-76.7580139
tp2210
sS'Wythe'
p2211
(F36.9703976
F-80.9495251
tp2212
sS'Hopewell (city)'
p2213
(F37.3043154
F-77.2872001
tp2214
sS'Accomack'
p2215
(F37.6042998
F-75.6896502
tp2216
sS'New Kent'
p2217
(F37.5176453
F-76.9788557
tp2218
sS'Shenandoah'
p2219
(F38.9887199
F-78.358616
tp2220
sS'Staunton (city)'
p2221
(F38.149576
F-79.0716958
tp2222
sS'Pittsylvania'
p2223
(F36.7468036
F-79.4639158
tp2224
sS'Covington (city)'
p2225
(F37.7934585
F-79.9939463
tp2226
sS'Patrick'
p2227
(F36.599025
F-80.5106192
tp2228
sS'Winchester (city)'
p2229
(F39.1856597
F-78.1633341
tp2230
sS'Greensville'
p2231
(F36.6118169
F-77.5466463
tp2232
sS'Franklin'
p2233
(F36.9229159
F-80.0133712
tp2234
sS'Fairfax'
p2235
(F38.8303905
F-77.1963703
tp2236
sS'Floyd'
p2237
(F36.9112443
F-80.3200502
tp2238
sS'Carroll'
p2239
(F36.8179084
F-80.6097901
tp2240
sS'Bath'
p2241
(F37.9995703
F-79.8317193
tp2242
sS'Botetourt'
p2243
(F37.4098559
F-79.9125409
tp2244
sS'Campbell'
p2245
(F37.2337555
F-79.2894688
tp2246
sS'Halifax'
p2247
(F36.5731952
F-79.0027897
tp2248
sS'Manassas (city)'
p2249
(F38.7509488
F-77.4752667
tp2250
sS'Lancaster'
p2251
(F37.7776389
F-76.513563
tp2252
sS'Poquoson (city)'
p2253
(F37.1223664
F-76.3457773
tp2254
sS'Louisa'
p2255
(F38.047638
F-77.8169377
tp2256
sS'Middlesex'
p2257
(F37.7151407
F-76.6941246
tp2258
sS'Colonial Heights (city)'
p2259
(F37.244039
F-77.4102607
tp2260
sS'Norton (city)'
p2261
(F36.933433
F-82.6290459
tp2262
sS'Rockbridge'
p2263
(F37.8929082
F-79.4378166
tp2264
sS'Pulaski'
p2265
(F37.0478982
F-80.7797935
tp2266
sS'Rockingham'
p2267
(F38.6131746
F-78.7989124
tp2268
sS'Alleghany'
p2269
(F37.816239
F-79.8244947
tp2270
sS'Radford (city)'
p2271
(F37.1317924
F-80.5764477
tp2272
sS'Prince Edward'
p2273
(F37.3020965
F-78.3919402
tp2274
sS'Giles'
p2275
(F37.3195684
F-80.6389541
tp2276
sS'Dickenson'
p2277
(F37.1501067
F-82.4559846
tp2278
sS'Harrisonburg (city)'
p2279
(F38.4495688
F-78.8689156
tp2280
sS'Danville (city)'
p2281
(F36.5859718
F-79.3950228
tp2282
sS'Stafford'
p2283
(F38.3085
F-77.4505
tp2284
sS'Hanover'
p2285
(F37.7590318
F-77.4799837
tp2286
sS'Wise'
p2287
(F36.9439917
F-82.4640401
tp2288
sS'Norfolk (city)'
p2289
(F36.8468146
F-76.2852183
tp2290
sS'Frederick'
p2291
(F39.0276078
F-78.280558
tp2292
sS'Mecklenburg'
p2293
(F36.5926409
F-78.6161132
tp2294
sS'Page'
p2295
(F38.665397
F-78.4594522
tp2296
sS'Suffolk (city)'
p2297
(F36.7282054
F-76.5835621
tp2298
sS'Surry'
p2299
(F37.1657049
F-76.9732977
tp2300
sS'Martinsville (city)'
p2301
(F36.6915262
F-79.8725386
tp2302
sS'Lexington (city)'
p2303
(F37.7840208
F-79.4428157
tp2304
sS'Scott'
p2305
(F36.6378774
F-82.5809876
tp2306
sS'King William'
p2307
(F37.6873648
F-77.0135803
tp2308
sS'Fluvanna'
p2309
(F37.9509737
F-78.2463934
tp2310
ssS'CO'
p2311
(dp2312
S'San Juan'
p2313
(F37.811941
F-107.6645057
tp2314
sS'San Miguel'
p2315
(F37.9497157
F-107.8775645
tp2316
sS'Otero'
p2317
(F37.9850091
F-103.5438321
tp2318
sS'Chaffee'
p2319
(F38.8422178
F-106.1311288
tp2320
sS'Elbert'
p2321
(F39.3602662
F-104.596915
tp2322
sS'Park'
p2323
(F39.4055449
F-105.4733328
tp2324
sS'Grand'
p2325
(F40.2522073
F-105.8230671
tp2326
sS'Dolores'
p2327
(F37.7661
F-108.9059393
tp2328
sS'Douglas'
p2329
(F39.5186002
F-104.7613634
tp2330
sS'Ouray'
p2331
(F38.1527685
F-107.7617263
tp2332
sS'Jefferson'
p2333
(F39.7047095
F-105.0813734
tp2334
sS'Cheyenne'
p2335
(F38.7611129
F-102.7893667
tp2336
sS'Kit Carson'
p2337
(F39.3036044
F-102.7429831
tp2338
sS'Gunnison'
p2339
(F38.5458246
F-106.9253207
tp2340
sS'Boulder'
p2341
(F40.1672069
F-105.1019275
tp2342
sS'Eagle'
p2343
(F39.3949838
F-107.0903259
tp2344
sS'La Plata'
p2345
(F37.27528
F-107.8800667
tp2346
sS'Custer'
p2347
(F38.134722
F-105.4658353
tp2348
sS'Clear Creek'
p2349
(F39.7424881
F-105.5136082
tp2350
sS'Montrose'
p2351
(F38.2694347
F-108.5478691
tp2352
sS'Fremont'
p2353
(F38.3655533
F-105.7577836
tp2354
sS'Saguache'
p2355
(F37.9963881
F-105.6997332
tp2356
sS'Archuleta'
p2357
(F37.26945
F-107.0097617
tp2358
sS'El Paso'
p2359
(F38.8338816
F-104.8213634
tp2360
sS'Costilla'
p2361
(F37.2139025
F-105.5644584
tp2362
sS'Delta'
p2363
(F38.9016487
F-107.926454
tp2364
sS'Conejos'
p2365
(F37.0594564
F-106.0922463
tp2366
sS'Arapahoe'
p2367
(F39.6477653
F-104.9877597
tp2368
sS'Mesa'
p2369
(F39.0638705
F-108.5506486
tp2370
sS'Yuma'
p2371
(F40.1222084
F-102.7252096
tp2372
sS'Teller'
p2373
(F38.9419355
F-105.1572091
tp2374
sS'Broomfield'
p2375
(F39.9205411
F-105.0866504
tp2376
sS'Pueblo'
p2377
(F38.3500016
F-104.7227546
tp2378
sS'Lincoln'
p2379
(F39.1361004
F-103.4699447
tp2380
sS'Alamosa'
p2381
(F37.7427776
F-105.8752987
tp2382
sS'Weld'
p2383
(F40.4233142
F-104.7091322
tp2384
sS'Adams'
p2385
(F39.7294319
F-104.8319195
tp2386
sS'Montezuma'
p2387
(F37.344996
F-108.2892487
tp2388
sS'Kiowa'
p2389
(F38.4805615
F-102.7818629
tp2390
sS'Summit'
p2391
(F39.4816537
F-106.0383518
tp2392
sS'Denver'
p2393
(F39.7391536
F-104.9847034
tp2394
sS'Morgan'
p2395
(F40.2502582
F-103.799951
tp2396
sS'Routt'
p2397
(F40.495287
F-107.257288
tp2398
sS'Huerfano'
p2399
(F37.3791796
F-105.100281
tp2400
sS'Bent'
p2401
(F38.0666735
F-103.222708
tp2402
sS'Rio Blanco'
p2403
(F40.0874759
F-108.8048292
tp2404
sS'Baca'
p2405
(F37.4083486
F-102.6143616
tp2406
sS'Pitkin'
p2407
(F39.1910983
F-106.8175387
tp2408
sS'Prowers'
p2409
(F38.0872307
F-102.6207496
tp2410
sS'Washington'
p2411
(F39.7408195
F-103.5916136
tp2412
sS'Moffat'
p2413
(F40.5152491
F-107.5464541
tp2414
sS'Rio Grande'
p2415
(F37.6700041
F-106.6397638
tp2416
sS'Logan'
p2417
(F40.6799914
F-102.8393627
tp2418
sS'Garfield'
p2419
(F39.5347023
F-107.7831198
tp2420
sS'Larimer'
p2421
(F40.3977612
F-105.0749801
tp2422
sS'Las Animas'
p2423
(F37.1694632
F-104.5005407
tp2424
ssS'AK'
p2425
(dp2426
S'Southeast Fairbanks (CA)'
p2427
(F64.0377778
F-145.7322222
tp2428
sS'Yukon-Koyukuk (CA)'
p2429
(F67.0138889
F-146.4186111
tp2430
sS'Denali'
p2431
(F63.8569444
F-148.9661111
tp2432
sS'Valdez-Cordova (CA)'
p2433
(F62.7069444
F-143.9611111
tp2434
sS'Fairbanks North Star'
p2435
(F64.8377778
F-147.7163889
tp2436
sS'Lake and Peninsula'
p2437
(F59.7567965
F-154.9110837
tp2438
sS'Haines'
p2439
(F59.228589
F-135.444114
tp2440
sS'Kenai Peninsula'
p2441
(F59.6425
F-151.5483333
tp2442
sS'Yakutat'
p2443
(F59.5469444
F-139.7272222
tp2444
sS'North Slope'
p2445
(F70.1319444
F-143.6238889
tp2446
sS'Petersburg (CA)'
p2447
(F56.8112667
F-132.9512425
tp2448
sS'Kodiak Island'
p2449
(F57.79
F-152.4072222
tp2450
sS'Wade Hampton (CA)'
p2451
(F61.5311111
F-166.0966667
tp2452
sS'Anchorage'
p2453
(F61.2180556
F-149.9002778
tp2454
sS'Juneau'
p2455
(F58.3019444
F-134.4197222
tp2456
sS'Ketchikan Gateway'
p2457
(F55.3422222
F-131.6461111
tp2458
sS'Prince of Wales-Hyder (CA)'
p2459
(F55.1291667
F-131.5722222
tp2460
sS'Nome (CA)'
p2461
(F63.6941667
F-170.4788889
tp2462
sS'Matanuska-Susitna'
p2463
(F61.5813889
F-149.4394444
tp2464
sS'Bethel (CA)'
p2465
(F60.7922222
F-161.7558333
tp2466
sS'Northwest Arctic'
p2467
(F66.8983333
F-162.5966667
tp2468
sS'Wrangell'
p2469
(F56.4708333
F-132.3766667
tp2470
ssS'AL'
p2471
(dp2472
S'Jackson'
p2473
(F34.5848086
F-86.1069246
tp2474
sS'Russell'
p2475
(F32.4709761
F-85.0007653
tp2476
sS'Blount'
p2477
(F33.9481537
F-86.472764
tp2478
sS'Shelby'
p2479
(F33.3592769
F-86.7372095
tp2480
sS'Coosa'
p2481
(F32.8279036
F-86.1110787
tp2482
sS'Clarke'
p2483
(F31.5090521
F-87.8944435
tp2484
sS'Colbert'
p2485
(F34.6564802
F-87.7333645
tp2486
sS'Calhoun'
p2487
(F33.6598257
F-85.8316318
tp2488
sS'Cullman'
p2489
(F34.2050965
F-86.6411053
tp2490
sS'Dallas'
p2491
(F32.4073589
F-87.0211007
tp2492
sS'Covington'
p2493
(F31.2826685
F-86.2555067
tp2494
sS'Jefferson'
p2495
(F33.4442752
F-86.9391592
tp2496
sS'Butler'
p2497
(F31.8295972
F-86.6177517
tp2498
sS'DeKalb'
p2499
(F34.4442547
F-85.7196893
tp2500
sS'Pickens'
p2501
(F33.3201178
F-87.9027962
tp2502
sS'Cleburne'
p2503
(F33.9298234
F-85.470235
tp2504
sS'Dale'
p2505
(F31.4590576
F-85.6404932
tp2506
sS'Coffee'
p2507
(F31.5529426
F-85.8677211
tp2508
sS'Lee'
p2509
(F32.5401393
F-85.0985473
tp2510
sS'Lawrence'
p2511
(F34.5367602
F-87.4853028
tp2512
sS'Bibb'
p2513
(F32.8595702
F-86.9513796
tp2514
sS'Fayette'
p2515
(F33.5395571
F-87.6864003
tp2516
sS'Cherokee'
p2517
(F34.2200942
F-85.6077402
tp2518
sS'Chilton'
p2519
(F32.7745721
F-86.7213729
tp2520
sS'Hale'
p2521
(F32.9976242
F-87.6300075
tp2522
sS'Lauderdale'
p2523
(F34.8736979
F-87.7978081
tp2524
sS'Tallapoosa'
p2525
(F32.831238
F-85.7635692
tp2526
sS'St. Clair'
p2527
(F33.5862149
F-86.2860888
tp2528
sS'Barbour'
p2529
(F31.8912717
F-85.1454876
tp2530
sS'Conecuh'
p2531
(F31.4193334
F-87.0052519
tp2532
sS'Pike'
p2533
(F31.8087678
F-85.969951
tp2534
sS'Crenshaw'
p2535
(F31.5404402
F-86.341903
tp2536
sS'Mobile'
p2537
(F30.4763084
F-88.3422303
tp2538
sS'Sumter'
p2539
(F32.5843025
F-88.1872475
tp2540
sS'Lamar'
p2541
(F33.7439976
F-88.0022479
tp2542
sS'Franklin'
p2543
(F34.5634272
F-87.8422568
tp2544
sS'Morgan'
p2545
(F34.3153746
F-86.862503
tp2546
sS'Henry'
p2547
(F31.351284
F-85.3421559
tp2548
sS'Walker'
p2549
(F33.853995
F-87.1827818
tp2550
sS'Montgomery'
p2551
(F32.4237482
F-86.2263563
tp2552
sS'Etowah'
p2553
(F34.0217639
F-86.0885852
tp2554
sS'Houston'
p2555
(F31.2232313
F-85.3904889
tp2556
sS'Madison'
p2557
(F34.5370339
F-86.3944307
tp2558
sS'Limestone'
p2559
(F34.5898144
F-86.8169459
tp2560
sS'Randolph'
p2561
(F33.3265045
F-85.4224511
tp2562
sS'Marshall'
p2563
(F34.5286985
F-86.2533163
tp2564
sS'Winston'
p2565
(F34.078993
F-87.2122325
tp2566
sS'Washington'
p2567
(F31.4362772
F-88.0283358
tp2568
sS'Talladega'
p2569
(F33.6131588
F-86.1183061
tp2570
sS'Tuscaloosa'
p2571
(F33.1742863
F-87.6127857
tp2572
sS'Elmore'
p2573
(F32.6081874
F-86.3958072
tp2574
sS'Marion'
p2575
(F33.9806587
F-87.818358
tp2576
sS'Escambia'
p2577
(F31.0237921
F-87.4938708
tp2578
sS'Chambers'
p2579
(F32.8687391
F-85.1904971
tp2580
sS'Lowndes'
p2581
(F32.1840315
F-86.5802533
tp2582
sS'Baldwin'
p2583
(F30.4065868
F-87.6835974
tp2584
sS'Monroe'
p2585
(F31.3696119
F-87.5994351
tp2586
sS'Autauga'
p2587
(F32.5837436
F-86.4655311
tp2588
ssS'AR'
p2589
(dp2590
S'Saline'
p2591
(F34.5959265
F-92.4890469
tp2592
sS'Clark'
p2593
(F34.1209292
F-93.053784
tp2594
sS'Mississippi'
p2595
(F35.7050778
F-89.969532
tp2596
sS'Perry'
p2597
(F35.0011986
F-92.6298847
tp2598
sS'Jackson'
p2599
(F35.6048018
F-91.2817951
tp2600
sS'Howard'
p2601
(F34.2789981
F-94.0507527
tp2602
sS'Union'
p2603
(F33.3648455
F-92.7248822
tp2604
sS'Van Buren'
p2605
(F35.7567444
F-92.5246054
tp2606
sS'Calhoun'
p2607
(F33.537892
F-92.4698762
tp2608
sS'Montgomery'
p2609
(F34.659264
F-93.6910292
tp2610
sS'Pulaski'
p2611
(F34.7464809
F-92.2895948
tp2612
sS'Phillips'
p2613
(F34.148716
F-90.9817766
tp2614
sS'Jefferson'
p2615
(F34.2739862
F-92.0909766
tp2616
sS'Crittenden'
p2617
(F35.2145337
F-90.1964836
tp2618
sS'White'
p2619
(F35.3867486
F-91.8090304
tp2620
sS'Crawford'
p2621
(F35.436756
F-94.348268
tp2622
sS'Faulkner'
p2623
(F35.2264728
F-92.1240374
tp2624
sS'Independence'
p2625
(F35.7417441
F-91.6520834
tp2626
sS'Polk'
p2627
(F34.5862171
F-94.2396554
tp2628
sS'Newton'
p2629
(F36.0081324
F-93.1865659
tp2630
sS'Columbia'
p2631
(F33.3295702
F-93.380172
tp2632
sS'Lee'
p2633
(F34.7642653
F-90.5470486
tp2634
sS'Garland'
p2635
(F34.4745341
F-93.2360199
tp2636
sS'Lawrence'
p2637
(F36.0684035
F-90.9559534
tp2638
sS'Grant'
p2639
(F34.40204
F-92.2376491
tp2640
sS'Sevier'
p2641
(F34.1692789
F-94.3163178
tp2642
sS'Drew'
p2643
(F33.4226142
F-91.7626286
tp2644
sS'Cleburne'
p2645
(F35.4914677
F-92.03126
tp2646
sS'Izard'
p2647
(F36.1195143
F-92.1359867
tp2648
sS'Little River'
p2649
(F33.6895629
F-94.2857555
tp2650
sS'Pike'
p2651
(F34.311212
F-93.6176879
tp2652
sS'Stone'
p2653
(F35.8684075
F-92.1176521
tp2654
sS'Ashley'
p2655
(F33.1870653
F-91.5295651
tp2656
sS'Johnson'
p2657
(F35.5514712
F-93.4301828
tp2658
sS'Carroll'
p2659
(F36.4011825
F-93.7379711
tp2660
sS'Hot Spring'
p2661
(F34.3320363
F-92.9132276
tp2662
sS'Dallas'
p2663
(F33.8153834
F-92.7096054
tp2664
sS'Benton'
p2665
(F36.1881365
F-94.5404962
tp2666
sS'Cross'
p2667
(F35.224533
F-90.7867798
tp2668
sS'Greene'
p2669
(F36.0584021
F-90.4973286
tp2670
sS'Searcy'
p2671
(F36.0300744
F-92.8046118
tp2672
sS'Lafayette'
p2673
(F33.3584581
F-93.4360073
tp2674
sS'Franklin'
p2675
(F35.4870295
F-93.8276965
tp2676
sS'Boone'
p2677
(F36.2297936
F-93.1076765
tp2678
sS'Clay'
p2679
(F36.2786754
F-90.6628897
tp2680
sS'Poinsett'
p2681
(F35.4803601
F-90.7356678
tp2682
sS'Ouachita'
p2683
(F33.5845582
F-92.8343294
tp2684
sS'Yell'
p2685
(F35.1486968
F-92.9971159
tp2686
sS'Sebastian'
p2687
(F35.3859242
F-94.3985475
tp2688
sS'Fulton'
p2689
(F36.3711763
F-91.8226479
tp2690
sS'Baxter'
p2691
(F36.3353449
F-92.3851593
tp2692
sS'Woodruff'
p2693
(F35.2823079
F-91.3654063
tp2694
sS'Madison'
p2695
(F36.0506315
F-93.5185199
tp2696
sS'Lincoln'
p2697
(F33.9628786
F-91.9593041
tp2698
sS'Lonoke'
p2699
(F34.5442609
F-91.9690285
tp2700
sS'Hempstead'
p2701
(F33.6145649
F-93.8135164
tp2702
sS'Pope'
p2703
(F35.2784173
F-93.1337856
tp2704
sS'Conway'
p2705
(F35.2986915
F-92.5193252
tp2706
sS'Miller'
p2707
(F33.4417915
F-94.0376881
tp2708
sS'Craighead'
p2709
(F35.8422967
F-90.7042791
tp2710
sS'Washington'
p2711
(F36.0420248
F-94.2471515
tp2712
sS'Bradley'
p2713
(F33.4465028
F-92.1740294
tp2714
sS'Logan'
p2715
(F35.2920325
F-93.7299173
tp2716
sS'Prairie'
p2717
(F34.9900884
F-91.7368032
tp2718
sS'Marion'
p2719
(F36.2789578
F-92.5971082
tp2720
sS'Sharp'
p2721
(F36.0114607
F-91.3990228
tp2722
sS'Chicot'
p2723
(F33.3287279
F-91.2817806
tp2724
sS'Nevada'
p2725
(F33.7184436
F-93.1340555
tp2726
sS'Randolph'
p2727
(F36.2614555
F-90.971233
tp2728
ssS'VT'
p2729
(dp2730
S'Addison'
p2731
(F43.8964511
F-73.0998363
tp2732
sS'Orleans'
p2733
(F44.7481049
F-72.1762128
tp2734
sS'Grand Isle'
p2735
(F44.8769853
F-73.3387437
tp2736
sS'Lamoille'
p2737
(F44.5617189
F-72.5984486
tp2738
sS'Washington'
p2739
(F44.1970055
F-72.5020494
tp2740
sS'Essex'
p2741
(F44.8147712
F-71.8803728
tp2742
sS'Bennington'
p2743
(F43.1636875
F-73.0723269
tp2744
sS'Windham'
p2745
(F43.067857
F-72.4586995
tp2746
sS'Chittenden'
p2747
(F44.4375513
F-73.068181
tp2748
sS'Orange'
p2749
(F43.8909001
F-72.4912096
tp2750
sS'Rutland'
p2751
(F43.7981195
F-73.0876119
tp2752
sS'Caledonia'
p2753
(F44.3289482
F-72.1689857
tp2754
sS'Windsor'
p2755
(F43.4803494
F-72.3848131
tp2756
sS'Franklin'
p2757
(F44.8817124
F-72.9429124
tp2758
ssS'IL'
p2759
(dp2760
S'Richland'
p2761
(F38.7308811
F-88.0853155
tp2762
sS'Shelby'
p2763
(F39.4408693
F-88.5947802
tp2764
sS'Union'
p2765
(F37.4517163
F-89.2681402
tp2766
sS'Jo Daviess'
p2767
(F42.4166744
F-90.4290168
tp2768
sS'McDonough'
p2769
(F40.4592076
F-90.6717971
tp2770
sS'Wayne'
p2771
(F38.5706035
F-88.4656042
tp2772
sS'Bureau'
p2773
(F41.3275352
F-89.1998077
tp2774
sS'Wabash'
p2775
(F38.4108801
F-87.7614174
tp2776
sS'Champaign'
p2777
(F40.1117007
F-88.0417048
tp2778
sS'Tazewell'
p2779
(F40.5675388
F-89.640658
tp2780
sS'De Witt'
p2781
(F40.1536479
F-88.9645253
tp2782
sS'Hancock'
p2783
(F40.6175416
F-91.2879275
tp2784
sS'Coles'
p2785
(F39.4830897
F-88.3728255
tp2786
sS'Henry'
p2787
(F41.4480902
F-90.1542849
tp2788
sS'Montgomery'
p2789
(F39.2058801
F-89.4045304
tp2790
sS'Jersey'
p2791
(F39.1200471
F-90.3284479
tp2792
sS'Washington'
p2793
(F38.2583836
F-89.3356392
tp2794
sS'LaSalle'
p2795
(F41.3275349
F-89.1289728
tp2796
sS'Marion'
p2797
(F38.5250491
F-89.1334037
tp2798
sS'Jasper'
p2799
(F39.103652
F-88.1353157
tp2800
sS'Ogle'
p2801
(F41.9811409
F-89.5951117
tp2802
sS'Effingham'
p2803
(F39.1200418
F-88.5433829
tp2804
sS'Warren'
p2805
(F40.7928169
F-90.7798592
tp2806
sS'Jackson'
p2807
(F37.7644952
F-89.3350888
tp2808
sS'Mason'
p2809
(F40.247266
F-90.0851178
tp2810
sS'Jefferson'
p2811
(F38.1761609
F-88.9675689
tp2812
sS'Lee'
p2813
(F41.8389213
F-89.4795478
tp2814
sS'DuPage'
p2815
(F41.7697533
F-87.9358931
tp2816
sS'Peoria'
p2817
(F40.7458704
F-89.7442697
tp2818
sS'Ford'
p2819
(F40.756702
F-88.191158
tp2820
sS'Cook'
p2821
(F41.850033
F-87.6500523
tp2822
sS'Rock Island'
p2823
(F41.5067003
F-90.5151342
tp2824
sS'McLean'
p2825
(F40.4842027
F-88.9936873
tp2826
sS'Johnson'
p2827
(F37.4153295
F-88.8978435
tp2828
sS'Menard'
p2829
(F40.0117151
F-89.8481652
tp2830
sS'Woodford'
p2831
(F40.6758686
F-89.007852
tp2832
sS'Greene'
p2833
(F39.3436577
F-90.2126145
tp2834
sS'Clay'
p2835
(F38.6689364
F-88.4856042
tp2836
sS'Fulton'
p2837
(F40.5580945
F-90.0351167
tp2838
sS'Macon'
p2839
(F39.8403147
F-88.9548001
tp2840
sS'Kendall'
p2841
(F41.6828074
F-88.3514596
tp2842
sS'Madison'
p2843
(F38.6825502
F-90.1570536
tp2844
sS'Clinton'
p2845
(F38.5100492
F-89.619536
tp2846
sS'Clark'
p2847
(F39.3355924
F-87.8819761
tp2848
sS'Moultrie'
p2849
(F39.599479
F-88.6078392
tp2850
sS'Kane'
p2851
(F42.0372487
F-88.2811895
tp2852
sS'Saline'
p2853
(F37.6842156
F-88.6328326
tp2854
sS'Morgan'
p2855
(F39.733936
F-90.2290098
tp2856
sS'Stark'
p2857
(F41.0936482
F-89.8648284
tp2858
sS'McHenry'
p2859
(F42.333355
F-88.2667534
tp2860
sS'Lawrence'
p2861
(F38.7292138
F-87.6816927
tp2862
sS'Fayette'
p2863
(F38.960601
F-89.0936778
tp2864
sS'Sangamon'
p2865
(F39.8017171
F-89.6437107
tp2866
sS'Alexander'
p2867
(F37.0053293
F-89.1764608
tp2868
sS'Pike'
p2869
(F39.4597701
F-90.6259588
tp2870
sS'Adams'
p2871
(F39.9356016
F-91.4098727
tp2872
sS'Stephenson'
p2873
(F42.2966861
F-89.6212271
tp2874
sS'Livingston'
p2875
(F40.8930888
F-88.4053323
tp2876
sS'Franklin'
p2877
(F37.9967163
F-88.9200685
tp2878
sS'Marshall'
p2879
(F41.0286474
F-89.4384235
tp2880
sS'Carroll'
p2881
(F42.0944672
F-90.1567944
tp2882
sS'Schuyler'
p2883
(F40.0294925
F-90.5717939
tp2884
sS'Grundy'
p2885
(F41.357254
F-88.4211785
tp2886
sS'Boone'
p2887
(F42.3683522
F-88.822047
tp2888
sS'Mercer'
p2889
(F41.1997568
F-90.7493063
tp2890
sS'Gallatin'
p2891
(F37.7992131
F-88.2611509
tp2892
sS'Cumberland'
p2893
(F39.2478159
F-88.1633719
tp2894
sS'Edwards'
p2895
(F38.5511602
F-88.1083714
tp2896
sS'Lake'
p2897
(F42.1969689
F-88.0934108
tp2898
sS'Douglas'
p2899
(F39.7991986
F-88.2831038
tp2900
sS'Pulaski'
p2901
(F37.2936633
F-88.9753462
tp2902
sS'DeKalb'
p2903
(F42.097248
F-88.6928688
tp2904
sS'Williamson'
p2905
(F37.7306054
F-88.9331256
tp2906
sS'Christian'
p2907
(F39.457827
F-89.4039813
tp2908
sS'Winnebago'
p2909
(F42.2711311
F-89.0939952
tp2910
sS'Macoupin'
p2911
(F39.0397688
F-90.1406643
tp2912
sS'St. Clair'
p2913
(F38.5200504
F-89.9839935
tp2914
sS'Knox'
p2915
(F40.9478158
F-90.3712395
tp2916
sS'Kankakee'
p2917
(F41.1200325
F-87.8611531
tp2918
sS'Whiteside'
p2919
(F41.809751
F-89.9651186
tp2920
sS'Will'
p2921
(F41.457813
F-87.5364288
tp2922
sS'Cass'
p2923
(F40.0175483
F-90.4242916
tp2924
sS'Iroquois'
p2925
(F40.954478
F-87.6544781
tp2926
sS'Vermilion'
p2927
(F40.124481
F-87.6300207
tp2928
sS'Logan'
p2929
(F40.305598
F-89.6028829
tp2930
sS'Randolph'
p2931
(F37.9136628
F-89.8220505
tp2932
sS'Monroe'
p2933
(F38.4436637
F-90.2012239
tp2934
ssS'GA'
p2935
(dp2936
S'Union'
p2937
(F34.8761989
F-83.9582412
tp2938
sS'Paulding'
p2939
(F33.9237141
F-84.8407732
tp2940
sS'Montgomery'
p2941
(F32.035743
F-82.5081868
tp2942
sS'Wayne'
p2943
(F31.4863254
F-82.0170596
tp2944
sS'Screven'
p2945
(F32.7504441
F-81.636776
tp2946
sS'Pickens'
p2947
(F34.5092563
F-84.5049279
tp2948
sS'Ben Hill'
p2949
(F31.7149082
F-83.2526545
tp2950
sS'Worth'
p2951
(F31.512959
F-83.7385063
tp2952
sS'McDuffie'
p2953
(F33.4706927
F-82.5045733
tp2954
sS'Dodge'
p2955
(F32.1976729
F-83.1776514
tp2956
sS'Columbia'
p2957
(F33.4504157
F-82.1981764
tp2958
sS'Lumpkin'
p2959
(F34.5325938
F-83.98491
tp2960
sS'Brooks'
p2961
(F30.7849191
F-83.5598811
tp2962
sS'Walton'
p2963
(F33.8389977
F-83.9007382
tp2964
sS'Harris'
p2965
(F32.8648522
F-84.8540982
tp2966
sS'Coweta'
p2967
(F33.3392842
F-84.6485417
tp2968
sS'Dougherty'
p2969
(F31.5785074
F-84.155741
tp2970
sS'Meriwether'
p2971
(F33.1456782
F-84.7318754
tp2972
sS'Hancock'
p2973
(F33.183759
F-83.0007035
tp2974
sS'Cook'
p2975
(F31.0454716
F-83.3921031
tp2976
sS'Gordon'
p2977
(F34.502587
F-84.9510542
tp2978
sS'Henry'
p2979
(F33.3870578
F-84.2829784
tp2980
sS'Wilkes'
p2981
(F33.8012337
F-82.9226467
tp2982
sS'Thomas'
p2983
(F31.0112991
F-83.8662821
tp2984
sS'Ware'
p2985
(F31.2135511
F-82.3540178
tp2986
sS'Stephens'
p2987
(F34.5773206
F-83.3323851
tp2988
sS'Newton'
p2989
(F33.5481691
F-83.9743544
tp2990
sS'Washington'
p2991
(F32.9815431
F-82.810138
tp2992
sS'Hall'
p2993
(F34.1851017
F-83.9251809
tp2994
sS'Heard'
p2995
(F33.2776182
F-85.0979973
tp2996
sS'Camden'
p2997
(F30.9666202
F-81.7901087
tp2998
sS'Jasper'
p2999
(F33.3048479
F-83.6832289
tp3000
sS'Effingham'
p3001
(F32.3363045
F-81.3914992
tp3002
sS'Lowndes'
p3003
(F30.8327022
F-83.2784851
tp3004
sS'Polk'
p3005
(F34.0026005
F-85.0416133
tp3006
sS'Jackson'
p3007
(F34.1139993
F-83.4315488
tp3008
sS'McIntosh'
p3009
(F31.5332762
F-81.4270478
tp3010
sS'Liberty'
p3011
(F31.805769
F-81.4306642
tp3012
sS'Jefferson'
p3013
(F33.2076456
F-82.391792
tp3014
sS'White'
p3015
(F34.5970402
F-83.7632366
tp3016
sS'Burke'
p3017
(F33.0898731
F-82.0156736
tp3018
sS'Putnam'
p3019
(F33.4492969
F-83.3115508
tp3020
sS'Coffee'
p3021
(F31.5088073
F-82.8498654
tp3022
sS'Glynn'
p3023
(F31.197452
F-81.4831564
tp3024
sS'Lee'
p3025
(F31.7321156
F-84.1707423
tp3026
sS'Catoosa'
p3027
(F34.963131
F-85.2594001
tp3028
sS'Butts'
p3029
(F33.2945651
F-83.9660209
tp3030
sS'Oconee'
p3031
(F33.8628959
F-83.4087709
tp3032
sS'Toombs'
p3033
(F32.2176855
F-82.4134614
tp3034
sS'Chatham'
p3035
(F32.0835407
F-81.0998342
tp3036
sS'Colquitt'
p3037
(F31.1999071
F-83.8735088
tp3038
sS'Barrow'
p3039
(F33.9651127
F-83.596555
tp3040
sS'Schley'
p3041
(F32.3312646
F-84.342415
tp3042
sS'Johnson'
p3043
(F32.7293279
F-82.7198591
tp3044
sS'Candler'
p3045
(F32.397118
F-82.0601196
tp3046
sS'Oglethorpe'
p3047
(F33.9059516
F-82.9229218
tp3048
sS'Irwin'
p3049
(F31.5943567
F-83.2504328
tp3050
sS'Greene'
p3051
(F33.5756831
F-83.1823789
tp3052
sS'Bartow'
p3053
(F34.1650972
F-84.7999383
tp3054
sS'Forsyth'
p3055
(F34.2073196
F-84.1401926
tp3056
sS'Clay'
p3057
(F31.6090569
F-85.0471505
tp3058
sS'Fulton'
p3059
(F34.0289259
F-84.198579
tp3060
sS'Macon'
p3061
(F32.3695983
F-84.1879675
tp3062
sS'Madison'
p3063
(F34.1659425
F-83.1704276
tp3064
sS'Taylor'
p3065
(F32.5018107
F-84.4210305
tp3066
sS'Evans'
p3067
(F32.1615815
F-81.9040047
tp3068
sS'Clinch'
p3069
(F30.9902118
F-82.6831944
tp3070
sS'Echols'
p3071
(F30.826044
F-82.9051393
tp3072
sS'Grady'
p3073
(F30.8265813
F-84.1785104
tp3074
sS'Dawson'
p3075
(F34.4212053
F-84.1190804
tp3076
sS'Hart'
p3077
(F34.3528825
F-82.932087
tp3078
sS'Baldwin'
p3079
(F33.0801429
F-83.2320991
tp3080
sS'Bibb'
p3081
(F32.8406946
F-83.6324022
tp3082
sS'Haralson'
p3083
(F33.7212179
F-85.1455036
tp3084
sS'Rockdale'
p3085
(F33.6676103
F-84.0176904
tp3086
sS'Cherokee'
p3087
(F34.1014873
F-84.5193754
tp3088
sS'Clarke'
p3089
(F33.960948
F-83.3779358
tp3090
sS'Richmond'
p3091
(F33.4709702
F-81.9748379
tp3092
sS'Cobb'
p3093
(F34.0234337
F-84.6154897
tp3094
sS'Glascock'
p3095
(F33.2198688
F-82.7031896
tp3096
sS'Muscogee'
p3097
(F32.4773642
F-84.8785413
tp3098
sS'Fayette'
p3099
(F33.4487257
F-84.4549262
tp3100
sS'Elbert'
p3101
(F34.2064969
F-82.8915287
tp3102
sS'Early'
p3103
(F31.3599
F-84.6701951
tp3104
sS'Floyd'
p3105
(F34.1075975
F-85.3363434
tp3106
sS'Towns'
p3107
(F34.9492586
F-83.7573948
tp3108
sS'Pike'
p3109
(F33.1023454
F-84.3426997
tp3110
sS'Lincoln'
p3111
(F33.8784562
F-82.5523546
tp3112
sS'Dade'
p3113
(F34.8720222
F-85.5091301
tp3114
sS'Long'
p3115
(F31.7079919
F-81.7423357
tp3116
sS'Walker'
p3117
(F34.871188
F-85.2907896
tp3118
sS'Chattooga'
p3119
(F34.5439735
F-85.3105112
tp3120
sS'Carroll'
p3121
(F33.7370514
F-85.032445
tp3122
sS'Murray'
p3123
(F34.7659145
F-84.7699385
tp3124
sS'Talbot'
p3125
(F32.579862
F-84.5507559
tp3126
sS'Tift'
p3127
(F31.3410184
F-83.5935011
tp3128
sS'Peach'
p3129
(F32.6537561
F-83.7596295
tp3130
sS'Bryan'
p3131
(F31.9382652
F-81.3034433
tp3132
sS'Sumter'
p3133
(F32.1401594
F-84.3813028
tp3134
sS'Douglas'
p3135
(F33.7562186
F-84.7052128
tp3136
sS'Atkinson'
p3137
(F31.297703
F-82.8523668
tp3138
sS'DeKalb'
p3139
(F33.6759424
F-84.1149163
tp3140
sS'Troup'
p3141
(F33.1731769
F-84.914936
tp3142
sS'Bleckley'
p3143
(F32.3868278
F-83.3546098
tp3144
sS'Gwinnett'
p3145
(F33.8942729
F-83.95574
tp3146
sS'Clayton'
p3147
(F33.6220542
F-84.3690918
tp3148
sS'Brantley'
p3149
(F31.3366088
F-81.9562254
tp3150
sS'Decatur'
p3151
(F30.9037995
F-84.5754699
tp3152
sS'Jones'
p3153
(F33.0095802
F-83.5337816
tp3154
sS'Pierce'
p3155
(F31.3060513
F-82.2420661
tp3156
sS'Laurens'
p3157
(F32.6457188
F-82.7962504
tp3158
sS'Dooly'
p3159
(F32.2890487
F-83.6537881
tp3160
sS'Berrien'
p3161
(F31.0746445
F-83.1993186
tp3162
sS'Emanuel'
p3163
(F32.5973857
F-82.3337376
tp3164
sS'Morgan'
p3165
(F33.5981814
F-83.4048862
tp3166
sS'Banks'
p3167
(F34.3078817
F-83.6335036
tp3168
sS'Mitchell'
p3169
(F31.1276849
F-84.1518466
tp3170
sS'Houston'
p3171
(F32.4582066
F-83.7315723
tp3172
sS'Whitfield'
p3173
(F34.7698021
F-84.9702228
tp3174
sS'Spalding'
p3175
(F33.2467807
F-84.2640904
tp3176
sS'Miller'
p3177
(F31.1712935
F-84.7332527
tp3178
sS'Habersham'
p3179
(F34.5417653
F-83.5401724
tp3180
sS'Rabun'
p3181
(F34.9403678
F-83.1870976
tp3182
sS'Bulloch'
p3183
(F32.538222
F-81.9323384
tp3184
sS'Fannin'
p3185
(F34.863972
F-84.324087
tp3186
sS'Tattnall'
p3187
(F32.0315882
F-81.8934495
tp3188
sS'Turner'
p3189
(F31.7060134
F-83.653224
tp3190
sS'Twiggs'
p3191
(F32.6057103
F-83.2454361
tp3192
sS'Monroe'
p3193
(F33.0342974
F-83.938242
tp3194
sS'Franklin'
p3195
(F34.3698266
F-83.235155
tp3196
ssS'IN'
p3197
(dp3198
S'Daviess'
p3199
(F38.6592152
F-87.172789
tp3200
sS'Shelby'
p3201
(F39.5214373
F-85.7769238
tp3202
sS'Union'
p3203
(F39.5964391
F-84.8902362
tp3204
sS'Montgomery'
p3205
(F40.0411536
F-86.8744516
tp3206
sS'Wayne'
p3207
(F39.8122703
F-84.8880159
tp3208
sS'Wabash'
p3209
(F40.797821
F-85.8205411
tp3210
sS'White'
p3211
(F40.7453169
F-86.7647343
tp3212
sS'Porter'
p3213
(F41.4730948
F-87.0611412
tp3214
sS'Brown'
p3215
(F39.2072708
F-86.2511011
tp3216
sS'LaPorte'
p3217
(F41.7075394
F-86.8950297
tp3218
sS'Jay'
p3219
(F40.3103237
F-84.8432969
tp3220
sS'Jennings'
p3221
(F39.006165
F-85.6235796
tp3222
sS'Dearborn'
p3223
(F39.2608882
F-84.8207849
tp3224
sS'Miami'
p3225
(F40.7536528
F-86.0688811
tp3226
sS'Hancock'
p3227
(F39.9080952
F-85.9227592
tp3228
sS'Henry'
p3229
(F40.0044908
F-85.3846928
tp3230
sS'Vigo'
p3231
(F39.4667034
F-87.4139092
tp3232
sS'Sullivan'
p3233
(F39.1408754
F-87.3019609
tp3234
sS'Dubois'
p3235
(F38.3914418
F-86.9311094
tp3236
sS'Washington'
p3237
(F38.649501
F-86.1274792
tp3238
sS'Bartholomew'
p3239
(F39.2014405
F-85.9213796
tp3240
sS'Marion'
p3241
(F39.7683765
F-86.1580423
tp3242
sS'Jasper'
p3243
(F40.9367045
F-87.1508562
tp3244
sS'Vermillion'
p3245
(F39.7944824
F-87.3958502
tp3246
sS'Allen'
p3247
(F41.1306041
F-85.1288597
tp3248
sS'Perry'
p3249
(F38.1217286
F-86.5177586
tp3250
sS'Jackson'
p3251
(F38.9592201
F-85.8902547
tp3252
sS'Howard'
p3253
(F40.486427
F-86.1336033
tp3254
sS'Jefferson'
p3255
(F38.7358933
F-85.3799577
tp3256
sS'Hendricks'
p3257
(F39.8433769
F-86.3977736
tp3258
sS'St. Joseph'
p3259
(F41.6833813
F-86.2500066
tp3260
sS'Putnam'
p3261
(F39.6444898
F-86.8647316
tp3262
sS'Hamilton'
p3263
(F40.0455918
F-86.0085955
tp3264
sS'Kosciusko'
p3265
(F41.2381001
F-85.8530469
tp3266
sS'Rush'
p3267
(F39.6092137
F-85.4463594
tp3268
sS'Johnson'
p3269
(F39.6136578
F-86.1066526
tp3270
sS'Whitley'
p3271
(F41.2306034
F-85.3194208
tp3272
sS'Greene'
p3273
(F39.0347666
F-87.1658458
tp3274
sS'Ripley'
p3275
(F39.3000511
F-85.222184
tp3276
sS'LaGrange'
p3277
(F41.5500501
F-85.2327519
tp3278
sS'Ohio'
p3279
(F38.9495047
F-84.853838
tp3280
sS'Gibson'
p3281
(F38.3553236
F-87.5675223
tp3282
sS'Spencer'
p3283
(F38.0147731
F-87.036386
tp3284
sS'Fulton'
p3285
(F41.0647645
F-86.2158331
tp3286
sS'Madison'
p3287
(F39.9975415
F-85.7466439
tp3288
sS'Clinton'
p3289
(F40.2794809
F-86.5108355
tp3290
sS'Clark'
p3291
(F38.2775702
F-85.7371847
tp3292
sS'Owen'
p3293
(F39.2867117
F-86.7625058
tp3294
sS'Huntington'
p3295
(F40.8831011
F-85.497476
tp3296
sS'Clay'
p3297
(F39.523652
F-87.1250154
tp3298
sS'Blackford'
p3299
(F40.4511541
F-85.369972
tp3300
sS'Morgan'
p3301
(F39.4278253
F-86.428328
tp3302
sS'Delaware'
p3303
(F40.1933767
F-85.3863599
tp3304
sS'Fountain'
p3305
(F40.1417045
F-87.3947357
tp3306
sS'Lawrence'
p3307
(F38.8611619
F-86.4872149
tp3308
sS'Elkhart'
p3309
(F41.675328
F-85.7061011
tp3310
sS'Grant'
p3311
(F40.5583739
F-85.6591442
tp3312
sS'Fayette'
p3313
(F39.6411589
F-85.1410748
tp3314
sS'Floyd'
p3315
(F38.2856247
F-85.8241312
tp3316
sS'Pike'
p3317
(F38.288661
F-87.2191735
tp3318
sS'Adams'
p3319
(F40.7169914
F-84.8532978
tp3320
sS'Steuben'
p3321
(F41.6347726
F-84.9994088
tp3322
sS'Switzerland'
p3323
(F38.8589483
F-85.1405093
tp3324
sS'Vanderburgh'
p3325
(F37.9747644
F-87.5558482
tp3326
sS'Marshall'
p3327
(F41.2189311
F-86.4230626
tp3328
sS'Carroll'
p3329
(F40.4589248
F-86.4888865
tp3330
sS'Harrison'
p3331
(F38.2120121
F-86.1219155
tp3332
sS'Boone'
p3333
(F40.0167075
F-86.3999984
tp3334
sS'Starke'
p3335
(F41.2150403
F-86.7758502
tp3336
sS'Lake'
p3337
(F41.5833688
F-87.5000412
tp3338
sS'Pulaski'
p3339
(F41.0514299
F-86.6030648
tp3340
sS'Orange'
p3341
(F38.5489432
F-86.6199914
tp3342
sS'Tippecanoe'
p3343
(F40.4258686
F-86.9080655
tp3344
sS'Parke'
p3345
(F39.8428203
F-87.1114004
tp3346
sS'DeKalb'
p3347
(F41.3494939
F-85.1355268
tp3348
sS'Noble'
p3349
(F41.4414385
F-85.2649754
tp3350
sS'Wells'
p3351
(F40.8444917
F-85.1769148
tp3352
sS'Knox'
p3353
(F38.6772691
F-87.5286325
tp3354
sS'Decatur'
p3355
(F39.3372722
F-85.483581
tp3356
sS'Tipton'
p3357
(F40.3794822
F-86.0886009
tp3358
sS'Benton'
p3359
(F40.4905905
F-87.0964025
tp3360
sS'Cass'
p3361
(F40.8492073
F-86.3247217
tp3362
sS'Martin'
p3363
(F38.651995
F-86.8922239
tp3364
sS'Warrick'
p3365
(F37.9444882
F-87.4052865
tp3366
sS'Scott'
p3367
(F38.6714479
F-85.7096876
tp3368
sS'Randolph'
p3369
(F40.1719892
F-84.9813549
tp3370
sS'Monroe'
p3371
(F39.165325
F-86.5263857
tp3372
sS'Franklin'
p3373
(F39.339773
F-85.2044063
tp3374
ssS'IA'
p3375
(dp3376
S'Story'
p3377
(F41.950542
F-93.66522
tp3378
sS'Louisa'
p3379
(F41.2800253
F-91.360711
tp3380
sS'Jackson'
p3381
(F42.2958455
F-90.6209631
tp3382
sS'Cass'
p3383
(F41.4036007
F-95.0138776
tp3384
sS'Kossuth'
p3385
(F43.0699663
F-94.233019
tp3386
sS'Dallas'
p3387
(F41.6144325
F-94.017453
tp3388
sS'Carroll'
p3389
(F42.0569297
F-94.72887
tp3390
sS'Clarke'
p3391
(F41.0338853
F-93.7654976
tp3392
sS'Tama'
p3393
(F42.171659
F-92.3062978
tp3394
sS'Mills'
p3395
(F41.002776
F-95.5852781
tp3396
sS'Lyon'
p3397
(F43.4441353
F-95.8833524
tp3398
sS'Monroe'
p3399
(F41.0266746
F-92.8057514
tp3400
sS'Montgomery'
p3401
(F41.0097151
F-95.2255466
tp3402
sS'Clayton'
p3403
(F42.8538739
F-91.4054159
tp3404
sS'Jefferson'
p3405
(F41.0086312
F-91.9626727
tp3406
sS'Dickinson'
p3407
(F43.3246863
F-95.149996
tp3408
sS'Wapello'
p3409
(F41.0200145
F-92.4112963
tp3410
sS'Crawford'
p3411
(F41.9288774
F-95.49389
tp3412
sS'Worth'
p3413
(F43.2871813
F-93.2021482
tp3414
sS'Sioux'
p3415
(F42.9855403
F-95.8736256
tp3416
sS'Allamakee'
p3417
(F43.2694208
F-91.475695
tp3418
sS'Buena Vista'
p3419
(F42.6410915
F-95.2097179
tp3420
sS'Iowa'
p3421
(F41.8516667
F-92.1860164
tp3422
sS'Lee'
p3423
(F40.3972664
F-91.384874
tp3424
sS'Woodbury'
p3425
(F42.4999942
F-96.4003069
tp3426
sS'Winnebago'
p3427
(F43.419399
F-93.5332681
tp3428
sS'Guthrie'
p3429
(F41.5005428
F-94.6435862
tp3430
sS'Van Buren'
p3431
(F40.6980874
F-91.8032228
tp3432
sS'Fayette'
p3433
(F42.7491501
F-91.6712664
tp3434
sS'Dubuque'
p3435
(F42.5005583
F-90.6645718
tp3436
sS'Linn'
p3437
(F42.0083328
F-91.6440683
tp3438
sS'Floyd'
p3439
(F43.1277502
F-92.7363031
tp3440
sS'Hamilton'
p3441
(F42.4694184
F-93.816054
tp3442
sS'Cedar'
p3443
(F41.6714086
F-91.3465521
tp3444
sS'Pocahontas'
p3445
(F42.5813667
F-94.8460957
tp3446
sS'Emmet'
p3447
(F43.4016255
F-94.832764
tp3448
sS'Jasper'
p3449
(F41.7674881
F-93.2835392
tp3450
sS'Jones'
p3451
(F42.2383351
F-91.1870937
tp3452
sS'Marion'
p3453
(F41.4080534
F-92.9163091
tp3454
sS'Black Hawk'
p3455
(F42.4927641
F-92.3429631
tp3456
sS'Delaware'
p3457
(F42.3513792
F-91.4815456
tp3458
sS'Hardin'
p3459
(F42.360816
F-93.0996464
tp3460
sS'Adams'
p3461
(F40.9899861
F-94.7408069
tp3462
sS'Johnson'
p3463
(F41.7491805
F-91.5979498
tp3464
sS'Grundy'
p3465
(F42.323597
F-92.5993615
tp3466
sS'Benton'
p3467
(F42.1686061
F-92.0235139
tp3468
sS'Calhoun'
p3469
(F42.3952576
F-94.6338671
tp3470
sS'Greene'
p3471
(F42.1644226
F-94.2552419
tp3472
sS'Chickasaw'
p3473
(F43.0591412
F-92.3176768
tp3474
sS'Plymouth'
p3475
(F42.7197133
F-96.2486357
tp3476
sS'Clay'
p3477
(F43.1413578
F-95.1444393
tp3478
sS'Boone'
p3479
(F42.0597047
F-93.8802273
tp3480
sS'Palo Alto'
p3481
(F43.1291322
F-94.8991531
tp3482
sS'Davis'
p3483
(F40.7516884
F-92.4149074
tp3484
sS'Webster'
p3485
(F42.4974694
F-94.1680158
tp3486
sS'Harrison'
p3487
(F41.7383218
F-95.7027843
tp3488
sS'Page'
p3489
(F40.7655528
F-95.3722103
tp3490
sS'Ida'
p3491
(F42.4891531
F-95.545003
tp3492
sS'Pottawattamie'
p3493
(F41.2619444
F-95.8608333
tp3494
sS'Madison'
p3495
(F41.3308237
F-94.0138393
tp3496
sS'Clinton'
p3497
(F41.8316906
F-90.8382014
tp3498
sS'Humboldt'
p3499
(F42.7294176
F-94.4477507
tp3500
sS'Audubon'
p3501
(F41.7180421
F-94.9324868
tp3502
sS'Winneshiek'
p3503
(F43.3033056
F-91.7857092
tp3504
sS'Sac'
p3505
(F42.2710952
F-95.093047
tp3506
sS'Monona'
p3507
(F42.0266548
F-96.0972376
tp3508
sS'Marshall'
p3509
(F42.0494323
F-92.9079774
tp3510
sS'Washington'
p3511
(F41.4797413
F-91.5812759
tp3512
sS'Decatur'
p3513
(F40.5805596
F-93.7438345
tp3514
sS'Scott'
p3515
(F41.6580864
F-90.5845823
tp3516
sS'Mahaska'
p3517
(F41.296395
F-92.6443593
tp3518
sS"O'Brien"
p3519
(F43.1799725
F-95.4769513
tp3520
sS'Des Moines'
p3521
(F40.8075391
F-91.1129233
tp3522
sS'Warren'
p3523
(F41.3580484
F-93.5574376
tp3524
sS'Polk'
p3525
(F41.6005448
F-93.6091064
tp3526
sS'Muscatine'
p3527
(F41.424473
F-91.0432051
tp3528
sS'Cerro Gordo'
p3529
(F43.1535728
F-93.2010367
tp3530
ssS'OK'
p3531
(dp3532
S'Ellis'
p3533
(F36.2758728
F-99.8812321
tp3534
sS'Comanche'
p3535
(F34.6086854
F-98.3903305
tp3536
sS'Grant'
p3537
(F36.669197
F-97.8011661
tp3538
sS'Cherokee'
p3539
(F35.91537
F-94.969956
tp3540
sS'Oklahoma'
p3541
(F35.6528323
F-97.4780954
tp3542
sS'Delaware'
p3543
(F36.5789684
F-94.9710719
tp3544
sS'Hughes'
p3545
(F35.0803617
F-96.3991765
tp3546
sS'Beckham'
p3547
(F35.2189409
F-99.5056465
tp3548
sS'Jefferson'
p3549
(F34.0200965
F-97.9575353
tp3550
sS'Roger Mills'
p3551
(F35.6328261
F-99.3817653
tp3552
sS'Seminole'
p3553
(F35.2245201
F-96.670573
tp3554
sS'McClain'
p3555
(F35.2472869
F-97.59976
tp3556
sS'Texas'
p3557
(F36.954193
F-101.065444
tp3558
sS'Jackson'
p3559
(F34.6381255
F-99.3339754
tp3560
sS'Washita'
p3561
(F35.290608
F-98.988411
tp3562
sS'Tulsa'
p3563
(F36.1539816
F-95.992775
tp3564
sS'Latimer'
p3565
(F34.91871
F-95.3091383
tp3566
sS'Cimarron'
p3567
(F36.9030764
F-102.9632621
tp3568
sS'Nowata'
p3569
(F36.700645
F-95.6380341
tp3570
sS'Le Flore'
p3571
(F34.7514893
F-95.0480162
tp3572
sS'Payne'
p3573
(F36.1156071
F-97.0583681
tp3574
sS'Kingfisher'
p3575
(F35.861432
F-97.9317203
tp3576
sS'Haskell'
p3577
(F35.252597
F-95.237467
tp3578
sS'Caddo'
p3579
(F35.333946
F-98.1306072
tp3580
sS'Pontotoc'
p3581
(F34.774531
F-96.678345
tp3582
sS'Harmon'
p3583
(F34.6883948
F-99.9120456
tp3584
sS'Bryan'
p3585
(F33.9939861
F-96.370824
tp3586
sS'Lincoln'
p3587
(F35.8947842
F-96.8722487
tp3588
sS'Rogers'
p3589
(F36.3125964
F-95.61609
tp3590
sS'Canadian'
p3591
(F35.5067215
F-97.7625442
tp3592
sS'Adair'
p3593
(F36.1092487
F-94.5702202
tp3594
sS'Custer'
p3595
(F35.7442157
F-98.747584
tp3596
sS'McCurtain'
p3597
(F34.4373272
F-94.5574402
tp3598
sS'Ottawa'
p3599
(F36.8745146
F-94.8774554
tp3600
sS'Okmulgee'
p3601
(F35.6234367
F-95.9605502
tp3602
sS'Kiowa'
p3603
(F35.0975577
F-98.7464553
tp3604
sS'Wagoner'
p3605
(F35.9595442
F-95.3694116
tp3606
sS'McIntosh'
p3607
(F35.4700993
F-95.5230356
tp3608
sS'Kay'
p3609
(F36.706981
F-97.0855948
tp3610
sS'Creek'
p3611
(F35.9448155
F-96.0652751
tp3612
sS'Alfalfa'
p3613
(F36.5461432
F-98.2700706
tp3614
sS'Muskogee'
p3615
(F35.7478769
F-95.3696909
tp3616
sS'Osage'
p3617
(F36.2381336
F-96.3166808
tp3618
sS'Love'
p3619
(F33.907879
F-97.2889056
tp3620
sS'Carter'
p3621
(F34.1742611
F-97.1436254
tp3622
sS'Stephens'
p3623
(F34.5023029
F-97.9578129
tp3624
sS'Coal'
p3625
(F34.4692588
F-96.2163853
tp3626
sS'Woodward'
p3627
(F36.4336481
F-99.3903862
tp3628
sS'Pawnee'
p3629
(F36.3100688
F-96.4641886
tp3630
sS'Pittsburg'
p3631
(F34.9334298
F-95.7697131
tp3632
sS'Washington'
p3633
(F36.7959193
F-95.9355387
tp3634
sS'Sequoyah'
p3635
(F35.4603711
F-94.7874463
tp3636
sS'Murray'
p3637
(F34.5045317
F-97.1194637
tp3638
sS'Craig'
p3639
(F36.6386937
F-95.1541339
tp3640
sS'Logan'
p3641
(F35.878937
F-97.4253185
tp3642
sS'Garfield'
p3643
(F36.3955891
F-97.8783911
tp3644
sS'Woods'
p3645
(F36.8050308
F-98.6664737
tp3646
sS'Grady'
p3647
(F35.2908947
F-97.8122658
tp3648
sS'Blaine'
p3649
(F36.1333716
F-98.5506371
tp3650
sS'Choctaw'
p3651
(F34.0187169
F-95.266344
tp3652
sS'Cleveland'
p3653
(F35.2225668
F-97.4394777
tp3654
sS'Beaver'
p3655
(F36.8161371
F-100.5198713
tp3656
sS'Cotton'
p3657
(F34.3598075
F-98.3078258
tp3658
sS'Marshall'
p3659
(F33.9987101
F-96.7197217
tp3660
sS'Pottawatomie'
p3661
(F35.2606255
F-97.1197479
tp3662
sS'Garvin'
p3663
(F34.6228594
F-97.3964138
tp3664
ssS'AZ'
p3665
(dp3666
S'Yuma'
p3667
(F32.7253249
F-114.624397
tp3668
sS'Pinal'
p3669
(F32.977839
F-111.517624
tp3670
sS'Greenlee'
p3671
(F32.7214599
F-109.1053408
tp3672
sS'Maricopa'
p3673
(F33.4483771
F-112.0740373
tp3674
sS'Mohave'
p3675
(F34.483901
F-114.3224548
tp3676
sS'Gila'
p3677
(F34.2308684
F-111.3251355
tp3678
sS'Santa Cruz'
p3679
(F31.568702
F-111.0523126
tp3680
sS'Cochise'
p3681
(F31.5545394
F-110.3036912
tp3682
sS'La Paz'
p3683
(F33.7444747
F-113.7521564
tp3684
sS'Coconino'
p3685
(F34.8697395
F-111.7609896
tp3686
sS'Pima'
p3687
(F32.436738
F-111.2253822
tp3688
sS'Apache'
p3689
(F36.0730594
F-109.8923374
tp3690
sS'Navajo'
p3691
(F34.2542084
F-110.0298327
tp3692
sS'Graham'
p3693
(F32.8339546
F-109.70758
tp3694
sS'Yavapai'
p3695
(F34.3450288
F-112.1590486
tp3696
ssS'ID'
p3697
(dp3698
S'Nez Perce'
p3699
(F46.4165506
F-117.0176569
tp3700
sS'Gooding'
p3701
(F42.8121244
F-114.898669
tp3702
sS'Benewah'
p3703
(F47.3351803
F-116.8885094
tp3704
sS'Ada'
p3705
(F43.6135002
F-116.2034505
tp3706
sS'Boundary'
p3707
(F48.6913257
F-116.3163092
tp3708
sS'Valley'
p3709
(F44.911006
F-116.0987364
tp3710
sS'Teton'
p3711
(F43.6026976
F-111.1113318
tp3712
sS'Idaho'
p3713
(F45.4221105
F-116.315411
tp3714
sS'Bingham'
p3715
(F43.1904709
F-112.3449773
tp3716
sS'Owyhee'
p3717
(F43.5454359
F-116.8131958
tp3718
sS'Custer'
p3719
(F44.217423
F-114.938582
tp3720
sS'Fremont'
p3721
(F44.4243637
F-111.3710645
tp3722
sS'Canyon'
p3723
(F43.5407172
F-116.5634624
tp3724
sS'Boise'
p3725
(F43.9126714
F-115.8923353
tp3726
sS'Bonneville'
p3727
(F43.4665809
F-112.0341374
tp3728
sS'Butte'
p3729
(F43.7357346
F-113.3663993
tp3730
sS'Twin Falls'
p3731
(F42.5629668
F-114.4608711
tp3732
sS'Gem'
p3733
(F43.8734979
F-116.4993012
tp3734
sS'Lincoln'
p3735
(F42.9360165
F-114.4058752
tp3736
sS'Lemhi'
p3737
(F45.2424203
F-113.8934018
tp3738
sS'Bannock'
p3739
(F42.8713032
F-112.4455344
tp3740
sS'Jefferson'
p3741
(F43.6724119
F-111.9149681
tp3742
sS'Latah'
p3743
(F46.7323875
F-117.0001651
tp3744
sS'Madison'
p3745
(F43.8260227
F-111.7896876
tp3746
sS'Kootenai'
p3747
(F47.7660161
F-116.7865815
tp3748
sS'Lewis'
p3749
(F46.2271182
F-116.0293071
tp3750
sS'Minidoka'
p3751
(F42.5585202
F-113.7639048
tp3752
sS'Washington'
p3753
(F44.5726619
F-116.6759919
tp3754
sS'Elmore'
p3755
(F43.1329504
F-115.6911975
tp3756
sS'Payette'
p3757
(F44.0076639
F-116.9165461
tp3758
sS'Blaine'
p3759
(F43.5196288
F-114.3153245
tp3760
sS'Bonner'
p3761
(F48.2477073
F-116.3071233
tp3762
sS'Cassia'
p3763
(F42.5357428
F-113.7927948
tp3764
sS'Bear Lake'
p3765
(F42.3221498
F-111.2977044
tp3766
sS'Jerome'
p3767
(F42.6057451
F-114.2108634
tp3768
sS'Shoshone'
p3769
(F47.6435372
F-115.9179444
tp3770
ssS'CT'
p3771
(dp3772
S'New London'
p3773
(F41.6362097
F-72.2125789
tp3774
sS'New Haven'
p3775
(F41.2795414
F-72.8150989
tp3776
sS'Middlesex'
p3777
(F41.5950989
F-72.6453705
tp3778
sS'Litchfield'
p3779
(F41.6739862
F-73.073164
tp3780
sS'Fairfield'
p3781
(F41.1412078
F-73.2637258
tp3782
sS'Tolland'
p3783
(F41.7689878
F-72.4334173
tp3784
sS'Windham'
p3785
(F41.8464872
F-71.8875721
tp3786
sS'Hartford'
p3787
(F41.7637111
F-72.6850932
tp3788
ssS'ME'
p3789
(dp3790
S'Penobscot'
p3791
(F44.9342349
F-68.6453092
tp3792
sS'Sagadahoc'
p3793
(F43.9186905
F-69.8011576
tp3794
sS'Lincoln'
p3795
(F44.0328573
F-69.5186585
tp3796
sS'Cumberland'
p3797
(F43.661471
F-70.2553259
tp3798
sS'Waldo'
p3799
(F44.38924
F-69.3028205
tp3800
sS'Washington'
p3801
(F44.7909119
F-67.1755412
tp3802
sS'Hancock'
p3803
(F44.5434095
F-68.4194642
tp3804
sS'Androscoggin'
p3805
(F44.100351
F-70.2147764
tp3806
sS'Aroostook'
p3807
(F46.1261637
F-67.8402961
tp3808
sS'Piscataquis'
p3809
(F45.1336651
F-69.4331038
tp3810
sS'York'
p3811
(F43.5009176
F-70.4428286
tp3812
sS'Franklin'
p3813
(F44.8231128
F-70.3395105
tp3814
sS'Oxford'
p3815
(F44.0164588
F-70.9806238
tp3816
sS'Knox'
p3817
(F44.2650774
F-69.1589289
tp3818
sS'Somerset'
p3819
(F44.7825642
F-69.3833814
tp3820
sS'Kennebec'
p3821
(F44.5520105
F-69.6317121
tp3822
ssS'MD'
p3823
(dp3824
S'Howard'
p3825
(F39.2403841
F-76.8394184
tp3826
sS'Carroll'
p3827
(F39.3737149
F-76.9677566
tp3828
sS'Garrett'
p3829
(F39.6950833
F-79.1511411
tp3830
sS'Montgomery'
p3831
(F39.0181651
F-77.2085914
tp3832
sS'Kent'
p3833
(F39.2089986
F-76.0666126
tp3834
sS'Somerset'
p3835
(F37.9834575
F-75.8538211
tp3836
sS'Caroline'
p3837
(F38.6942809
F-75.7721551
tp3838
sS'Dorchester'
p3839
(F38.2681785
F-76.0677155
tp3840
sS'Baltimore (city)'
p3841
(F39.2903848
F-76.6121893
tp3842
sS"Prince George's"
p3843
(F38.8140024
F-76.9455296
tp3844
sS'Harford'
p3845
(F39.492608
F-76.3205142
tp3846
sS'Anne Arundel'
p3847
(F38.9784453
F-76.4921829
tp3848
sS'Frederick'
p3849
(F39.5742655
F-77.5505444
tp3850
sS'Allegany'
p3851
(F39.5675895
F-78.83891
tp3852
sS"St. Mary's"
p3853
(F38.2367924
F-76.4971762
tp3854
sS'Wicomico'
p3855
(F38.3606736
F-75.5993692
tp3856
sS'Baltimore'
p3857
(F39.4014955
F-76.6019125
tp3858
sS"Queen Anne's"
p3859
(F38.9806679
F-76.3143999
tp3860
sS'Charles'
p3861
(F38.2584626
F-76.8438581
tp3862
sS'Washington'
p3863
(F39.6417629
F-77.7199932
tp3864
sS'Worcester'
p3865
(F38.3365033
F-75.0849058
tp3866
sS'Talbot'
p3867
(F38.7792822
F-76.0479961
tp3868
sS'Calvert'
p3869
(F38.6159533
F-76.613015
tp3870
sS'Cecil'
p3871
(F39.6067789
F-75.8332718
tp3872
ssS'MA'
p3873
(dp3874
S'Hampden'
p3875
(F42.1237053
F-72.4314731
tp3876
sS'Nantucket'
p3877
(F41.2834563
F-70.0994605
tp3878
sS'Middlesex'
p3879
(F42.4906499
F-71.2761686
tp3880
sS'Berkshire'
p3881
(F42.4381417
F-73.0459339
tp3882
sS'Essex'
p3883
(F42.6159286
F-70.6619888
tp3884
sS'Hampshire'
p3885
(F42.3803676
F-72.523143
tp3886
sS'Worcester'
p3887
(F42.4556475
F-71.6731246
tp3888
sS'Norfolk'
p3889
(F42.0667652
F-71.3281114
tp3890
sS'Plymouth'
p3891
(F41.9584367
F-70.6672577
tp3892
sS'Franklin'
p3893
(F42.5875857
F-72.5995339
tp3894
sS'Bristol'
p3895
(F41.7695463
F-71.128656
tp3896
sS'Dukes'
p3897
(F41.3890052
F-70.5133599
tp3898
sS'Barnstable'
p3899
(F41.8651071
F-69.9911305
tp3900
sS'Suffolk'
p3901
(F42.3750973
F-71.0392173
tp3902
ssS'OH'
p3903
(dp3904
S'Preble'
p3905
(F39.6478321
F-84.5271711
tp3906
sS'Richland'
p3907
(F40.75839
F-82.5154471
tp3908
sS'Shelby'
p3909
(F40.4394935
F-84.0402203
tp3910
sS'Union'
p3911
(F40.1606156
F-83.3946433
tp3912
sS'Paulding'
p3913
(F41.095605
F-84.3805036
tp3914
sS'Montgomery'
p3915
(F39.7589478
F-84.1916069
tp3916
sS'Wayne'
p3917
(F40.8050565
F-81.935143
tp3918
sS'Brown'
p3919
(F38.7456277
F-83.8449245
tp3920
sS'Champaign'
p3921
(F40.1917242
F-83.6190948
tp3922
sS'Defiance'
p3923
(F41.2844933
F-84.3557802
tp3924
sS'Miami'
p3925
(F40.0394982
F-84.2032767
tp3926
sS'Hancock'
p3927
(F41.0442201
F-83.6499321
tp3928
sS'Lorain'
p3929
(F41.5053178
F-82.0282001
tp3930
sS'Columbiana'
p3931
(F40.7720044
F-80.7681336
tp3932
sS'Muskingum'
p3933
(F39.9403453
F-82.0131924
tp3934
sS'Washington'
p3935
(F39.2739639
F-81.5729029
tp3936
sS'Gallia'
p3937
(F38.809803
F-82.2023691
tp3938
sS'Marion'
p3939
(F40.6878354
F-83.2124167
tp3940
sS'Allen'
p3941
(F40.742551
F-84.1052256
tp3942
sS'Huron'
p3943
(F41.2425531
F-82.6157331
tp3944
sS'Darke'
p3945
(F40.1028264
F-84.6330115
tp3946
sS'Warren'
p3947
(F39.5589474
F-84.3041074
tp3948
sS'Perry'
p3949
(F39.7053462
F-82.2912613
tp3950
sS'Jackson'
p3951
(F38.856465
F-82.6290524
tp3952
sS'Belmont'
p3953
(F39.9561849
F-80.7836976
tp3954
sS'Wyandot'
p3955
(F40.8272785
F-83.2813089
tp3956
sS'Jefferson'
p3957
(F40.3553457
F-80.7642483
tp3958
sS'Ashtabula'
p3959
(F41.9475551
F-80.5542409
tp3960
sS'Butler'
p3961
(F39.3995008
F-84.5613355
tp3962
sS'Ross'
p3963
(F39.3331197
F-82.9824019
tp3964
sS'Vinton'
p3965
(F39.2464596
F-82.4784898
tp3966
sS'Hamilton'
p3967
(F39.1620036
F-84.4568863
tp3968
sS'Scioto'
p3969
(F38.77202
F-83.0154529
tp3970
sS'Greene'
p3971
(F39.6847822
F-83.9296526
tp3972
sS'Fulton'
p3973
(F41.5492182
F-84.1416147
tp3974
sS'Seneca'
p3975
(F41.1144992
F-83.1779747
tp3976
sS'Madison'
p3977
(F39.9375608
F-83.4065858
tp3978
sS'Clinton'
p3979
(F39.4014502
F-83.9813202
tp3980
sS'Clark'
p3981
(F39.9242266
F-83.8088172
tp3982
sS'Trumbull'
p3983
(F41.1564463
F-80.569239
tp3984
sS'Erie'
p3985
(F41.3950489
F-82.5551733
tp3986
sS'Cuyahoga'
p3987
(F41.4847663
F-81.9220845
tp3988
sS'Meigs'
p3989
(F39.0642437
F-82.1198666
tp3990
sS'Delaware'
p3991
(F40.1983958
F-83.0101843
tp3992
sS'Stark'
p3993
(F40.8372809
F-81.2595519
tp3994
sS'Fairfield'
p3995
(F39.6620105
F-82.4334885
tp3996
sS'Geauga'
p3997
(F41.3864428
F-81.339553
tp3998
sS'Coshocton'
p3999
(F40.21396
F-81.8817982
tp4000
sS'Lawrence'
p4001
(F38.630357
F-82.6673852
tp4002
sS'Fayette'
p4003
(F39.5364511
F-83.4390843
tp4004
sS'Medina'
p4005
(F41.2381096
F-81.8418007
tp4006
sS'Van Wert'
p4007
(F40.8694927
F-84.5841223
tp4008
sS'Pike'
p4009
(F39.0306272
F-82.8243382
tp4010
sS'Adams'
p4011
(F38.9928471
F-83.4643594
tp4012
sS'Clermont'
p4013
(F39.0770072
F-84.1768795
tp4014
sS'Licking'
p4015
(F39.9956193
F-82.6743341
tp4016
sS'Lake'
p4017
(F41.6331034
F-81.4687274
tp4018
sS'Morrow'
p4019
(F40.7114468
F-82.7457341
tp4020
sS'Summit'
p4021
(F41.012833
F-81.6051221
tp4022
sS'Franklin'
p4023
(F40.0992294
F-83.1140771
tp4024
sS'Guernsey'
p4025
(F39.9342386
F-81.4623419
tp4026
sS'Highland'
p4027
(F39.1447868
F-83.7379796
tp4028
sS'Holmes'
p4029
(F40.6145051
F-81.8679166
tp4030
sS'Morgan'
p4031
(F39.639795
F-81.6237389
tp4032
sS'Carroll'
p4033
(F40.5728404
F-81.0856532
tp4034
sS'Harrison'
p4035
(F40.2728452
F-80.9967628
tp4036
sS'Mercer'
p4037
(F40.4797688
F-84.628291
tp4038
sS'Mahoning'
p4039
(F41.0031141
F-80.7856355
tp4040
sS'Portage'
p4041
(F41.1575566
F-81.2420473
tp4042
sS'Sandusky'
p4043
(F41.3503303
F-83.1218634
tp4044
sS'Athens'
p4045
(F39.3292396
F-82.1012555
tp4046
sS'Hocking'
p4047
(F39.473397
F-82.7393363
tp4048
sS'Wood'
p4049
(F41.3747744
F-83.6513229
tp4050
sS'Crawford'
p4051
(F40.9622785
F-82.8543501
tp4052
sS'Williams'
p4053
(F41.4747732
F-84.5524508
tp4054
sS'Noble'
p4055
(F39.7967389
F-81.3359494
tp4056
sS'Tuscarawas'
p4057
(F40.2336795
F-81.3442776
tp4058
sS'Knox'
p4059
(F40.4475643
F-82.2601584
tp4060
sS'Putnam'
p4061
(F41.0289404
F-84.0791114
tp4062
sS'Hardin'
p4063
(F40.6469982
F-83.6096516
tp4064
sS'Lucas'
p4065
(F41.7189392
F-83.7129935
tp4066
sS'Ottawa'
p4067
(F41.5119954
F-82.9376919
tp4068
sS'Auglaize'
p4069
(F40.5678265
F-84.1935594
tp4070
sS'Ashland'
p4071
(F40.8686675
F-82.3182178
tp4072
sS'Pickaway'
p4073
(F39.7156186
F-82.9529584
tp4074
sS'Logan'
p4075
(F40.338388
F-83.6771533
tp4076
sS'Monroe'
p4077
(F39.7650722
F-81.2412235
tp4078
ssS'UT'
p4079
(dp4080
S'San Juan'
p4081
(F37.0194409
F-110.7912486
tp4082
sS'Wasatch'
p4083
(F40.5068991
F-111.4132388
tp4084
sS'Utah'
p4085
(F40.3141169
F-112.006882
tp4086
sS'Millard'
p4087
(F39.24496
F-112.1041015
tp4088
sS'Cache'
p4089
(F41.7354862
F-111.834388
tp4090
sS'Wayne'
p4091
(F38.3969236
F-111.589627
tp4092
sS'Grand'
p4093
(F38.5733155
F-109.5498395
tp4094
sS'Weber'
p4095
(F41.223
F-111.9738304
tp4096
sS'Juab'
p4097
(F39.7102336
F-111.8363216
tp4098
sS'Tooele'
p4099
(F40.5307776
F-112.29828
tp4100
sS'Sevier'
p4101
(F38.6871925
F-112.122426
tp4102
sS'Sanpete'
p4103
(F39.626351
F-111.4396325
tp4104
sS'Carbon'
p4105
(F39.5994095
F-110.8107148
tp4106
sS'Emery'
p4107
(F39.3488582
F-110.8515521
tp4108
sS'Duchesne'
p4109
(F40.299403
F-109.9887605
tp4110
sS'Iron'
p4111
(F37.6774769
F-113.0618931
tp4112
sS'Davis'
p4113
(F41.0893878
F-112.0646657
tp4114
sS'Kane'
p4115
(F37.3177609
F-112.5971542
tp4116
sS'Washington'
p4117
(F37.1888714
F-112.9985515
tp4118
sS'Garfield'
p4119
(F37.7702663
F-111.602119
tp4120
sS'Summit'
p4121
(F40.6460622
F-111.4979729
tp4122
sS'Salt Lake'
p4123
(F40.6110589
F-111.8999353
tp4124
sS'Beaver'
p4125
(F38.2769149
F-112.6410518
tp4126
sS'Uintah'
p4127
(F40.4555157
F-109.5287479
tp4128
sS'Box Elder'
p4129
(F41.4091053
F-112.0360557
tp4130
ssS'MO'
p4131
(dp4132
S'Mississippi'
p4133
(F36.7797776
F-89.3856298
tp4134
sS'Shelby'
p4135
(F39.7419808
F-92.2585152
tp4136
sS'Barry'
p4137
(F36.6322872
F-93.6343588
tp4138
sS'Montgomery'
p4139
(F38.9103198
F-91.4482167
tp4140
sS'Dunklin'
p4141
(F36.5570028
F-89.9664798
tp4142
sS'Wayne'
p4143
(F36.9711635
F-90.5495598
tp4144
sS'St. Francois'
p4145
(F37.7808846
F-90.4217895
tp4146
sS'Worth'
p4147
(F0.0
F0.0
tp4148
sS'Texas'
p4149
(F37.4994884
F-91.8570984
tp4150
sS'Laclede'
p4151
(F37.6805968
F-92.6637865
tp4152
sS'Hickory'
p4153
(F37.9408663
F-93.2076953
tp4154
sS'Adair'
p4155
(F40.2319728
F-92.708531
tp4156
sS'Henry'
p4157
(F38.3094675
F-93.5465974
tp4158
sS'Webster'
p4159
(F37.338658
F-92.9071209
tp4160
sS'New Madrid'
p4161
(F36.410618
F-89.9056442
tp4162
sS'Gasconade'
p4163
(F38.7042119
F-91.4373845
tp4164
sS'Newton'
p4165
(F36.8689554
F-94.367996
tp4166
sS'Washington'
p4167
(F37.936438
F-90.7879086
tp4168
sS'Moniteau'
p4169
(F38.6275278
F-92.5665787
tp4170
sS'Marion'
p4171
(F39.9381011
F-91.5237663
tp4172
sS'Jasper'
p4173
(F37.1492253
F-94.4430032
tp4174
sS'Polk'
p4175
(F37.6144838
F-93.4104749
tp4176
sS'Buchanan'
p4177
(F39.7686055
F-94.8466322
tp4178
sS'Warren'
p4179
(F38.8275491
F-91.0201422
tp4180
sS'Perry'
p4181
(F37.7242202
F-89.8612196
tp4182
sS'Jackson'
p4183
(F39.0169509
F-94.2816148
tp4184
sS'Howard'
p4185
(F39.1458654
F-92.6837943
tp4186
sS'Caldwell'
p4187
(F0.0
F0.0
tp4188
sS'Wright'
p4189
(F37.1306078
F-92.2634942
tp4190
sS'Jefferson'
p4191
(F38.4328317
F-90.3776187
tp4192
sS'Taney'
p4193
(F36.6436731
F-93.2185144
tp4194
sS'Butler'
p4195
(F36.7569994
F-90.3928881
tp4196
sS'Putnam'
p4197
(F40.48669
F-92.7635303
tp4198
sS'St. Charles'
p4199
(F38.5725523
F-90.8820811
tp4200
sS'Oregon'
p4201
(F36.5245064
F-91.5381967
tp4202
sS'Stoddard'
p4203
(F36.7958866
F-89.9578688
tp4204
sS'Linn'
p4205
(F39.7119703
F-92.9482526
tp4206
sS'Callaway'
p4207
(F38.8467082
F-91.9479586
tp4208
sS'Pettis'
p4209
(F38.7044609
F-93.2282613
tp4210
sS'Camden'
p4211
(F38.1503113
F-92.6179621
tp4212
sS'Randolph'
p4213
(F39.4183689
F-92.4382367
tp4214
sS'Stone'
p4215
(F36.7300615
F-93.5101903
tp4216
sS'Johnson'
p4217
(F38.7627893
F-93.7360498
tp4218
sS'Barton'
p4219
(F37.3931054
F-94.0938304
tp4220
sS'Maries'
p4221
(F38.1867085
F-91.947112
tp4222
sS'Greene'
p4223
(F37.215326
F-93.2982436
tp4224
sS'Ripley'
p4225
(F36.6208917
F-90.8234551
tp4226
sS'Clay'
p4227
(F39.3391713
F-94.2260559
tp4228
sS'Macon'
p4229
(F39.7422561
F-92.4726859
tp4230
sS'Madison'
p4231
(F37.5728304
F-90.3948416
tp4232
sS'Clinton'
p4233
(F39.7402801
F-94.241057
tp4234
sS'Clark'
p4235
(F40.3628189
F-91.7543323
tp4236
sS'McDonald'
p4237
(F0.0
F0.0
tp4238
sS'Ray'
p4239
(F0.0
F0.0
tp4240
sS'Saline'
p4241
(F38.9636292
F-93.414932
tp4242
sS'Cooper'
p4243
(F38.9736392
F-92.7432418
tp4244
sS'Cass'
p4245
(F38.801953
F-94.4527294
tp4246
sS'Dallas'
p4247
(F37.6439289
F-93.0924093
tp4248
sS'Scotland'
p4249
(F40.4578119
F-92.1712924
tp4250
sS'Morgan'
p4251
(F38.2722523
F-92.719633
tp4252
sS'Lawrence'
p4253
(F37.1036666
F-93.8185401
tp4254
sS'Vernon'
p4255
(F37.8392052
F-94.3546719
tp4256
sS'Ozark'
p4257
(F36.7770036
F-92.2173801
tp4258
sS'Gentry'
p4259
(F0.0
F0.0
tp4260
sS'Cedar'
p4261
(F37.6989279
F-93.796044
tp4262
sS'Pike'
p4263
(F39.491435
F-91.1323619
tp4264
sS'Lincoln'
p4265
(F38.9794923
F-90.9806954
tp4266
sS'Dent'
p4267
(F37.6455993
F-91.5359808
tp4268
sS'Nodaway'
p4269
(F40.3461017
F-94.8724707
tp4270
sS'Franklin'
p4271
(F38.4147749
F-90.8140225
tp4272
sS'Audrain'
p4273
(F39.1697626
F-91.8829484
tp4274
sS'St. Louis (city)'
p4275
(F38.6272733
F-90.1978889
tp4276
sS'Carroll'
p4277
(F0.0
F0.0
tp4278
sS'Ralls'
p4279
(F39.508098
F-91.528766
tp4280
sS'Grundy'
p4281
(F40.0789018
F-93.6166074
tp4282
sS'Harrison'
p4283
(F40.1416732
F-93.8724475
tp4284
sS'Miller'
p4285
(F38.3241964
F-92.6651883
tp4286
sS'Cole'
p4287
(F38.5767017
F-92.1735164
tp4288
sS'Shannon'
p4289
(F36.9911648
F-91.4926376
tp4290
sS'Bollinger'
p4291
(F37.3058871
F-89.9703793
tp4292
sS'Iron'
p4293
(F37.6361578
F-91.0017954
tp4294
sS'Pulaski'
p4295
(F37.8286516
F-92.2007227
tp4296
sS'Crawford'
p4297
(F37.9680999
F-91.354868
tp4298
sS'Christian'
p4299
(F37.0433863
F-93.294353
tp4300
sS'Phelps'
p4301
(F37.9514304
F-91.7712691
tp4302
sS'Andrew'
p4303
(F0.0
F0.0
tp4304
sS'Atchison'
p4305
(F40.5347196
F-95.3191476
tp4306
sS'St. Clair'
p4307
(F38.1400275
F-93.7268774
tp4308
sS'Knox'
p4309
(F39.9800378
F-92.3015738
tp4310
sS'Platte'
p4311
(F39.3702773
F-94.7824609
tp4312
sS'Pemiscot'
p4313
(F36.1931245
F-89.6556353
tp4314
sS'Bates'
p4315
(F38.0964191
F-94.3610616
tp4316
sS'Cape Girardeau'
p4317
(F37.3822732
F-89.6662064
tp4318
sS'Benton'
p4319
(F38.2430811
F-93.3818711
tp4320
sS'Lafayette'
p4321
(F0.0
F0.0
tp4322
sS'Howell'
p4323
(F36.9922768
F-91.9698742
tp4324
sS'Boone'
p4325
(F38.9517053
F-92.3340724
tp4326
sS'St. Louis'
p4327
(F38.5131094
F-90.4359532
tp4328
sS'Carter'
p4329
(F36.9342189
F-90.7467876
tp4330
sS'Lewis'
p4331
(F40.0289308
F-91.9143374
tp4332
sS'Scott'
p4333
(F36.876719
F-89.5878579
tp4334
sS'Reynolds'
p4335
(F37.4536594
F-90.7948435
tp4336
sS'Monroe'
p4337
(F39.6536529
F-91.7346056
tp4338
ssS'MN'
p4339
(dp4340
S'Le Sueur'
p4341
(F44.5432966
F-93.5760652
tp4342
sS'Lyon'
p4343
(F44.4469033
F-95.7883541
tp4344
sS'Hubbard'
p4345
(F46.9221813
F-95.0586322
tp4346
sS'Goodhue'
p4347
(F44.5624676
F-92.5338013
tp4348
sS'Grant'
p4349
(F46.093016
F-95.8175498
tp4350
sS'Steele'
p4351
(F44.0838517
F-93.226044
tp4352
sS'Olmsted'
p4353
(F44.0216306
F-92.4698992
tp4354
sS'Lake'
p4355
(F47.0227111
F-91.6707322
tp4356
sS'Douglas'
p4357
(F45.8852397
F-95.3775379
tp4358
sS'Mower'
p4359
(F43.7096849
F-92.9696363
tp4360
sS'Wright'
p4361
(F45.1719084
F-93.8746941
tp4362
sS'Wilkin'
p4363
(F46.2635701
F-96.588129
tp4364
sS'Nobles'
p4365
(F43.6349663
F-95.932797
tp4366
sS'Pine'
p4367
(F45.8260672
F-92.9685423
tp4368
sS'Rice'
p4369
(F44.4582983
F-93.161604
tp4370
sS'Nicollet'
p4371
(F44.1732996
F-94.0338451
tp4372
sS'Morrison'
p4373
(F46.3366315
F-94.646125
tp4374
sS'Dodge'
p4375
(F44.0280197
F-92.8546377
tp4376
sS'Brown'
p4377
(F44.3124626
F-94.4605287
tp4378
sS'Pennington'
p4379
(F48.1191353
F-96.1811473
tp4380
sS'Norman'
p4381
(F47.4580288
F-96.8184126
tp4382
sS'Mahnomen'
p4383
(F47.3152389
F-95.968654
tp4384
sS'Koochiching'
p4385
(F48.6010491
F-93.4109824
tp4386
sS'Winona'
p4387
(F43.9430192
F-91.6357021
tp4388
sS'Faribault'
p4389
(F43.767733
F-94.1657949
tp4390
sS'Ramsey'
p4391
(F44.9444101
F-93.0932742
tp4392
sS'Cook'
p4393
(F47.6471193
F-90.6748582
tp4394
sS'Watonwan'
p4395
(F43.9824577
F-94.6269181
tp4396
sS'Wabasha'
p4397
(F44.244689
F-92.295731
tp4398
sS'Isanti'
p4399
(F45.7227387
F-93.1707758
tp4400
sS'Mille Lacs'
p4401
(F45.569965
F-93.5816278
tp4402
sS'Kittson'
p4403
(F48.55831
F-96.5919903
tp4404
sS'Lincoln'
p4405
(F44.4996864
F-96.2314295
tp4406
sS'Stearns'
p4407
(F45.737465
F-94.9525216
tp4408
sS'Roseau'
p4409
(F48.8460926
F-95.7627661
tp4410
sS'Freeborn'
p4411
(F43.7607932
F-93.2040929
tp4412
sS'Aitkin'
p4413
(F46.6066151
F-93.313842
tp4414
sS'Traverse'
p4415
(F45.8044052
F-96.499233
tp4416
sS'Hennepin'
p4417
(F44.9799654
F-93.2638361
tp4418
sS'Sibley'
p4419
(F44.5530201
F-94.220531
tp4420
sS'Sherburne'
p4421
(F45.3038538
F-93.5671825
tp4422
sS'Otter Tail'
p4423
(F46.5180161
F-95.3761465
tp4424
sS'Cass'
p4425
(F47.1013462
F-94.5872162
tp4426
sS'Martin'
p4427
(F43.6521779
F-94.7269247
tp4428
sS'Becker'
p4429
(F47.0966263
F-95.8433756
tp4430
sS'Meeker'
p4431
(F45.1505185
F-94.6830533
tp4432
sS'Beltrami'
p4433
(F47.4735633
F-94.8802767
tp4434
sS'St. Louis'
p4435
(F46.7832731
F-92.1065787
tp4436
sS'Houston'
p4437
(F43.5610799
F-91.6359787
tp4438
sS'McLeod'
p4439
(F44.9032959
F-94.1955334
tp4440
sS'Carver'
p4441
(F44.7894072
F-93.6021791
tp4442
sS'Fillmore'
p4443
(F43.7207974
F-91.9768224
tp4444
sS'Renville'
p4445
(F44.5513496
F-94.9844392
tp4446
sS'Pope'
p4447
(F45.6502394
F-95.3897582
tp4448
sS'Crow Wing'
p4449
(F46.2944038
F-93.8269216
tp4450
sS'Anoka'
p4451
(F45.1630223
F-93.0557757
tp4452
sS'Yellow Medicine'
p4453
(F44.7088525
F-96.2764335
tp4454
sS'Washington'
p4455
(F44.9238552
F-92.9593797
tp4456
sS'Kanabec'
p4457
(F45.8769031
F-93.2938352
tp4458
sS'Carlton'
p4459
(F46.6791141
F-92.9599311
tp4460
sS'Scott'
p4461
(F44.6669074
F-93.6269014
tp4462
sS'Itasca'
p4463
(F47.2371658
F-93.5302142
tp4464
sS'Chisago'
p4465
(F45.3869076
F-92.7477114
tp4466
sS'Dakota'
p4467
(F44.7677424
F-93.2777226
tp4468
sS'Blue Earth'
p4469
(F44.1635775
F-93.9993996
tp4470
sS'Polk'
p4471
(F47.6982979
F-96.1411553
tp4472
sS'Clay'
p4473
(F46.8807932
F-96.3167309
tp4474
sS'Kandiyohi'
p4475
(F45.3010756
F-94.9441773
tp4476
ssS'MI'
p4477
(dp4478
S'Mackinac'
p4479
(F46.0041827
F-84.425869
tp4480
sS'Jackson'
p4481
(F42.105874
F-84.2482819
tp4482
sS'Kent'
p4483
(F42.8566988
F-85.3802937
tp4484
sS'Midland'
p4485
(F43.6728053
F-84.3805544
tp4486
sS'Gogebic'
p4487
(F46.4546698
F-90.1710081
tp4488
sS'Ingham'
p4489
(F42.7369792
F-84.4838654
tp4490
sS'Leelanau'
p4491
(F44.9808323
F-85.7150847
tp4492
sS'Lake'
p4493
(F43.9011229
F-85.8517287
tp4494
sS'Calhoun'
p4495
(F42.243097
F-84.7530304
tp4496
sS'Grand Traverse'
p4497
(F44.7630567
F-85.6206317
tp4498
sS'Gladwin'
p4499
(F43.9808549
F-84.4864007
tp4500
sS'Presque Isle'
p4501
(F45.2200137
F-83.5208142
tp4502
sS'Wayne'
p4503
(F42.36837
F-83.3527097
tp4504
sS'Montmorency'
p4505
(F44.8839001
F-84.3055687
tp4506
sS'Keweenaw'
p4507
(F47.4176892
F-88.082606
tp4508
sS'Branch'
p4509
(F41.7967165
F-85.0052424
tp4510
sS'Dickinson'
p4511
(F45.8202334
F-88.0659603
tp4512
sS'Ionia'
p4513
(F42.7847564
F-85.1383367
tp4514
sS'Alpena'
p4515
(F45.0775112
F-83.7160984
tp4516
sS'Crawford'
p4517
(F44.6614039
F-84.7147512
tp4518
sS'Benzie'
p4519
(F44.6336096
F-86.2345396
tp4520
sS'Oscoda'
p4521
(F44.6522362
F-84.1297276
tp4522
sS'Mecosta'
p4523
(F43.7733539
F-85.5025468
tp4524
sS'Tuscola'
p4525
(F43.4911322
F-83.396897
tp4526
sS'Alger'
p4527
(F46.4110574
F-86.6479361
tp4528
sS'Baraga'
p4529
(F46.7565991
F-88.4529085
tp4530
sS'St. Joseph'
p4531
(F41.9439368
F-85.632493
tp4532
sS'Manistee'
p4533
(F44.3222245
F-86.22342
tp4534
sS'Cheboygan'
p4535
(F45.783901
F-84.7278275
tp4536
sS'Van Buren'
p4537
(F42.3608691
F-85.8794636
tp4538
sS'Ogemaw'
p4539
(F44.2764083
F-84.2386132
tp4540
sS'Macomb'
p4541
(F42.5803122
F-83.0302033
tp4542
sS'Roscommon'
p4543
(F44.314739
F-84.7647496
tp4544
sS'Lapeer'
p4545
(F43.0514161
F-83.3188341
tp4546
sS'Delta'
p4547
(F45.7102456
F-87.3048536
tp4548
sS'Oceana'
p4549
(F43.7816728
F-86.4331355
tp4550
sS'Missaukee'
p4551
(F44.3352872
F-85.2150455
tp4552
sS'Mason'
p4553
(F44.0466729
F-86.1786886
tp4554
sS'Emmet'
p4555
(F45.3733428
F-84.9553297
tp4556
sS'Iosco'
p4557
(F44.2694612
F-83.5146973
tp4558
sS'Isabella'
p4559
(F43.5978075
F-84.7675139
tp4560
sS'Houghton'
p4561
(F46.8899335
F-88.8754114
tp4562
sS'Saginaw'
p4563
(F43.4194699
F-83.9508068
tp4564
sS'Berrien'
p4565
(F41.9430986
F-86.5569659
tp4566
sS'Gratiot'
p4567
(F43.3855873
F-84.835568
tp4568
sS'St. Clair'
p4569
(F43.0125274
F-82.9279881
tp4570
sS'Charlevoix'
p4571
(F45.3180632
F-85.2584004
tp4572
sS'Ottawa'
p4573
(F42.8125246
F-86.018651
tp4574
sS'Hillsdale'
p4575
(F41.8394928
F-84.7480134
tp4576
sS'Allegan'
p4577
(F42.6550248
F-86.2019826
tp4578
sS'Luce'
p4579
(F46.3549984
F-85.5095586
tp4580
sS'Livingston'
p4581
(F42.5294773
F-83.7802214
tp4582
sS'Eaton'
p4583
(F42.5636478
F-84.8358211
tp4584
sS'Alcona'
p4585
(F44.5877917
F-83.3163567
tp4586
sS'Iron'
p4587
(F46.0927322
F-88.6423544
tp4588
sS'Cass'
p4589
(F41.7861603
F-85.8677756
tp4590
sS'Newaygo'
p4591
(F43.7430676
F-86.0192321
tp4592
sS'Bay'
p4593
(F43.5944677
F-83.8888648
tp4594
sS'Montcalm'
p4595
(F43.2925317
F-85.0814074
tp4596
sS'Kalamazoo'
p4597
(F42.2917069
F-85.5872286
tp4598
sS'Ontonagon'
p4599
(F46.7657749
F-89.2756983
tp4600
sS'Huron'
p4601
(F43.9411253
F-83.2713468
tp4602
sS'Clinton'
p4603
(F42.842256
F-84.5691487
tp4604
sS'Sanilac'
p4605
(F43.4308578
F-82.5424244
tp4606
sS'Clare'
p4607
(F44.0039086
F-84.7850221
tp4608
sS'Schoolcraft'
p4609
(F45.9577506
F-86.2462523
tp4610
sS'Arenac'
p4611
(F44.0333538
F-84.0227717
tp4612
sS'Chippewa'
p4613
(F46.4952997
F-84.3453169
tp4614
sS'Kalkaska'
p4615
(F44.7341729
F-85.1758873
tp4616
sS'Muskegon'
p4617
(F43.2341813
F-86.2483921
tp4618
sS'Lenawee'
p4619
(F41.9697676
F-84.308279
tp4620
sS'Genesee'
p4621
(F43.0125274
F-83.6874562
tp4622
sS'Antrim'
p4623
(F44.902229
F-85.0608848
tp4624
sS'Wexford'
p4625
(F44.193896
F-85.7145062
tp4626
sS'Shiawassee'
p4627
(F42.8264205
F-84.2194127
tp4628
sS'Washtenaw'
p4629
(F42.2708716
F-83.7263294
tp4630
sS'Otsego'
p4631
(F45.0275126
F-84.6747523
tp4632
sS'Osceola'
p4633
(F44.1025148
F-85.1469835
tp4634
sS'Marquette'
p4635
(F46.5435442
F-87.395417
tp4636
sS'Menominee'
p4637
(F45.1077627
F-87.6142737
tp4638
sS'Oakland'
p4639
(F42.735863
F-83.4188304
tp4640
sS'Barry'
p4641
(F42.6458683
F-85.2908404
tp4642
sS'Monroe'
p4643
(F41.7658819
F-83.6279921
tp4644
ssS'RI'
p4645
(dp4646
S'Providence'
p4647
(F41.8500997
F-71.4661703
tp4648
sS'Newport'
p4649
(F41.4901024
F-71.3128285
tp4650
sS'Bristol'
p4651
(F41.740657
F-71.3086618
tp4652
sS'Kent'
p4653
(F41.7000996
F-71.6828444
tp4654
sS'Washington'
p4655
(F41.3775996
F-71.8272911
tp4656
ssS'KS'
p4657
(dp4658
S'Saline'
p4659
(F38.8402805
F-97.6114237
tp4660
sS'Lyon'
p4661
(F38.506956
F-96.2619425
tp4662
sS'Ellis'
p4663
(F38.8791783
F-99.3267702
tp4664
sS'Russell'
p4665
(F38.8952893
F-98.8598061
tp4666
sS'Nemaha'
p4667
(F39.834165
F-96.0641676
tp4668
sS'Cherokee'
p4669
(F37.0236759
F-94.7355042
tp4670
sS'Harvey'
p4671
(F38.0466779
F-97.3450365
tp4672
sS'Finney'
p4673
(F37.9716898
F-100.8726618
tp4674
sS'Lincoln'
p4675
(F39.0094539
F-98.394228
tp4676
sS'Douglas'
p4677
(F38.9716689
F-95.2352501
tp4678
sS'Montgomery'
p4679
(F37.0373005
F-95.6163665
tp4680
sS'Phillips'
p4681
(F39.7561207
F-99.3239853
tp4682
sS'Jefferson'
p4683
(F39.1958333
F-95.2083035
tp4684
sS'Dickinson'
p4685
(F38.9172216
F-97.2139094
tp4686
sS'Butler'
p4687
(F37.7139041
F-97.1364294
tp4688
sS'Shawnee'
p4689
(F39.0483336
F-95.6780371
tp4690
sS'McPherson'
p4691
(F38.3861194
F-97.4280895
tp4692
sS'Rice'
p4693
(F38.3980652
F-98.0119966
tp4694
sS'Crawford'
p4695
(F37.4108841
F-94.70496
tp4696
sS'Bourbon'
p4697
(F38.015034
F-94.8835775
tp4698
sS'Riley'
p4699
(F39.1836082
F-96.5716694
tp4700
sS'Brown'
p4701
(F39.8525033
F-95.5358156
tp4702
sS'Jackson'
p4703
(F39.4652724
F-95.7363723
tp4704
sS'Labette'
p4705
(F37.3403384
F-95.2610838
tp4706
sS'Gove'
p4707
(F39.112507
F-100.3587474
tp4708
sS'Sherman'
p4709
(F39.350833
F-101.7101722
tp4710
sS'Kearny'
p4711
(F37.9405752
F-101.254892
tp4712
sS'Ness'
p4713
(F38.6402918
F-99.7462292
tp4714
sS'Ford'
p4715
(F37.7527982
F-100.0170787
tp4716
sS'Linn'
p4717
(F38.1778054
F-94.7113471
tp4718
sS'Pratt'
p4719
(F37.6439071
F-98.7375911
tp4720
sS'Barber'
p4721
(F37.090303
F-98.3984073
tp4722
sS'Harper'
p4723
(F37.2866863
F-98.0258945
tp4724
sS'Coffey'
p4725
(F38.0839164
F-95.6344292
tp4726
sS'Greenwood'
p4727
(F37.9794705
F-96.1641647
tp4728
sS'Gray'
p4729
(F37.8066882
F-100.3482003
tp4730
sS'Sheridan'
p4731
(F39.3575049
F-100.441807
tp4732
sS'Rawlins'
p4733
(F39.806668
F-101.0421012
tp4734
sS'Johnson'
p4735
(F38.9822282
F-94.6707917
tp4736
sS'Miami'
p4737
(F38.5722354
F-94.8791294
tp4738
sS'Barton'
p4739
(F38.5180672
F-98.7781394
tp4740
sS'Leavenworth'
p4741
(F39.3111112
F-94.9224637
tp4742
sS'Osage'
p4743
(F38.7538947
F-95.8349868
tp4744
sS'Ottawa'
p4745
(F39.0305556
F-97.5941992
tp4746
sS'Wyandotte'
p4747
(F39.1141708
F-94.627457
tp4748
sS'Pawnee'
p4749
(F38.1805693
F-99.098713
tp4750
sS'Franklin'
p4751
(F38.6155668
F-95.2677515
tp4752
sS'Clay'
p4753
(F39.3769407
F-97.1247428
tp4754
sS'Sedgwick'
p4755
(F37.6922361
F-97.3375448
tp4756
sS'Sumner'
p4757
(F37.2653004
F-97.3717119
tp4758
sS'Cowley'
p4759
(F37.2397486
F-96.9955919
tp4760
sS'Mitchell'
p4761
(F39.4561178
F-98.1061595
tp4762
sS'Geary'
p4763
(F39.1683299
F-96.9125112
tp4764
sS'Seward'
p4765
(F37.0430812
F-100.920999
tp4766
sS'Thomas'
p4767
(F39.3958369
F-101.0523773
tp4768
sS'Rooks'
p4769
(F39.4380656
F-99.2650967
tp4770
sS'Kingman'
p4771
(F37.6458491
F-98.1136734
tp4772
sS'Neosho'
p4773
(F37.6792135
F-95.4572034
tp4774
sS'Rush'
p4775
(F38.5227908
F-99.1973224
tp4776
sS'Reno'
p4777
(F38.0608445
F-97.9297743
tp4778
sS'Hodgeman'
p4779
(F38.0844625
F-99.8934619
tp4780
sS'Logan'
p4781
(F39.133341
F-100.8637593
tp4782
sS'Marion'
p4783
(F38.3483493
F-97.017245
tp4784
sS'Cloud'
p4785
(F39.5994495
F-97.8611542
tp4786
sS'Allen'
p4787
(F37.8105961
F-95.4369264
tp4788
sS'Morton'
p4789
(F37.0080792
F-101.8901664
tp4790
sS'Graham'
p4791
(F39.351116
F-99.9723477
tp4792
sS'Marshall'
p4793
(F39.8411129
F-96.647242
tp4794
sS'Pottawatomie'
p4795
(F39.2019412
F-96.3049976
tp4796
ssS'MT'
p4797
(dp4798
S'Judith Basin'
p4799
(F47.0533007
F-109.9104723
tp4800
sS'Glacier'
p4801
(F48.6330395
F-112.3261618
tp4802
sS'Silver Bow'
p4803
(F46.0038153
F-112.5347447
tp4804
sS'Daniels'
p4805
(F48.7925243
F-105.4208268
tp4806
sS'Petroleum'
p4807
(F47.002759
F-108.3520716
tp4808
sS'Lake'
p4809
(F47.6935498
F-114.1631719
tp4810
sS'Phillips'
p4811
(F47.9177736
F-108.5262585
tp4812
sS'Jefferson'
p4813
(F46.5377111
F-111.9327688
tp4814
sS'Hill'
p4815
(F48.549999
F-109.6840887
tp4816
sS'Valley'
p4817
(F48.1969637
F-106.6367127
tp4818
sS'Powell'
p4819
(F46.3957608
F-112.7300383
tp4820
sS'Sanders'
p4821
(F47.4602135
F-114.8829119
tp4822
sS'Custer'
p4823
(F46.4083362
F-105.8405582
tp4824
sS'Park'
p4825
(F45.6624354
F-110.5610396
tp4826
sS'Chouteau'
p4827
(F48.1785915
F-110.1121523
tp4828
sS'Meagher'
p4829
(F46.548277
F-110.9021561
tp4830
sS'Wheatland'
p4831
(F46.4355121
F-109.8343499
tp4832
sS'Yellowstone'
p4833
(F45.7832856
F-108.5006904
tp4834
sS'Carbon'
p4835
(F45.1857782
F-109.2468211
tp4836
sS'Stillwater'
p4837
(F45.6327243
F-108.9179269
tp4838
sS'Flathead'
p4839
(F48.1957925
F-114.3129081
tp4840
sS'Lincoln'
p4841
(F48.8799647
F-115.0535001
tp4842
sS'Mineral'
p4843
(F47.1165912
F-114.7801276
tp4844
sS'Fergus'
p4845
(F47.0624732
F-109.428238
tp4846
sS'Big Horn'
p4847
(F45.6016413
F-107.4611944
tp4848
sS'Ravalli'
p4849
(F46.6315897
F-114.0789959
tp4850
sS'Missoula'
p4851
(F46.872146
F-113.9939982
tp4852
sS'Cascade'
p4853
(F47.5002354
F-111.3008083
tp4854
sS'Roosevelt'
p4855
(F48.0905736
F-105.6405566
tp4856
sS'Beaverhead'
p4857
(F45.3679793
F-113.4089438
tp4858
sS'Lewis and Clark'
p4859
(F46.5896567
F-111.9155461
tp4860
sS'Sweet Grass'
p4861
(F45.8349395
F-109.9554647
tp4862
sS'Pondera'
p4863
(F48.1702505
F-111.9461301
tp4864
sS'Deer Lodge'
p4865
(F46.1285369
F-112.9422641
tp4866
sS'Rosebud'
p4867
(F45.6230476
F-106.6666984
tp4868
sS'Prairie'
p4869
(F46.7930626
F-105.3122086
tp4870
sS'Blaine'
p4871
(F47.9891595
F-108.6943234
tp4872
sS'Dawson'
p4873
(F47.1052899
F-104.7124597
tp4874
sS'Toole'
p4875
(F48.5052631
F-111.8569667
tp4876
sS'Gallatin'
p4877
(F45.6796526
F-111.0385582
tp4878
ssS'MS'
p4879
(dp4880
S'Yalobusha'
p4881
(F34.1514989
F-89.6314736
tp4882
sS'Yazoo'
p4883
(F32.8551326
F-90.4056469
tp4884
sS'Jackson'
p4885
(F30.4113097
F-88.8278058
tp4886
sS'Sunflower'
p4887
(F33.4509513
F-90.6550917
tp4888
sS'Leake'
p4889
(F32.7326356
F-89.5361825
tp4890
sS'Tate'
p4891
(F34.6176032
F-89.9687011
tp4892
sS'Pontotoc'
p4893
(F34.3076058
F-89.1781251
tp4894
sS'Smith'
p4895
(F31.9834895
F-89.520902
tp4896
sS'Calhoun'
p4897
(F33.9920553
F-89.3489641
tp4898
sS'Hinds'
p4899
(F32.2987573
F-90.1848103
tp4900
sS'Bolivar'
p4901
(F33.7440023
F-90.7248187
tp4902
sS'Tishomingo'
p4903
(F34.5098193
F-88.20921
tp4904
sS'Covington'
p4905
(F31.5623892
F-89.4975669
tp4906
sS'Perry'
p4907
(F31.343786
F-89.1397794
tp4908
sS'Webster'
p4909
(F33.5406769
F-89.2670124
tp4910
sS'Wilkinson'
p4911
(F31.104619
F-91.2995551
tp4912
sS'Newton'
p4913
(F32.5715272
F-89.1214478
tp4914
sS'Lamar'
p4915
(F31.4173935
F-89.5422909
tp4916
sS'Noxubee'
p4917
(F33.1054039
F-88.5608767
tp4918
sS'Lee'
p4919
(F34.2576067
F-88.7033859
tp4920
sS'Pearl River'
p4921
(F30.5254692
F-89.6795084
tp4922
sS'Rankin'
p4923
(F32.3095903
F-90.1389757
tp4924
sS'Walthall'
p4925
(F31.1160119
F-90.1420331
tp4926
sS'Amite'
p4927
(F31.1973959
F-91.0217703
tp4928
sS'Scott'
p4929
(F32.3537557
F-89.6545171
tp4930
sS'DeSoto'
p4931
(F34.823987
F-89.9937018
tp4932
sS'Choctaw'
p4933
(F33.3101243
F-89.1728434
tp4934
sS'Prentiss'
p4935
(F34.5020433
F-88.4689382
tp4936
sS'Clarke'
p4937
(F31.9070982
F-88.7125421
tp4938
sS'Alcorn'
p4939
(F34.9342548
F-88.5222702
tp4940
sS'Jones'
p4941
(F31.6940509
F-89.1306124
tp4942
sS'Pike'
p4943
(F31.1432328
F-90.4587081
tp4944
sS'Adams'
p4945
(F31.5604442
F-91.403171
tp4946
sS'Humphreys'
p4947
(F33.1842912
F-90.4892563
tp4948
sS'Hancock'
p4949
(F30.2868632
F-89.3761587
tp4950
sS'Leflore'
p4951
(F33.5162315
F-90.1795281
tp4952
sS'Coahoma'
p4953
(F34.2001086
F-90.5709323
tp4954
sS'Lafayette'
p4955
(F34.3264959
F-89.5236929
tp4956
sS'Franklin'
p4957
(F31.4723928
F-90.8967682
tp4958
sS'Grenada'
p4959
(F33.7690049
F-89.8084192
tp4960
sS'Simpson'
p4961
(F32.0020993
F-90.1989754
tp4962
sS'Kemper'
p4963
(F32.751245
F-88.8300516
tp4964
sS'Lauderdale'
p4965
(F32.4979183
F-88.8458832
tp4966
sS'Madison'
p4967
(F32.4284761
F-90.1323087
tp4968
sS'Panola'
p4969
(F34.3114982
F-89.9442567
tp4970
sS'Tunica'
p4971
(F34.6845455
F-90.382877
tp4972
sS'Quitman'
p4973
(F34.2565001
F-90.2720375
tp4974
sS'Marshall'
p4975
(F34.8723179
F-89.6906396
tp4976
sS'Winston'
p4977
(F33.1237377
F-89.0550624
tp4978
sS'Washington'
p4979
(F33.4101161
F-91.0617735
tp4980
sS'Itawamba'
p4981
(F34.2178846
F-88.5100477
tp4982
sS'George'
p4983
(F30.9251869
F-88.5900235
tp4984
sS'Holmes'
p4985
(F33.075129
F-89.8545276
tp4986
sS'Wayne'
p4987
(F31.5687743
F-88.4839129
tp4988
sS'Marion'
p4989
(F31.0362936
F-89.8047993
tp4990
sS'Jasper'
p4991
(F31.8668234
F-89.2633939
tp4992
sS'Harrison'
p4993
(F30.3674198
F-89.0928155
tp4994
sS'Attala'
p4995
(F33.0576295
F-89.5875764
tp4996
sS'Jefferson Davis'
p4997
(F31.5379472
F-89.7950766
tp4998
sS'Oktibbeha'
p4999
(F33.4503998
F-88.8183872
tp5000
sS'Lowndes'
p5001
(F33.4956744
F-88.4272627
tp5002
sS'Forrest'
p5003
(F31.3271189
F-89.2903392
tp5004
sS'Copiah'
p5005
(F31.8009956
F-90.324257
tp5006
sS'Monroe'
p5007
(F33.9842768
F-88.488099
tp5008
sS'Warren'
p5009
(F32.3526457
F-90.8778821
tp5010
ssS'SC'
p5011
(dp5012
S'Lancaster'
p5013
(F34.6729271
F-80.7189578
tp5014
sS'Colleton'
p5015
(F32.9051704
F-80.6667688
tp5016
sS'Richland'
p5017
(F34.0007104
F-81.0348144
tp5018
sS'Cherokee'
p5019
(F35.0717945
F-81.6498195
tp5020
sS'Sumter'
p5021
(F33.9204354
F-80.3414693
tp5022
sS'Greenville'
p5023
(F34.8526176
F-82.3940105
tp5024
sS'Fairfield'
p5025
(F34.2518165
F-81.2550938
tp5026
sS'Kershaw'
p5027
(F34.1709826
F-80.794252
tp5028
sS'Anderson'
p5029
(F34.7023389
F-82.4645714
tp5030
sS'Abbeville'
p5031
(F34.1781719
F-82.3790148
tp5032
sS'Horry'
p5033
(F33.6890603
F-78.8866943
tp5034
sS'Spartanburg'
p5035
(F35.0470617
F-82.0901088
tp5036
sS'Pickens'
p5037
(F34.8834489
F-82.7073573
tp5038
sS'Georgetown'
p5039
(F33.4332236
F-79.1214313
tp5040
sS'Lee'
p5041
(F34.2182107
F-80.2484056
tp5042
sS'Clarendon'
p5043
(F33.6951627
F-80.2109134
tp5044
sS'Marlboro'
p5045
(F34.5304359
F-79.701171
tp5046
sS'Saluda'
p5047
(F34.0015232
F-81.7720522
tp5048
sS'Oconee'
p5049
(F34.6648197
F-83.0965425
tp5050
sS'Newberry'
p5051
(F34.5029146
F-81.6114932
tp5052
sS'York'
p5053
(F34.9248667
F-81.0250784
tp5054
sS'Berkeley'
p5055
(F32.9857275
F-80.1098123
tp5056
sS'Beaufort'
p5057
(F32.4315813
F-80.6698286
tp5058
sS'Greenwood'
p5059
(F34.1954001
F-82.1617883
tp5060
sS'Orangeburg'
p5061
(F33.4354328
F-80.9209272
tp5062
sS'Laurens'
p5063
(F34.6081774
F-82.113438
tp5064
sS'Williamsburg'
p5065
(F33.6590552
F-79.5133935
tp5066
sS'Lexington'
p5067
(F33.9815369
F-81.2362107
tp5068
sS'Chester'
p5069
(F34.8040264
F-81.2392529
tp5070
sS'Charleston'
p5071
(F32.7940651
F-79.8625851
tp5072
sS'Chesterfield'
p5073
(F34.7732102
F-80.3917315
tp5074
sS'Dorchester'
p5075
(F33.0185039
F-80.1756481
tp5076
sS'Hampton'
p5077
(F32.7457295
F-80.9278856
tp5078
sS'Aiken'
p5079
(F33.5018026
F-81.9651153
tp5080
sS'Dillon'
p5081
(F34.4165505
F-79.3711579
tp5082
sS'Jasper'
p5083
(F32.4807435
F-80.980386
tp5084
sS'Darlington'
p5085
(F34.2998762
F-79.8761741
tp5086
sS'Barnwell'
p5087
(F33.1351522
F-81.4312186
tp5088
sS'Florence'
p5089
(F34.2365434
F-79.7345054
tp5090
ssS'KY'
p5091
(dp5092
S'Metcalfe'
p5093
(F36.9800563
F-85.6121906
tp5094
sS'Daviess'
p5095
(F37.7742152
F-87.1133304
tp5096
sS'Russell'
p5097
(F37.0561788
F-85.0885667
tp5098
sS'Shelby'
p5099
(F38.22257
F-85.3552349
tp5100
sS'Union'
p5101
(F37.6833776
F-87.9166916
tp5102
sS'Montgomery'
p5103
(F38.0564679
F-83.9432556
tp5104
sS'Wayne'
p5105
(F36.8297937
F-84.8491126
tp5106
sS'Bourbon'
p5107
(F38.2097987
F-84.2529869
tp5108
sS'Powell'
p5109
(F37.8456373
F-83.8582525
tp5110
sS'Boyle'
p5111
(F37.6456329
F-84.7721702
tp5112
sS'Henderson'
p5113
(F37.8361538
F-87.5900134
tp5114
sS'Breckinridge'
p5115
(F37.5900543
F-86.5488713
tp5116
sS'Casey'
p5117
(F37.3184064
F-84.9393979
tp5118
sS'Adair'
p5119
(F37.2428449
F-85.1894035
tp5120
sS'McCreary'
p5121
(F36.7436893
F-84.4807721
tp5122
sS'Nelson'
p5123
(F37.8092279
F-85.4669025
tp5124
sS'Henry'
p5125
(F38.4622879
F-85.3035678
tp5126
sS'Barren'
p5127
(F36.995884
F-85.9119215
tp5128
sS'Bullitt'
p5129
(F37.9883991
F-85.7157924
tp5130
sS'Trimble'
p5131
(F38.7236714
F-85.3694018
tp5132
sS'Marion'
p5133
(F37.5697869
F-85.2527381
tp5134
sS'Allen'
p5135
(F36.7533781
F-86.1905424
tp5136
sS'Warren'
p5137
(F36.9903199
F-86.4436018
tp5138
sS'Perry'
p5139
(F37.24954
F-83.1932284
tp5140
sS'Graves'
p5141
(F36.9203351
F-88.520045
tp5142
sS'Grant'
p5143
(F38.6820123
F-84.5899426
tp5144
sS'Oldham'
p5145
(F38.3242355
F-85.4724593
tp5146
sS'Mason'
p5147
(F38.6411854
F-83.744365
tp5148
sS'Wolfe'
p5149
(F37.7342526
F-83.547409
tp5150
sS'Anderson'
p5151
(F38.0372967
F-84.8966171
tp5152
sS'Jefferson'
p5153
(F38.2542376
F-85.759407
tp5154
sS'Breathitt'
p5155
(F37.5531457
F-83.3835135
tp5156
sS'Kenton'
p5157
(F39.0167275
F-84.6007773
tp5158
sS'Boyd'
p5159
(F38.4784144
F-82.6379387
tp5160
sS'McLean'
p5161
(F37.5389351
F-87.2583316
tp5162
sS'Johnson'
p5163
(F37.8145384
F-82.8071054
tp5164
sS'Hopkins'
p5165
(F37.3281005
F-87.4988882
tp5166
sS'Whitley'
p5167
(F36.7434169
F-84.1596561
tp5168
sS'Woodford'
p5169
(F38.052576
F-84.7299464
tp5170
sS'Green'
p5171
(F37.2608936
F-85.4988548
tp5172
sS'Clay'
p5173
(F37.14643
F-83.904847
tp5174
sS'Ohio'
p5175
(F37.3442149
F-86.7547121
tp5176
sS'Spencer'
p5177
(F38.0317304
F-85.3424533
tp5178
sS'Fulton'
p5179
(F36.5042277
F-88.874226
tp5180
sS'Madison'
p5181
(F37.7478572
F-84.2946539
tp5182
sS'Taylor'
p5183
(F37.3433974
F-85.3419069
tp5184
sS'Clark'
p5185
(F0.0
F0.0
tp5186
sS'Todd'
p5187
(F36.8100425
F-87.1541675
tp5188
sS'Grayson'
p5189
(F37.4800544
F-86.2938637
tp5190
sS'Hart'
p5191
(F37.179496
F-85.9069175
tp5192
sS'Lyon'
p5193
(F37.0944971
F-88.080301
tp5194
sS'Morgan'
p5195
(F37.8120323
F-83.3335131
tp5196
sS'Magoffin'
p5197
(F37.7525922
F-83.0687816
tp5198
sS'Jessamine'
p5199
(F37.8806341
F-84.5729961
tp5200
sS'Letcher'
p5201
(F37.1956586
F-82.6990458
tp5202
sS'Jackson'
p5203
(F37.3753724
F-83.9037059
tp5204
sS'Lawrence'
p5205
(F38.1142544
F-82.6032119
tp5206
sS'Trigg'
p5207
(F36.8650496
F-87.835295
tp5208
sS'McCracken'
p5209
(F37.0831102
F-88.7442202
tp5210
sS'Fayette'
p5211
(F37.9886892
F-84.4777153
tp5212
sS'Floyd'
p5213
(F37.6656527
F-82.7715486
tp5214
sS'Pike'
p5215
(F37.6203804
F-82.2690294
tp5216
sS'Lincoln'
p5217
(F37.4731315
F-84.8157827
tp5218
sS'Ballard'
p5219
(F36.9647754
F-89.0892349
tp5220
sS'Livingston'
p5221
(F37.0031109
F-88.2344746
tp5222
sS'Harlan'
p5223
(F36.8892571
F-83.0551667
tp5224
sS'Franklin'
p5225
(F38.2009055
F-84.8732836
tp5226
sS'Larue'
p5227
(F37.5739497
F-85.7399606
tp5228
sS'Bell'
p5229
(F36.6084155
F-83.7165824
tp5230
sS'Marshall'
p5231
(F36.8467216
F-88.2391991
tp5232
sS'Carroll'
p5233
(F38.6808958
F-85.1793979
tp5234
sS'Bath'
p5235
(F38.1200809
F-83.6146346
tp5236
sS'Campbell'
p5237
(F39.1064489
F-84.478831
tp5238
sS'Laurel'
p5239
(F37.0245332
F-84.0752089
tp5240
sS'Mercer'
p5241
(F37.762298
F-84.8432852
tp5242
sS'Gallatin'
p5243
(F38.7145093
F-84.8227255
tp5244
sS'Cumberland'
p5245
(F36.7903399
F-85.3705186
tp5246
sS'Pulaski'
p5247
(F37.0920222
F-84.6041084
tp5248
sS'Rowan'
p5249
(F38.1839705
F-83.4326841
tp5250
sS'Elliott'
p5251
(F38.187861
F-83.0187808
tp5252
sS'Christian'
p5253
(F37.0478218
F-87.4850022
tp5254
sS'Greenup'
p5255
(F38.72091
F-82.9582284
tp5256
sS'Leslie'
p5257
(F37.1609254
F-83.3732373
tp5258
sS'Knox'
p5259
(F36.8664765
F-83.8888138
tp5260
sS'Hancock'
p5261
(F37.9000554
F-86.754988
tp5262
sS'Hardin'
p5263
(F37.8403456
F-85.9491298
tp5264
sS'Meade'
p5265
(F37.9292349
F-86.1794145
tp5266
sS'Boone'
p5267
(F38.9989499
F-84.6266111
tp5268
sS'Garrard'
p5269
(F37.6195246
F-84.5779957
tp5270
sS'Edmonson'
p5271
(F37.1925472
F-86.2677545
tp5272
sS'Simpson'
p5273
(F36.722263
F-86.5772177
tp5274
sS'Muhlenberg'
p5275
(F37.2011539
F-87.1788854
tp5276
sS'Carter'
p5277
(F38.3000809
F-83.1740654
tp5278
sS'Knott'
p5279
(F37.3212123
F-82.8029367
tp5280
sS'Lewis'
p5281
(F38.599243
F-83.3187952
tp5282
sS'Calloway'
p5283
(F36.6103334
F-88.314761
tp5284
sS'Fleming'
p5285
(F38.4222995
F-83.7338076
tp5286
sS'Logan'
p5287
(F36.7889307
F-86.8038857
tp5288
sS'Scott'
p5289
(F38.2097967
F-84.5588311
tp5290
sS'Monroe'
p5291
(F36.7022797
F-85.6916396
tp5292
ssS'OR'
p5293
(dp5294
S'Sherman'
p5295
(F45.3601247
F-120.7856114
tp5296
sS'Jackson'
p5297
(F42.3265153
F-122.8755949
tp5298
sS'Grant'
p5299
(F44.4159883
F-118.95301
tp5300
sS'Union'
p5301
(F45.3245771
F-118.0877188
tp5302
sS'Umatilla'
p5303
(F45.8404101
F-119.2894605
tp5304
sS'Lane'
p5305
(F44.0520691
F-123.0867536
tp5306
sS'Douglas'
p5307
(F43.216505
F-123.3417381
tp5308
sS'Klamath'
p5309
(F42.224867
F-121.7816704
tp5310
sS'Wasco'
p5311
(F45.5945645
F-121.1786823
tp5312
sS'Jefferson'
p5313
(F44.4245638
F-121.2383729
tp5314
sS'Hood River'
p5315
(F45.7053966
F-121.5214623
tp5316
sS'Coos'
p5317
(F43.4065012
F-124.2242803
tp5318
sS'Multnomah'
p5319
(F45.5234515
F-122.6762071
tp5320
sS'Columbia'
p5321
(F45.7542809
F-122.8776039
tp5322
sS'Crook'
p5323
(F44.2998485
F-120.8344664
tp5324
sS'Clackamas'
p5325
(F45.4462305
F-122.6392606
tp5326
sS'Linn'
p5327
(F44.5365119
F-122.9070339
tp5328
sS'Lincoln'
p5329
(F45.0242748
F-123.9465021
tp5330
sS'Wallowa'
p5331
(F45.3543187
F-117.2296126
tp5332
sS'Harney'
p5333
(F43.541538
F-119.5038422
tp5334
sS'Baker'
p5335
(F44.7748748
F-117.8343848
tp5336
sS'Clatsop'
p5337
(F46.1878841
F-123.8312534
tp5338
sS'Benton'
p5339
(F44.5645659
F-123.2620435
tp5340
sS'Lake'
p5341
(F43.127918
F-121.0461084
tp5342
sS'Yamhill'
p5343
(F45.2942822
F-123.1764949
tp5344
sS'Malheur'
p5345
(F44.0265525
F-116.9629378
tp5346
sS'Deschutes'
p5347
(F44.3528981
F-121.1778129
tp5348
sS'Curry'
p5349
(F42.0526114
F-124.2839819
tp5350
sS'Morrow'
p5351
(F45.8956885
F-119.4914117
tp5352
sS'Josephine'
p5353
(F42.439007
F-123.3283925
tp5354
sS'Washington'
p5355
(F45.5228939
F-122.989827
tp5356
sS'Tillamook'
p5357
(F45.7201074
F-123.8940225
tp5358
sS'Marion'
p5359
(F44.9428975
F-123.0350963
tp5360
sS'Polk'
p5361
(F44.8512305
F-123.1867655
tp5362
ssS'SD'
p5363
(dp5364
S'Bon Homme'
p5365
(F43.1497151
F-97.7175669
tp5366
sS'Lyman'
p5367
(F43.903602
F-99.8617834
tp5368
sS'Union'
p5369
(F42.5272168
F-96.4830864
tp5370
sS'Lincoln'
p5371
(F43.3541476
F-96.8919951
tp5372
sS'Brookings'
p5373
(F44.3113573
F-96.7983877
tp5374
sS'Brown'
p5375
(F45.4646985
F-98.4864829
tp5376
sS'Minnehaha'
p5377
(F43.5499749
F-96.700327
tp5378
sS'Pennington'
p5379
(F44.0805434
F-103.2310149
tp5380
sS'Custer'
p5381
(F43.7666507
F-103.5988057
tp5382
sS'Lawrence'
p5383
(F44.376651
F-103.7296416
tp5384
sS'Yankton'
p5385
(F42.8711088
F-97.3972813
tp5386
sS'Codington'
p5387
(F45.0546849
F-97.3298021
tp5388
sS'Day'
p5389
(F45.3321795
F-97.5200891
tp5390
sS'Moody'
p5391
(F43.9991383
F-96.6489366
tp5392
sS'Davison'
p5393
(F43.7094283
F-98.0297992
tp5394
sS'Hughes'
p5395
(F44.3683156
F-100.3509665
tp5396
sS'Hutchinson'
p5397
(F43.1880473
F-97.8386801
tp5398
sS'Edmunds'
p5399
(F45.4444193
F-99.0292784
tp5400
sS'Roberts'
p5401
(F45.6646815
F-97.0498046
tp5402
sS'Meade'
p5403
(F44.4097069
F-103.5090786
tp5404
sS'Clay'
p5405
(F43.0083269
F-97.1067167
tp5406
sS'Gregory'
p5407
(F43.2322227
F-99.4303833
tp5408
sS'Brule'
p5409
(F43.810828
F-99.3306556
tp5410
sS'Fall River'
p5411
(F43.431646
F-103.4743625
tp5412
sS'Marshall'
p5413
(F45.7916192
F-97.7509366
tp5414
sS'Beadle'
p5415
(F44.3633173
F-98.2142572
tp5416
sS'Charles Mix'
p5417
(F43.0797156
F-98.2931342
tp5418
sS'Hyde'
p5419
(F44.2480425
F-99.4531649
tp5420
sS'Kingsbury'
p5421
(F44.3644133
F-97.1331212
tp5422
sS'Todd'
p5423
(F43.2327824
F-100.8534779
tp5424
sS'Lake'
p5425
(F44.0060847
F-97.1139496
tp5426
sS'Turner'
p5427
(F43.2435997
F-97.2795028
tp5428
sS'Dewey'
p5429
(F45.0024802
F-101.233485
tp5430
sS'Shannon'
p5431
(F43.0255408
F-102.5562743
tp5432
ss.