(dp0
S'WA'
p1
(dp2
S'San Juan'
p3
I51
sS'Pend Oreille'
p4
I10
sS'Snohomish'
p5
I9268
sS'Grant'
p6
I532
sS'Lincoln'
p7
I49
sS'Douglas'
p8
I58
sS'Kittitas'
p9
I161
sS'Jefferson'
p10
I85
sS'Wahkiakum'
p11
I2
sS'Whatcom'
p12
I3066
sS'Adams'
p13
I5
sS'Cowlitz'
p14
I462
sS'Columbia'
p15
I1
sS'Thurston'
p16
I2438
sS'Yakima'
p17
I3864
sS'Klickitat'
p18
I178
sS'Okanogan'
p19
I135
sS'Kitsap'
p20
I3270
sS'Clallam'
p21
I791
sS'King'
p22
I156641
sS'Pierce'
p23
I10448
sS'Spokane'
p24
I7725
sS'Whitman'
p25
I23
sS'Grays Harbor'
p26
I131
sS'Island'
p27
I188
sS'Benton'
p28
I1368
sS'Franklin'
p29
I94
sS'Ferry'
p30
I16
sS'Mason'
p31
I195
sS'Skagit'
p32
I285
sS'Skamania'
p33
I4
sS'Clark'
p34
I9480
sS'Walla Walla'
p35
I232
sS'Lewis'
p36
I199
sS'Stevens'
p37
I94
sS'Pacific'
p38
I22
sS'Garfield'
p39
I1
sS'Chelan'
p40
I1389
sS'Asotin'
p41
I22
ssS'DE'
p42
(dp43
S'New Castle'
p44
I604
sS'Sussex'
p45
I108
sS'Kent'
p46
I182
ssS'WI'
p47
(dp48
S'Marinette'
p49
I10
sS'Jackson'
p50
I11
sS'Richland'
p51
I10
sS'Grant'
p52
I16
sS'Iron'
p53
I3
sS'Portage'
p54
I115
sS'Rock'
p55
I139
sS'Trempealeau'
p56
I8
sS'Douglas'
p57
I40
sS'Ozaukee'
p58
I59
sS'Bayfield'
p59
I6
sS'St. Croix'
p60
I58
sS'Jefferson'
p61
I12
sS'Forest'
p62
I5
sS'Vilas'
p63
I13
sS'Waushara'
p64
I41
sS'Fond du Lac'
p65
I85
sS'Lincoln'
p66
I48
sS'Racine'
p67
I206
sS'Waupaca'
p68
I14
sS'Dodge'
p69
I26
sS'Brown'
p70
I443
sS'Iowa'
p71
I4
sS'Dunn'
p72
I6
sS'Barron'
p73
I15
sS'Winnebago'
p74
I238
sS'Manitowoc'
p75
I63
sS'Oconto'
p76
I4
sS'Walworth'
p77
I100
sS'Vernon'
p78
I8
sS'Columbia'
p79
I125
sS'Sheboygan'
p80
I101
sS'Marquette'
p81
I1
sS'Waukesha'
p82
I369
sS'Rusk'
p83
I4
sS'Pierce'
p84
I45
sS'Langlade'
p85
I9
sS'Adams'
p86
I30
sS'Oneida'
p87
I14
sS'Sawyer'
p88
I40
sS'Green'
p89
I8
sS'Kenosha'
p90
I321
sS'Burnett'
p91
I4
sS'Sauk'
p92
I45
sS'Door'
p93
I44
sS'Dane'
p94
I1838
sS'Eau Claire'
p95
I80
sS'Buffalo'
p96
I4
sS'Menominee'
p97
I1
sS'La Crosse'
p98
I258
sS'Taylor'
p99
I1
sS'Green Lake'
p100
I20
sS'Calumet'
p101
I7
sS'Clark'
p102
I13
sS'Lafayette'
p103
I1
sS'Chippewa'
p104
I20
sS'Washington'
p105
I140
sS'Outagamie'
p106
I113
sS'Ashland'
p107
I7
sS'Shawano'
p108
I16
sS'Wood'
p109
I34
sS'Marathon'
p110
I45
sS'Juneau'
p111
I6
sS'Milwaukee'
p112
I2731
sS'Washburn'
p113
I7
sS'Polk'
p114
I17
sS'Price'
p115
I1
sS'Monroe'
p116
I33
sS'Kewaunee'
p117
I5
ssS'WV'
p118
(dp119
S'Summers'
p120
I7
sS'Jackson'
p121
I23
sS'Morgan'
p122
I5
sS'Grant'
p123
I16
sS'Pendleton'
p124
I1
sS'Calhoun'
p125
I15
sS'Hampshire'
p126
I12
sS'Mason'
p127
I11
sS'Roane'
p128
I8
sS'Wirt'
p129
I2
sS'Jefferson'
p130
I11
sS'Webster'
p131
I3
sS'Nicholas'
p132
I28
sS'Putnam'
p133
I20
sS'McDowell'
p134
I2
sS'Greenbrier'
p135
I12
sS'Gilmer'
p136
I1
sS'Fayette'
p137
I42
sS'Tucker'
p138
I1
sS'Wetzel'
p139
I13
sS'Barbour'
p140
I5
sS'Berkeley'
p141
I157
sS'Brooke'
p142
I12
sS'Ritchie'
p143
I12
sS'Pocahontas'
p144
I5
sS'Randolph'
p145
I16
sS'Wayne'
p146
I7
sS'Lincoln'
p147
I3
sS'Mineral'
p148
I5
sS'Braxton'
p149
I7
sS'Hancock'
p150
I19
sS'Pleasants'
p151
I4
sS'Raleigh'
p152
I73
sS'Boone'
p153
I4
sS'Ohio'
p154
I122
sS'Monongalia'
p155
I303
sS'Upshur'
p156
I6
sS'Taylor'
p157
I15
sS'Lewis'
p158
I1
sS'Marshall'
p159
I38
sS'Mingo'
p160
I4
sS'Cabell'
p161
I391
sS'Tyler'
p162
I4
sS'Logan'
p163
I5
sS'Wood'
p164
I77
sS'Marion'
p165
I23
sS'Harrison'
p166
I41
sS'Kanawha'
p167
I107
sS'Mercer'
p168
I13
sS'Preston'
p169
I13
sS'Monroe'
p170
I1
ssS'HI'
p171
(dp172
S'Maui'
p173
I84
sS'Kauai'
p174
I6
sS'Hawaii'
p175
I66
sS'Honolulu'
p176
I2358
ssS'FL'
p177
(dp178
S'Alachua'
p179
I1307
sS'Pasco'
p180
I602
sS'Jackson'
p181
I15
sS'Santa Rosa'
p182
I436
sS'Gulf'
p183
I6
sS'Union'
p184
I1
sS'Volusia'
p185
I995
sS'Duval'
p186
I8442
sS'Sumter'
p187
I9
sS'Lake'
p188
I208
sS'Hillsborough'
p189
I8524
sS'Flagler'
p190
I266
sS'Okaloosa'
p191
I518
sS'Miami-Dade'
p192
I25638
sS'Seminole'
p193
I441
sS'Orange'
p194
I18640
sS'Indian River'
p195
I237
sS'Levy'
p196
I26
sS'Hardee'
p197
I4
sS'Columbia'
p198
I24
sS'Lee'
p199
I1311
sS'Sarasota'
p200
I3438
sS'Okeechobee'
p201
I66
sS'Manatee'
p202
I927
sS'Walton'
p203
I19
sS'Hernando'
p204
I292
sS'Hamilton'
p205
I6
sS'Nassau'
p206
I25
sS'Broward'
p207
I3074
sS'Putnam'
p208
I15
sS'Wakulla'
p209
I11
sS'Bradford'
p210
I16
sS'Suwannee'
p211
I25
sS'Highlands'
p212
I63
sS'Gadsden'
p213
I5
sS'Osceola'
p214
I343
sS'St. Johns'
p215
I24
sS'Taylor'
p216
I7
sS'Glades'
p217
I6
sS'Clay'
p218
I32
sS'Pinellas'
p219
I832
sS'Martin'
p220
I159
sS'Bay'
p221
I399
sS'DeSoto'
p222
I28
sS'Holmes'
p223
I34
sS'Charlotte'
p224
I294
sS'Palm Beach'
p225
I3211
sS'Dixie'
p226
I2
sS'Washington'
p227
I15
sS'Gilchrist'
p228
I1
sS'Leon'
p229
I992
sS'Jefferson'
p230
I1
sS'Citrus'
p231
I62
sS'Brevard'
p232
I1113
sS'Marion'
p233
I967
sS'St. Lucie'
p234
I121
sS'Escambia'
p235
I1516
sS'Collier'
p236
I1129
sS'Polk'
p237
I811
sS'Monroe'
p238
I403
sS'Franklin'
p239
I7
ssS'WY'
p240
(dp241
S'Sublette'
p242
I2
sS'Albany'
p243
I197
sS'Natrona'
p244
I192
sS'Park'
p245
I24
sS'Lincoln'
p246
I4
sS'Laramie'
p247
I406
sS'Teton'
p248
I1
sS'Washakie'
p249
I3
sS'Converse'
p250
I6
sS'Fremont'
p251
I18
sS'Hot Springs'
p252
I1
sS'Carbon'
p253
I9
sS'Platte'
p254
I3
sS'Sheridan'
p255
I10
sS'Johnson'
p256
I3
sS'Big Horn'
p257
I1
sS'Goshen'
p258
I2
sS'Bear Lake'
p259
I1
sS'Sweetwater'
p260
I101
sS'Crook'
p261
I1
sS'Uinta'
p262
I12
sS'Campbell'
p263
I45
ssS'NH'
p264
(dp265
S'Coos'
p266
I49
sS'Belknap'
p267
I155
sS'Strafford'
p268
I133
sS'Sullivan'
p269
I15
sS'Grafton'
p270
I76
sS'Carroll'
p271
I44
sS'Merrimack'
p272
I106
sS'Hillsborough'
p273
I433
sS'Rockingham'
p274
I513
sS'Cheshire'
p275
I43
ssS'NJ'
p276
(dp277
S'Burlington'
p278
I142
sS'Hudson'
p279
I441
sS'Middlesex'
p280
I601
sS'Cumberland'
p281
I74
sS'Monmouth'
p282
I288
sS'Union'
p283
I265
sS'Mercer'
p284
I79
sS'Sussex'
p285
I248
sS'Essex'
p286
I283
sS'Ocean'
p287
I308
sS'Morris'
p288
I204
sS'Salem'
p289
I21
sS'Camden'
p290
I420
sS'Somerset'
p291
I178
sS'Atlantic'
p292
I220
sS'Cape May'
p293
I210
sS'Gloucester'
p294
I97
sS'Passaic'
p295
I265
sS'Bergen'
p296
I249
sS'Hunterdon'
p297
I148
sS'Warren'
p298
I39
ssS'NM'
p299
(dp300
S'San Juan'
p301
I156
sS'San Miguel'
p302
I53
sS'Otero'
p303
I75
sS'Bernalillo'
p304
I16123
sS'Grant'
p305
I160
sS'Union'
p306
I1
sS'Rio Arriba'
p307
I27
sS'Guadalupe'
p308
I6
sS'Eddy'
p309
I78
sS'Sierra'
p310
I36
sS'Valencia'
p311
I25
sS'Mora'
p312
I1
sS'Torrance'
p313
I5
sS'Taos'
p314
I100
sS'Lea'
p315
I22
sS'Cibola'
p316
I9
sS'Quay'
p317
I6
sS'Chaves'
p318
I562
sS'Catron'
p319
I12
sS'Sandoval'
p320
I171
sS'Socorro'
p321
I34
sS'Lincoln'
p322
I10
sS'Colfax'
p323
I17
sS'Roosevelt'
p324
I4
sS'Los Alamos'
p325
I15
sS'Curry'
p326
I59
sS'De Baca'
p327
I6
sS'Santa Fe'
p328
I1556
sS'Luna'
p329
I120
sS'Do\xc3\xb1a Ana'
p330
I965
sS'McKinley'
p331
I40
sS'Hidalgo'
p332
I1
ssS'TX'
p333
(dp334
S'Wilson'
p335
I2
sS'Sherman'
p336
I1
sS'Zapata'
p337
I4
sS'Bowie'
p338
I364
sS'Brewster'
p339
I25
sS'Gonzales'
p340
I26
sS'Burnet'
p341
I60
sS'Duval'
p342
I9
sS'Smith'
p343
I120
sS'Chambers'
p344
I10
sS'Montgomery'
p345
I187
sS'Delta'
p346
I1
sS'Tyler'
p347
I3
sS'Hill'
p348
I15
sS'Schleicher'
p349
I3
sS'Robertson'
p350
I3
sS'Hudspeth'
p351
I1
sS'La Salle'
p352
I24
sS'Trinity'
p353
I6
sS'Henderson'
p354
I47
sS'Brown'
p355
I32
sS'Sabine'
p356
I4
sS'Angelina'
p357
I28
sS'Goliad'
p358
I21
sS'Upton'
p359
I4
sS'Blanco'
p360
I4
sS'Pecos'
p361
I13
sS'Live Oak'
p362
I9
sS'Hockley'
p363
I4
sS'Victoria'
p364
I22
sS'Montague'
p365
I9
sS'El Paso'
p366
I3405
sS'Harris'
p367
I44163
sS'Coryell'
p368
I90
sS'Kendall'
p369
I13
sS'Shackelford'
p370
I3
sS'Reagan'
p371
I1
sS'Matagorda'
p372
I19
sS'Palo Pinto'
p373
I9
sS'Culberson'
p374
I2
sS'Uvalde'
p375
I4
sS'Titus'
p376
I27
sS'Camp'
p377
I6
sS'Scurry'
p378
I1
sS'Young'
p379
I1
sS'Navarro'
p380
I18
sS'Jeff Davis'
p381
I13
sS'Burleson'
p382
I6
sS'Tarrant'
p383
I5256
sS'San Jacinto'
p384
I41
sS'Erath'
p385
I70
sS'Upshur'
p386
I7
sS'Colorado'
p387
I8
sS'Parker'
p388
I53
sS'Aransas'
p389
I7
sS'Stephens'
p390
I11
sS'Armstrong'
p391
I1
sS'Freestone'
p392
I16
sS'Panola'
p393
I16
sS'Potter'
p394
I435
sS'Hall'
p395
I7
sS'Milam'
p396
I27
sS'Marion'
p397
I1
sS'Jasper'
p398
I3
sS'Lampasas'
p399
I4
sS'Hemphill'
p400
I3
sS'San Augustine'
p401
I1
sS'Polk'
p402
I20
sS'Newton'
p403
I4
sS'Jackson'
p404
I6
sS'Kent'
p405
I1
sS'Rusk'
p406
I31
sS'Caldwell'
p407
I2
sS'Washington'
p408
I6
sS'Deaf Smith'
p409
I2
sS'Mills'
p410
I8
sS'Webb'
p411
I66
sS'Liberty'
p412
I21
sS'Mason'
p413
I3
sS'Parmer'
p414
I2
sS'Anderson'
p415
I22
sS'Jefferson'
p416
I97
sS'Dickens'
p417
I4
sS'Orange'
p418
I57
sS'Hardin'
p419
I14
sS'Howard'
p420
I15
sS'Nacogdoches'
p421
I64
sS'Lamar'
p422
I25
sS'Lee'
p423
I3
sS'Oldham'
p424
I1
sS'Maverick'
p425
I21
sS'DeWitt'
p426
I6
sS'Crockett'
p427
I3
sS'Wilbarger'
p428
I1
sS'Hamilton'
p429
I20
sS'Terry'
p430
I10
sS'Randall'
p431
I10
sS'Ward'
p432
I2
sS'Reeves'
p433
I6
sS'Hays'
p434
I205
sS'McMullen'
p435
I1
sS'Johnson'
p436
I108
sS'Hopkins'
p437
I114
sS'Kerr'
p438
I10
sS'Stonewall'
p439
I1
sS'Archer'
p440
I3
sS'Clay'
p441
I1
sS'Comal'
p442
I111
sS'Borden'
p443
I154
sS'Winkler'
p444
I6
sS'Madison'
p445
I11
sS'Taylor'
p446
I557
sS'Van Zandt'
p447
I28
sS'Briscoe'
p448
I11
sS'Collingsworth'
p449
I1
sS'Travis'
p450
I18946
sS'Cameron'
p451
I128
sS'Nueces'
p452
I1294
sS'Bastrop'
p453
I57
sS'Hidalgo'
p454
I139
sS'Gillespie'
p455
I10
sS'Lamb'
p456
I1
sS'Bexar'
p457
I15769
sS'McCulloch'
p458
I11
sS'Midland'
p459
I171
sS'Dallas'
p460
I11004
sS'Cherokee'
p461
I14
sS'Collin'
p462
I1089
sS'Red River'
p463
I9
sS'Guadalupe'
p464
I34
sS'McLennan'
p465
I167
sS'Starr'
p466
I3
sS'Shelby'
p467
I26
sS'Tom Green'
p468
I232
sS'Frio'
p469
I1
sS'Gregg'
p470
I115
sS'Wheeler'
p471
I2
sS'Fayette'
p472
I7
sS'Medina'
p473
I9
sS'Wharton'
p474
I9
sS'San Saba'
p475
I6
sS'Zavala'
p476
I2
sS'Garza'
p477
I11
sS'Bosque'
p478
I7
sS'Jim Wells'
p479
I37
sS'Kinney'
p480
I1
sS'Galveston'
p481
I449
sS'Eastland'
p482
I18
sS'Jack'
p483
I1
sS'Hutchinson'
p484
I12
sS'Jim Hogg'
p485
I1
sS'Bee'
p486
I6
sS'Lavaca'
p487
I2
sS'Rains'
p488
I10
sS'Cooke'
p489
I11
sS'Franklin'
p490
I67
sS'Fisher'
p491
I28
sS'Walker'
p492
I23
sS'Austin'
p493
I11
sS'Swisher'
p494
I1
sS'Llano'
p495
I8
sS'Bell'
p496
I185
sS'Floyd'
p497
I3
sS'Brazoria'
p498
I189
sS'Leon'
p499
I30
sS'Kaufman'
p500
I32
sS'Bandera'
p501
I12
sS'Harrison'
p502
I15
sS'Hardeman'
p503
I1
sS'San Patricio'
p504
I12
sS'Hood'
p505
I11
sS'Denton'
p506
I797
sS'Rockwall'
p507
I19
sS'Ellis'
p508
I89
sS'Sutton'
p509
I1
sS'Lubbock'
p510
I428
sS'Edwards'
p511
I1
sS'Carson'
p512
I4
sS'Karnes'
p513
I1
sS'Wood'
p514
I48
sS'Moore'
p515
I3
sS'Roberts'
p516
I1
sS'Coleman'
p517
I20
sS'Real'
p518
I10
sS'Williamson'
p519
I822
sS'Runnels'
p520
I18
sS'Brazos'
p521
I288
sS'Falls'
p522
I2
sS'Nolan'
p523
I3
sS'Hale'
p524
I8
sS'Andrews'
p525
I3
sS'Knox'
p526
I1
sS'Ector'
p527
I232
sS'Jones'
p528
I10
sS'Lynn'
p529
I1
sS'Wise'
p530
I70
sS'Hansford'
p531
I1
sS'Fort Bend'
p532
I28
sS'Hunt'
p533
I20
sS'Wichita'
p534
I157
sS'Willacy'
p535
I1
sS'Concho'
p536
I3
sS'Grayson'
p537
I59
sS'Cass'
p538
I12
sS'Waller'
p539
I254
sS'Yoakum'
p540
I1
sS'Gray'
p541
I21
sS'Kleberg'
p542
I28
sS'Mitchell'
p543
I3
sS'Dawson'
p544
I2
sS'Grimes'
p545
I3
sS'Comanche'
p546
I41
sS'Houston'
p547
I31
sS'Limestone'
p548
I46
sS'Val Verde'
p549
I46
sS'Presidio'
p550
I11
sS'Atascosa'
p551
I7
sS'Fannin'
p552
I20
sS'Kimble'
p553
I10
sS'Haskell'
p554
I7
sS'Callahan'
p555
I439
sS'Somervell'
p556
I15
ssS'LA'
p557
(dp558
S'Orleans'
p559
I904
sS'Red River'
p560
I1
sS'Jackson'
p561
I7
sS'Richland'
p562
I1
sS'Grant'
p563
I2
sS'Union'
p564
I53
sS'Plaquemines'
p565
I9
sS'Tangipahoa'
p566
I23
sS'Jefferson'
p567
I84
sS'St. John the Baptist'
p568
I3
sS'Jefferson Davis'
p569
I11
sS'St. Mary'
p570
I18
sS'Webster'
p571
I14
sS'West Carroll'
p572
I1
sS'Concordia'
p573
I1
sS'La Salle'
p574
I3
sS'Allen'
p575
I3
sS'Terrebonne'
p576
I8
sS'Ouachita'
p577
I74
sS'Pointe Coupee'
p578
I3
sS'East Feliciana'
p579
I3
sS'Caldwell'
p580
I3
sS'St. James'
p581
I1
sS'St. Tammany'
p582
I189
sS'St. Bernard'
p583
I5
sS'Vernon'
p584
I7
sS'Acadia'
p585
I16
sS'De Soto'
p586
I4
sS'Madison'
p587
I1
sS'Caddo'
p588
I110
sS'Sabine'
p589
I4
sS'Catahoula'
p590
I3
sS'Lincoln'
p591
I12
sS'Natchitoches'
p592
I53
sS'Iberia'
p593
I22
sS'St. Landry'
p594
I19
sS'St. Charles'
p595
I8
sS'East Carroll'
p596
I1
sS'St. Helena'
p597
I1
sS'Lafourche'
p598
I20
sS'Cameron'
p599
I4
sS'Calcasieu'
p600
I285
sS'Rapides'
p601
I132
sS'Livingston'
p602
I94
sS'Lafayette'
p603
I123
sS'Franklin'
p604
I4
sS'Avoyelles'
p605
I8
sS'Morehouse'
p606
I28
sS'Beauregard'
p607
I5
sS'Bossier'
p608
I61
sS'West Baton Rouge'
p609
I2
sS'East Baton Rouge'
p610
I674
sS'Washington'
p611
I10
sS'Vermilion'
p612
I6
sS'Bienville'
p613
I4
sS'Assumption'
p614
I15
sS'Claiborne'
p615
I1
sS'Ascension'
p616
I44
sS'St. Martin'
p617
I2
sS'Tensas'
p618
I1
sS'Iberville'
p619
I2
ssS'NC'
p620
(dp621
S'Wilson'
p622
I82
sS'Currituck'
p623
I10
sS'Union'
p624
I60
sS'Bladen'
p625
I10
sS'Montgomery'
p626
I8
sS'Wayne'
p627
I57
sS'Robeson'
p628
I14
sS'Brunswick'
p629
I471
sS'Henderson'
p630
I121
sS'Anson'
p631
I82
sS'Catawba'
p632
I169
sS'Yadkin'
p633
I11
sS'Stokes'
p634
I18
sS'Pasquotank'
p635
I16
sS'Hoke'
p636
I16
sS'Wilkes'
p637
I45
sS'Alamance'
p638
I80
sS'Moore'
p639
I19
sS'Washington'
p640
I2
sS'Duplin'
p641
I71
sS'Cabarrus'
p642
I150
sS'Camden'
p643
I4
sS'New Hanover'
p644
I1471
sS'Polk'
p645
I6
sS'Warren'
p646
I7
sS'Watauga'
p647
I56
sS'Jackson'
p648
I10
sS'Transylvania'
p649
I15
sS'Caldwell'
p650
I17
sS'Onslow'
p651
I186
sS'Granville'
p652
I3
sS'Orange'
p653
I82
sS'Burke'
p654
I143
sS'Lee'
p655
I37
sS'Avery'
p656
I10
sS'Buncombe'
p657
I958
sS'Guilford'
p658
I1359
sS'Durham'
p659
I327
sS'Wake'
p660
I2146
sS'Chatham'
p661
I17
sS'Beaufort'
p662
I15
sS'Vance'
p663
I6
sS'Rutherford'
p664
I86
sS'Harnett'
p665
I22
sS'Davie'
p666
I13
sS'Greene'
p667
I1
sS'Pender'
p668
I34
sS'Forsyth'
p669
I75
sS'Clay'
p670
I1
sS'Macon'
p671
I50
sS'Madison'
p672
I82
sS'Gaston'
p673
I257
sS'Northampton'
p674
I3
sS'Swain'
p675
I3
sS'Hyde'
p676
I2
sS'Stanly'
p677
I8
sS'Lenoir'
p678
I5
sS'Cherokee'
p679
I21
sS'Scotland'
p680
I7
sS'Richmond'
p681
I2
sS'Davidson'
p682
I89
sS'Columbus'
p683
I8
sS'Mecklenburg'
p684
I9419
sS'Bertie'
p685
I6
sS'Alexander'
p686
I9
sS'Lincoln'
p687
I32
sS'Sampson'
p688
I56
sS'Edgecombe'
p689
I18
sS'Ashe'
p690
I12
sS'Craven'
p691
I89
sS'Iredell'
p692
I87
sS'Franklin'
p693
I29
sS'Carteret'
p694
I98
sS'Johnston'
p695
I87
sS'Nash'
p696
I247
sS'Tyrrell'
p697
I1
sS'Caswell'
p698
I1
sS'Cleveland'
p699
I44
sS'Halifax'
p700
I13
sS'Cumberland'
p701
I577
sS'Rockingham'
p702
I30
sS'Rowan'
p703
I149
sS'McDowell'
p704
I23
sS'Haywood'
p705
I4
sS'Pamlico'
p706
I5
sS'Dare'
p707
I205
sS'Jones'
p708
I8
sS'Pitt'
p709
I70
sS'Martin'
p710
I2
sS'Mitchell'
p711
I23
sS'Gates'
p712
I5
sS'Person'
p713
I56
sS'Yancey'
p714
I135
sS'Surry'
p715
I53
sS'Perquimans'
p716
I3
sS'Randolph'
p717
I39
ssS'ND'
p718
(dp719
S'Stutsman'
p720
I3
sS'Richland'
p721
I4
sS'Barnes'
p722
I2
sS'Kidder'
p723
I1
sS'Stark'
p724
I10
sS'Grand Forks'
p725
I36
sS'Williams'
p726
I32
sS'Golden Valley'
p727
I1
sS'Dunn'
p728
I1
sS'McKenzie'
p729
I2
sS'Ramsey'
p730
I4
sS'Ward'
p731
I137
sS'Benson'
p732
I1
sS'McLean'
p733
I7
sS'Sioux'
p734
I1
sS'Rolette'
p735
I3
sS'Cass'
p736
I227
sS'Cavalier'
p737
I1
sS'Steele'
p738
I1
sS'Logan'
p739
I4
sS'Traill'
p740
I1
sS'Emmons'
p741
I2
sS'Morton'
p742
I8
sS'Mercer'
p743
I1
sS'Burleigh'
p744
I80
ssS'NE'
p745
(dp746
S'Lancaster'
p747
I1445
sS'Saline'
p748
I1
sS'Box Butte'
p749
I1
sS'Frontier'
p750
I1
sS'Pierce'
p751
I1
sS'Cherry'
p752
I2
sS'Clay'
p753
I4
sS'Otoe'
p754
I8
sS'Douglas'
p755
I7035
sS'Gage'
p756
I12
sS'Wayne'
p757
I3
sS'Dixon'
p758
I1
sS'Webster'
p759
I1
sS'Hooker'
p760
I1
sS'Valley'
p761
I1
sS'Dodge'
p762
I1
sS'Brown'
p763
I16
sS'Stanton'
p764
I1
sS'Sarpy'
p765
I127
sS'Thurston'
p766
I2
sS'Buffalo'
p767
I29
sS'Holt'
p768
I1
sS'Burt'
p769
I2
sS'Merrick'
p770
I2
sS'Hamilton'
p771
I1
sS'York'
p772
I2
sS'Nuckolls'
p773
I1
sS'Cedar'
p774
I1
sS'Knox'
p775
I2
sS'Keith'
p776
I16
sS'Hall'
p777
I30
sS'Scotts Bluff'
p778
I24
sS'Lincoln'
p779
I83
sS'Hitchcock'
p780
I1
sS'Adams'
p781
I7
sS'Johnson'
p782
I1
sS'Custer'
p783
I1
sS'Kearney'
p784
I1
sS'Arthur'
p785
I3
sS'Franklin'
p786
I1
sS'Cass'
p787
I10
sS'Cuming'
p788
I3
sS'Richardson'
p789
I1
sS'Seward'
p790
I10
sS'Keya Paha'
p791
I3
sS'Fillmore'
p792
I7
sS'Saunders'
p793
I5
sS'Platte'
p794
I18
sS'Greeley'
p795
I3
sS'Red Willow'
p796
I3
sS'Washington'
p797
I3
sS'Boyd'
p798
I1
sS'Garfield'
p799
I1
sS'Sheridan'
p800
I1
sS'Dawes'
p801
I1
sS'Dakota'
p802
I1
sS'Dawson'
p803
I3
sS'Chase'
p804
I1
sS'Polk'
p805
I1
sS'Cheyenne'
p806
I1
ssS'TN'
p807
(dp808
S'Wilson'
p809
I34
sS'Blount'
p810
I97
sS'Shelby'
p811
I3902
sS'Union'
p812
I2
sS'Smith'
p813
I8
sS'Montgomery'
p814
I266
sS'Wayne'
p815
I7
sS'Robertson'
p816
I10
sS'White'
p817
I75
sS'Hamblen'
p818
I123
sS'Henderson'
p819
I93
sS'Weakley'
p820
I4
sS'Dickson'
p821
I10
sS'Bedford'
p822
I77
sS'Obion'
p823
I4
sS'Humphreys'
p824
I8
sS'Henry'
p825
I9
sS'Trousdale'
p826
I22
sS'Moore'
p827
I1
sS'Sullivan'
p828
I457
sS'Maury'
p829
I99
sS'Washington'
p830
I456
sS'Bradley'
p831
I70
sS'Marion'
p832
I1
sS'Hickman'
p833
I1
sS'Polk'
p834
I8
sS'Warren'
p835
I50
sS'Perry'
p836
I3
sS'Jackson'
p837
I21
sS'Anderson'
p838
I114
sS'Jefferson'
p839
I29
sS'Rhea'
p840
I6
sS'Tipton'
p841
I40
sS'Putnam'
p842
I20
sS'Coffee'
p843
I100
sS'Sevier'
p844
I63
sS'Crockett'
p845
I7
sS'Hamilton'
p846
I613
sS'Lauderdale'
p847
I11
sS'Johnson'
p848
I25
sS'Rutherford'
p849
I816
sS'Greene'
p850
I93
sS'Overton'
p851
I4
sS'Clay'
p852
I12
sS'McMinn'
p853
I14
sS'Gibson'
p854
I85
sS'Macon'
p855
I9
sS'Madison'
p856
I238
sS'Grainger'
p857
I12
sS'Hawkins'
p858
I21
sS'Meigs'
p859
I6
sS'Davidson'
p860
I4228
sS'Cheatham'
p861
I39
sS'Bledsoe'
p862
I2
sS'Lawrence'
p863
I41
sS'Fayette'
p864
I1
sS'Claiborne'
p865
I8
sS'Lincoln'
p866
I1
sS'Franklin'
p867
I23
sS'Dyer'
p868
I24
sS'Sumner'
p869
I153
sS'Marshall'
p870
I41
sS'Carroll'
p871
I35
sS'Grundy'
p872
I1
sS'Campbell'
p873
I4
sS'Hardeman'
p874
I2
sS'Sequatchie'
p875
I1
sS'Cumberland'
p876
I23
sS'Roane'
p877
I15
sS'DeKalb'
p878
I28
sS'Loudon'
p879
I37
sS'Haywood'
p880
I121
sS'Williamson'
p881
I282
sS'Cannon'
p882
I5
sS'Giles'
p883
I4
sS'Knox'
p884
I3012
sS'Decatur'
p885
I1
sS'Hardin'
p886
I43
sS'Benton'
p887
I1
sS'Pickett'
p888
I27
sS'Morgan'
p889
I2
sS'Stewart'
p890
I3
sS'Houston'
p891
I77
sS'Fentress'
p892
I12
sS'Carter'
p893
I95
sS'Cocke'
p894
I16
sS'Lewis'
p895
I16
sS'Scott'
p896
I4
sS'Monroe'
p897
I19
ssS'NY'
p898
(dp899
S'Orleans'
p900
I16
sS'Ontario'
p901
I126
sS'Albany'
p902
I1126
sS'Delaware'
p903
I13
sS'Broome'
p904
I544
sS'Montgomery'
p905
I52
sS'Richmond'
p906
I70
sS'St. Lawrence'
p907
I58
sS'Jefferson'
p908
I97
sS'Orange'
p909
I338
sS'Genesee'
p910
I36
sS'Cattaraugus'
p911
I53
sS'Putnam'
p912
I44
sS'Chautauqua'
p913
I72
sS'Tioga'
p914
I30
sS'Cortland'
p915
I26
sS'Columbia'
p916
I41
sS'Dutchess'
p917
I371
sS'Cayuga'
p918
I98
sS'Otsego'
p919
I82
sS'Rockland'
p920
I54
sS'Herkimer'
p921
I53
sS'Hamilton'
p922
I5
sS'Franklin'
p923
I31
sS'Nassau'
p924
I488
sS'Westchester'
p925
I504
sS'Chenango'
p926
I7
sS'Queens'
p927
I206
sS'Chemung'
p928
I68
sS'Wyoming'
p929
I10
sS'Yates'
p930
I17
sS'Saratoga'
p931
I212
sS'Allegany'
p932
I27
sS'Oneida'
p933
I311
sS'Greene'
p934
I175
sS'Livingston'
p935
I28
sS'Rensselaer'
p936
I76
sS'Steuben'
p937
I24
sS'Bronx'
p938
I59
sS'New York'
p939
I97
sS'Tompkins'
p940
I265
sS'Fulton'
p941
I13
sS'Seneca'
p942
I20
sS'Madison'
p943
I23
sS'Clinton'
p944
I36
sS'Ulster'
p945
I205
sS'Schuyler'
p946
I52
sS'Sullivan'
p947
I51
sS'Lewis'
p948
I11
sS'Oswego'
p949
I160
sS'Washington'
p950
I82
sS'Essex'
p951
I90
sS'Suffolk'
p952
I1037
sS'Wayne'
p953
I36
sS'Niagara'
p954
I162
sS'Onondaga'
p955
I808
sS'Kings'
p956
I1
sS'Erie'
p957
I2871
sS'Schenectady'
p958
I157
sS'Schoharie'
p959
I8
sS'Monroe'
p960
I2532
sS'Warren'
p961
I77
ssS'PA'
p962
(dp963
S'Lancaster'
p964
I609
sS'Elk'
p965
I4
sS'Susquehanna'
p966
I18
sS'Perry'
p967
I5
sS'Cumberland'
p968
I224
sS'Bedford'
p969
I15
sS'Union'
p970
I270
sS'Lebanon'
p971
I282
sS'Delaware'
p972
I128
sS'Philadelphia'
p973
I5621
sS'Montgomery'
p974
I421
sS'Jefferson'
p975
I10
sS'Forest'
p976
I12
sS'Butler'
p977
I78
sS'Indiana'
p978
I91
sS'Somerset'
p979
I18
sS'Warren'
p980
I11
sS'Dauphin'
p981
I626
sS'Juniata'
p982
I4
sS'Tioga'
p983
I17
sS'Montour'
p984
I5
sS'Columbia'
p985
I48
sS'Lawrence'
p986
I116
sS'McKean'
p987
I39
sS'Crawford'
p988
I87
sS'Blair'
p989
I89
sS'Lycoming'
p990
I210
sS'Cambria'
p991
I296
sS'York'
p992
I660
sS'Franklin'
p993
I239
sS'Carbon'
p994
I35
sS'Potter'
p995
I6
sS'Venango'
p996
I37
sS'Luzerne'
p997
I178
sS'Pike'
p998
I30
sS'Wyoming'
p999
I16
sS'Adams'
p1000
I90
sS'Northumberland'
p1001
I57
sS'Clarion'
p1002
I105
sS'Greene'
p1003
I42
sS'Westmoreland'
p1004
I227
sS'Bucks'
p1005
I506
sS'Berks'
p1006
I810
sS'Lackawanna'
p1007
I126
sS'Erie'
p1008
I939
sS'Clinton'
p1009
I5
sS'Fayette'
p1010
I30
sS'Armstrong'
p1011
I82
sS'Sullivan'
p1012
I2
sS'Mifflin'
p1013
I10
sS'Huntingdon'
p1014
I25
sS'Northampton'
p1015
I412
sS'Washington'
p1016
I134
sS'Snyder'
p1017
I7
sS'Bradford'
p1018
I52
sS'Centre'
p1019
I289
sS'Schuylkill'
p1020
I175
sS'Lehigh'
p1021
I683
sS'Wayne'
p1022
I31
sS'Cameron'
p1023
I4
sS'Beaver'
p1024
I186
sS'Allegheny'
p1025
I4841
sS'Clearfield'
p1026
I192
sS'Mercer'
p1027
I109
sS'Monroe'
p1028
I76
sS'Chester'
p1029
I604
ssS'CA'
p1030
(dp1031
S'Santa Clara'
p1032
I22031
sS'Lake'
p1033
I135
sS'Imperial'
p1034
I150
sS'Sierra'
p1035
I3
sS'Madera'
p1036
I79
sS'Shasta'
p1037
I2581
sS'Plumas'
p1038
I134
sS'Tuolumne'
p1039
I695
sS'Napa'
p1040
I594
sS'San Francisco'
p1041
I17391
sS'Orange'
p1042
I9358
sS'Tulare'
p1043
I810
sS'Riverside'
p1044
I7591
sS'Alameda'
p1045
I5157
sS'San Mateo'
p1046
I472
sS'Trinity'
p1047
I17
sS'Solano'
p1048
I1007
sS'Sacramento'
p1049
I20571
sS'San Diego'
p1050
I59670
sS'Colusa'
p1051
I17
sS'Marin'
p1052
I444
sS'Santa Cruz'
p1053
I1345
sS'Amador'
p1054
I7
sS'Los Angeles'
p1055
I76658
sS'Modoc'
p1056
I227
sS'Lassen'
p1057
I76
sS'Butte'
p1058
I1125
sS'Stanislaus'
p1059
I5812
sS'Alpine'
p1060
I7
sS'Mendocino'
p1061
I243
sS'Mariposa'
p1062
I1588
sS'Siskiyou'
p1063
I111
sS'Placer'
p1064
I1028
sS'Mono'
p1065
I41
sS'Contra Costa'
p1066
I2310
sS'Del Norte'
p1067
I141
sS'Glenn'
p1068
I124
sS'Kern'
p1069
I3859
sS'Ventura'
p1070
I4559
sS'Calaveras'
p1071
I65
sS'Inyo'
p1072
I112
sS'San Bernardino'
p1073
I4986
sS'Sutter'
p1074
I95
sS'Monterey'
p1075
I831
sS'Sonoma'
p1076
I3508
sS'San Joaquin'
p1077
I1149
sS'Humboldt'
p1078
I3912
sS'Fresno'
p1079
I5206
sS'Merced'
p1080
I263
sS'Yolo'
p1081
I1248
sS'Yuba'
p1082
I57
sS'El Dorado'
p1083
I492
sS'San Luis Obispo'
p1084
I458
sS'San Benito'
p1085
I197
sS'Tehama'
p1086
I93
sS'Kings'
p1087
I102
sS'Nevada'
p1088
I504
sS'Santa Barbara'
p1089
I2524
ssS'NV'
p1090
(dp1091
S'White Pine'
p1092
I9
sS'Lyon'
p1093
I26
sS'Churchill'
p1094
I55
sS'Lander'
p1095
I1
sS'Humboldt'
p1096
I37
sS'Clark'
p1097
I62457
sS'Pershing'
p1098
I4
sS'Esmeralda'
p1099
I2
sS'Elko'
p1100
I182
sS'Douglas'
p1101
I29
sS'Carson City (city)'
p1102
I45
sS'Washoe'
p1103
I6268
sS'Mineral'
p1104
I1
sS'Storey'
p1105
I2
sS'Eureka'
p1106
I6
sS'Lincoln'
p1107
I108
sS'Nye'
p1108
I235
ssS'VA'
p1109
(dp1110
S'Roanoke'
p1111
I30
sS'Powhatan'
p1112
I16
sS'Russell'
p1113
I13
sS'Arlington'
p1114
I234
sS'Charlottesville (city)'
p1115
I137
sS'Montgomery'
p1116
I50
sS'Salem (city)'
p1117
I200
sS'Fauquier'
p1118
I142
sS'Williamsburg (city)'
p1119
I136
sS'Franklin (city)'
p1120
I10
sS'Virginia Beach (city)'
p1121
I4270
sS'Tazewell'
p1122
I9
sS'King George'
p1123
I10
sS'York'
p1124
I76
sS'Emporia (city)'
p1125
I1
sS'Chesapeake (city)'
p1126
I279
sS'Bedford'
p1127
I17
sS'Roanoke (city)'
p1128
I358
sS'Augusta'
p1129
I17
sS'Chesterfield'
p1130
I120
sS'Nelson'
p1131
I9
sS'Henry'
p1132
I1
sS'Prince William'
p1133
I272
sS'Portsmouth (city)'
p1134
I78
sS'Nottoway'
p1135
I4
sS'Gloucester'
p1136
I8
sS'Waynesboro (city)'
p1137
I10
sS'Charlotte'
p1138
I1
sS'Washington'
p1139
I63
sS'Craig'
p1140
I1
sS'Prince George'
p1141
I15
sS'Warren'
p1142
I37
sS'Albemarle'
p1143
I74
sS'Fredericksburg (city)'
p1144
I253
sS'Orange'
p1145
I9
sS'Lynchburg (city)'
p1146
I120
sS'Caroline'
p1147
I3
sS'Smyth'
p1148
I54
sS'Culpeper'
p1149
I42
sS'Petersburg (city)'
p1150
I1
sS'Lee'
p1151
I2
sS'Spotsylvania'
p1152
I42
sS'Buena Vista (city)'
p1153
I1
sS'Richmond (city)'
p1154
I2556
sS'Southampton'
p1155
I1
sS'Henrico'
p1156
I33
sS'Bedford (city)'
p1157
I28
sS'Northumberland'
p1158
I9
sS'Greene'
p1159
I2
sS'Westmoreland'
p1160
I58
sS'Isle of Wight'
p1161
I7
sS'King and Queen'
p1162
I2
sS'Alexandria (city)'
p1163
I862
sS'Fairfax (city)'
p1164
I120
sS'Madison'
p1165
I4
sS'Goochland'
p1166
I5
sS'Loudoun'
p1167
I176
sS'Bristol (city)'
p1168
I34
sS'Essex'
p1169
I2
sS'Newport News (city)'
p1170
I136
sS'Amherst'
p1171
I39
sS'Grayson'
p1172
I2
sS'Falls Church (city)'
p1173
I78
sS'Hampton (city)'
p1174
I210
sS'Clarke'
p1175
I5
sS'Richmond'
p1176
I1
sS'Northampton'
p1177
I511
sS'Wythe'
p1178
I8
sS'Hopewell (city)'
p1179
I276
sS'Accomack'
p1180
I10
sS'New Kent'
p1181
I7
sS'Shenandoah'
p1182
I17
sS'Staunton (city)'
p1183
I15
sS'Pittsylvania'
p1184
I74
sS'Covington (city)'
p1185
I3
sS'Patrick'
p1186
I4
sS'Winchester (city)'
p1187
I91
sS'Greensville'
p1188
I3
sS'Franklin'
p1189
I11
sS'Fairfax'
p1190
I372
sS'Floyd'
p1191
I1
sS'Carroll'
p1192
I19
sS'Bath'
p1193
I1
sS'Botetourt'
p1194
I6
sS'Campbell'
p1195
I25
sS'Halifax'
p1196
I4
sS'Manassas (city)'
p1197
I136
sS'Lancaster'
p1198
I2
sS'Poquoson (city)'
p1199
I1
sS'Louisa'
p1200
I63
sS'Middlesex'
p1201
I5
sS'Colonial Heights (city)'
p1202
I9
sS'Norton (city)'
p1203
I1
sS'Rockbridge'
p1204
I346
sS'Pulaski'
p1205
I11
sS'Rockingham'
p1206
I24
sS'Alleghany'
p1207
I12
sS'Radford (city)'
p1208
I9
sS'Prince Edward'
p1209
I3
sS'Giles'
p1210
I1
sS'Dickenson'
p1211
I3
sS'Harrisonburg (city)'
p1212
I91
sS'Danville (city)'
p1213
I160
sS'Stafford'
p1214
I37
sS'Hanover'
p1215
I31
sS'Wise'
p1216
I24
sS'Norfolk (city)'
p1217
I310
sS'Frederick'
p1218
I4
sS'Mathews'
p1219
I1
sS'Mecklenburg'
p1220
I11
sS'Page'
p1221
I109
sS'Suffolk (city)'
p1222
I28
sS'Surry'
p1223
I2
sS'Martinsville (city)'
p1224
I6
sS'Lexington (city)'
p1225
I3
sS'Scott'
p1226
I2
sS'King William'
p1227
I2
sS'Fluvanna'
p1228
I1
ssS'CO'
p1229
(dp1230
S'San Juan'
p1231
I1
sS'San Miguel'
p1232
I2
sS'Otero'
p1233
I7
sS'Gilpin'
p1234
I1
sS'Chaffee'
p1235
I46
sS'Elbert'
p1236
I6
sS'Fremont'
p1237
I5
sS'Grand'
p1238
I9
sS'Dolores'
p1239
I3
sS'Douglas'
p1240
I208
sS'Ouray'
p1241
I2
sS'Jefferson'
p1242
I1126
sS'Cheyenne'
p1243
I1
sS'Gunnison'
p1244
I8
sS'Boulder'
p1245
I3074
sS'Eagle'
p1246
I55
sS'La Plata'
p1247
I60
sS'Custer'
p1248
I1
sS'Archuleta'
p1249
I15
sS'Clear Creek'
p1250
I3
sS'Montrose'
p1251
I29
sS'Park'
p1252
I33
sS'Saguache'
p1253
I15
sS'Kit Carson'
p1254
I4
sS'El Paso'
p1255
I7114
sS'Costilla'
p1256
I7
sS'Delta'
p1257
I22
sS'Conejos'
p1258
I1
sS'Arapahoe'
p1259
I1485
sS'Mesa'
p1260
I575
sS'Yuma'
p1261
I2
sS'Teller'
p1262
I34
sS'Broomfield'
p1263
I91
sS'Pueblo'
p1264
I718
sS'Lincoln'
p1265
I2
sS'Alamosa'
p1266
I38
sS'Weld'
p1267
I156
sS'Adams'
p1268
I1690
sS'Montezuma'
p1269
I23
sS'Lake'
p1270
I1
sS'Kiowa'
p1271
I1
sS'Summit'
p1272
I17
sS'Denver'
p1273
I13366
sS'Morgan'
p1274
I11
sS'Hinsdale'
p1275
I1
sS'Sedgwick'
p1276
I1
sS'Routt'
p1277
I20
sS'Huerfano'
p1278
I28
sS'Bent'
p1279
I4
sS'Rio Blanco'
p1280
I3
sS'Baca'
p1281
I3
sS'Pitkin'
p1282
I9
sS'Prowers'
p1283
I1
sS'Washington'
p1284
I1
sS'Moffat'
p1285
I22
sS'Rio Grande'
p1286
I2
sS'Logan'
p1287
I1
sS'Garfield'
p1288
I37
sS'Larimer'
p1289
I2584
sS'Las Animas'
p1290
I19
ssS'AK'
p1291
(dp1292
S'Southeast Fairbanks (CA)'
p1293
I4
sS'Yukon-Koyukuk (CA)'
p1294
I9
sS'Denali'
p1295
I1
sS'Sitka'
p1296
I1
sS'Aleutians West (CA)'
p1297
I1
sS'Valdez-Cordova (CA)'
p1298
I15
sS'Fairbanks North Star'
p1299
I878
sS'Lake and Peninsula'
p1300
I2
sS'Haines'
p1301
I1
sS'Kenai Peninsula'
p1302
I87
sS'Yakutat'
p1303
I1
sS'North Slope'
p1304
I2
sS'Petersburg (CA)'
p1305
I1
sS'Kodiak Island'
p1306
I3
sS'Wade Hampton (CA)'
p1307
I2
sS'Hoonah-Angoon (CA)'
p1308
I1
sS'Anchorage'
p1309
I2394
sS'Juneau'
p1310
I69
sS'Ketchikan Gateway'
p1311
I15
sS'Aleutians East'
p1312
I1
sS'Prince of Wales-Hyder (CA)'
p1313
I3
sS'Nome (CA)'
p1314
I11
sS'Matanuska-Susitna'
p1315
I145
sS'Bethel (CA)'
p1316
I22
sS'Northwest Arctic'
p1317
I1
sS'Wrangell'
p1318
I6
ssS'AL'
p1319
(dp1320
S'Bibb'
p1321
I1
sS'Jackson'
p1322
I12
sS'Russell'
p1323
I6
sS'Blount'
p1324
I12
sS'Shelby'
p1325
I32
sS'Coosa'
p1326
I6
sS'Clarke'
p1327
I2
sS'Colbert'
p1328
I7
sS'Calhoun'
p1329
I46
sS'Cullman'
p1330
I70
sS'Covington'
p1331
I22
sS'Jefferson'
p1332
I1557
sS'Butler'
p1333
I3
sS'DeKalb'
p1334
I18
sS'Pickens'
p1335
I4
sS'Cleburne'
p1336
I8
sS'Dale'
p1337
I7
sS'Coffee'
p1338
I28
sS'Lee'
p1339
I38
sS'Geneva'
p1340
I1
sS'Lawrence'
p1341
I4
sS'Dallas'
p1342
I4
sS'Fayette'
p1343
I4
sS'Cherokee'
p1344
I6
sS'Chilton'
p1345
I30
sS'Hale'
p1346
I10
sS'Lauderdale'
p1347
I46
sS'Tallapoosa'
p1348
I1
sS'St. Clair'
p1349
I9
sS'Barbour'
p1350
I6
sS'Conecuh'
p1351
I2
sS'Pike'
p1352
I3
sS'Crenshaw'
p1353
I4
sS'Mobile'
p1354
I263
sS'Sumter'
p1355
I1
sS'Lamar'
p1356
I1
sS'Perry'
p1357
I1
sS'Franklin'
p1358
I2
sS'Morgan'
p1359
I24
sS'Henry'
p1360
I3
sS'Walker'
p1361
I18
sS'Montgomery'
p1362
I384
sS'Etowah'
p1363
I61
sS'Houston'
p1364
I57
sS'Madison'
p1365
I1142
sS'Limestone'
p1366
I52
sS'Randolph'
p1367
I5
sS'Marshall'
p1368
I36
sS'Winston'
p1369
I9
sS'Washington'
p1370
I3
sS'Talladega'
p1371
I10
sS'Tuscaloosa'
p1372
I101
sS'Elmore'
p1373
I10
sS'Marion'
p1374
I10
sS'Choctaw'
p1375
I1
sS'Escambia'
p1376
I5
sS'Chambers'
p1377
I8
sS'Lowndes'
p1378
I1
sS'Baldwin'
p1379
I117
sS'Monroe'
p1380
I4
sS'Autauga'
p1381
I4
ssS'AR'
p1382
(dp1383
S'Saline'
p1384
I24
sS'Mississippi'
p1385
I4
sS'Perry'
p1386
I11
sS'Jackson'
p1387
I6
sS'Howard'
p1388
I2
sS'Union'
p1389
I54
sS'Carroll'
p1390
I25
sS'Calhoun'
p1391
I12
sS'Montgomery'
p1392
I5
sS'Pulaski'
p1393
I1312
sS'Phillips'
p1394
I2
sS'Jefferson'
p1395
I10
sS'Crittenden'
p1396
I25
sS'Stone'
p1397
I4
sS'White'
p1398
I82
sS'Crawford'
p1399
I43
sS'Faulkner'
p1400
I205
sS'Independence'
p1401
I39
sS'Newton'
p1402
I12
sS'Columbia'
p1403
I6
sS'Lee'
p1404
I1
sS'Garland'
p1405
I143
sS'Lawrence'
p1406
I1
sS'Grant'
p1407
I2
sS'Van Buren'
p1408
I17
sS'Drew'
p1409
I3
sS'Cleburne'
p1410
I24
sS'Izard'
p1411
I2
sS'Little River'
p1412
I4
sS'Pike'
p1413
I2
sS'Poinsett'
p1414
I13
sS'Ashley'
p1415
I1
sS'Sevier'
p1416
I2
sS'Johnson'
p1417
I20
sS'Hot Spring'
p1418
I12
sS'Dallas'
p1419
I1
sS'Benton'
p1420
I134
sS'Cross'
p1421
I3
sS'Greene'
p1422
I10
sS'Searcy'
p1423
I4
sS'Lafayette'
p1424
I1
sS'Franklin'
p1425
I6
sS'Boone'
p1426
I21
sS'Clay'
p1427
I2
sS'Ouachita'
p1428
I8
sS'Yell'
p1429
I10
sS'Sebastian'
p1430
I670
sS'Arkansas'
p1431
I1
sS'Fulton'
p1432
I1
sS'Hempstead'
p1433
I4
sS'Baxter'
p1434
I59
sS'Woodruff'
p1435
I5
sS'Madison'
p1436
I4
sS'Lincoln'
p1437
I1
sS'Lonoke'
p1438
I37
sS'Clark'
p1439
I1
sS'Pope'
p1440
I225
sS'Conway'
p1441
I9
sS'Polk'
p1442
I21
sS'St. Francis'
p1443
I1
sS'Craighead'
p1444
I32
sS'Washington'
p1445
I320
sS'Bradley'
p1446
I1
sS'Logan'
p1447
I3
sS'Prairie'
p1448
I3
sS'Marion'
p1449
I7
sS'Miller'
p1450
I11
sS'Sharp'
p1451
I8
sS'Chicot'
p1452
I4
sS'Nevada'
p1453
I2
sS'Randolph'
p1454
I28
ssS'VT'
p1455
(dp1456
S'Addison'
p1457
I16
sS'Grand Isle'
p1458
I5
sS'Orleans'
p1459
I3
sS'Bennington'
p1460
I57
sS'Lamoille'
p1461
I18
sS'Washington'
p1462
I47
sS'Essex'
p1463
I8
sS'Chittenden'
p1464
I216
sS'Windham'
p1465
I29
sS'Franklin'
p1466
I6
sS'Orange'
p1467
I8
sS'Rutland'
p1468
I55
sS'Caledonia'
p1469
I13
sS'Windsor'
p1470
I29
ssS'IL'
p1471
(dp1472
S'Richland'
p1473
I15
sS'Shelby'
p1474
I10
sS'Union'
p1475
I2
sS'Jo Daviess'
p1476
I8
sS'McDonough'
p1477
I30
sS'Wayne'
p1478
I1
sS'Bureau'
p1479
I8
sS'Wabash'
p1480
I1
sS'Henderson'
p1481
I1
sS'Champaign'
p1482
I121
sS'Tazewell'
p1483
I20
sS'De Witt'
p1484
I4
sS'Hancock'
p1485
I7
sS'Coles'
p1486
I22
sS'Henry'
p1487
I13
sS'Montgomery'
p1488
I14
sS'Jersey'
p1489
I16
sS'Washington'
p1490
I4
sS'LaSalle'
p1491
I44
sS'Marion'
p1492
I30
sS'Jasper'
p1493
I123
sS'Ogle'
p1494
I39
sS'Effingham'
p1495
I12
sS'Warren'
p1496
I1
sS'Jackson'
p1497
I92
sS'Mason'
p1498
I7
sS'Jefferson'
p1499
I7
sS'Lee'
p1500
I47
sS'DuPage'
p1501
I1047
sS'Peoria'
p1502
I394
sS'Ford'
p1503
I4
sS'Cook'
p1504
I50836
sS'Rock Island'
p1505
I146
sS'McLean'
p1506
I347
sS'Johnson'
p1507
I4
sS'Menard'
p1508
I7
sS'Woodford'
p1509
I7
sS'Greene'
p1510
I16
sS'Clay'
p1511
I2
sS'Fulton'
p1512
I66
sS'Macon'
p1513
I99
sS'Kendall'
p1514
I47
sS'Madison'
p1515
I229
sS'Clinton'
p1516
I5
sS'Clark'
p1517
I8
sS'Moultrie'
p1518
I10
sS'Kane'
p1519
I468
sS'Saline'
p1520
I6
sS'Morgan'
p1521
I48
sS'Stark'
p1522
I1
sS'McHenry'
p1523
I357
sS'Lawrence'
p1524
I11
sS'Fayette'
p1525
I4
sS'Sangamon'
p1526
I486
sS'Alexander'
p1527
I1
sS'Pike'
p1528
I4
sS'Adams'
p1529
I53
sS'Stephenson'
p1530
I51
sS'Livingston'
p1531
I10
sS'Franklin'
p1532
I206
sS'Marshall'
p1533
I3
sS'Carroll'
p1534
I3
sS'Schuyler'
p1535
I25
sS'Grundy'
p1536
I64
sS'Mercer'
p1537
I14
sS'Gallatin'
p1538
I16
sS'Cumberland'
p1539
I2
sS'Edwards'
p1540
I11
sS'Lake'
p1541
I447
sS'Douglas'
p1542
I5
sS'Pulaski'
p1543
I5
sS'DeKalb'
p1544
I20
sS'Crawford'
p1545
I1
sS'Williamson'
p1546
I35
sS'Christian'
p1547
I26
sS'Winnebago'
p1548
I7024
sS'Macoupin'
p1549
I19
sS'St. Clair'
p1550
I218
sS'Knox'
p1551
I158
sS'Kankakee'
p1552
I92
sS'Hardin'
p1553
I1
sS'Whiteside'
p1554
I34
sS'Will'
p1555
I1079
sS'Boone'
p1556
I14
sS'Cass'
p1557
I18
sS'Iroquois'
p1558
I4
sS'Bond'
p1559
I15
sS'Vermilion'
p1560
I21
sS'Logan'
p1561
I10
sS'Scott'
p1562
I1
sS'Randolph'
p1563
I8
sS'Monroe'
p1564
I8
ssS'GA'
p1565
(dp1566
S'Union'
p1567
I16
sS'Paulding'
p1568
I30
sS'Montgomery'
p1569
I1
sS'Wayne'
p1570
I1
sS'Screven'
p1571
I11
sS'Pickens'
p1572
I3
sS'Ben Hill'
p1573
I3
sS'Worth'
p1574
I1
sS'McDuffie'
p1575
I10
sS'Dodge'
p1576
I1
sS'Columbia'
p1577
I44
sS'Bibb'
p1578
I171
sS'Brooks'
p1579
I1
sS'Walton'
p1580
I38
sS'Harris'
p1581
I13
sS'Coweta'
p1582
I51
sS'Dougherty'
p1583
I27
sS'Meriwether'
p1584
I33
sS'Hancock'
p1585
I3
sS'Cook'
p1586
I1
sS'Gordon'
p1587
I29
sS'Henry'
p1588
I122
sS'Wilkes'
p1589
I1
sS'Thomas'
p1590
I7
sS'Ware'
p1591
I11
sS'Stephens'
p1592
I2
sS'Newton'
p1593
I34
sS'Washington'
p1594
I12
sS'Decatur'
p1595
I3
sS'Heard'
p1596
I3
sS'Camden'
p1597
I34
sS'Jasper'
p1598
I9
sS'Effingham'
p1599
I13
sS'Lowndes'
p1600
I69
sS'Polk'
p1601
I6
sS'Jackson'
p1602
I25
sS'McIntosh'
p1603
I1
sS'Liberty'
p1604
I38
sS'Jefferson'
p1605
I1
sS'White'
p1606
I28
sS'Burke'
p1607
I3
sS'Putnam'
p1608
I25
sS'Coffee'
p1609
I16
sS'Glynn'
p1610
I13
sS'Lee'
p1611
I28
sS'Catoosa'
p1612
I84
sS'Butts'
p1613
I4
sS'Oconee'
p1614
I4
sS'Toombs'
p1615
I2
sS'Upson'
p1616
I1
sS'Chatham'
p1617
I677
sS'Colquitt'
p1618
I30
sS'Barrow'
p1619
I40
sS'Schley'
p1620
I3
sS'Johnson'
p1621
I3
sS'Candler'
p1622
I1
sS'Baker'
p1623
I1
sS'Oglethorpe'
p1624
I10
sS'Irwin'
p1625
I4
sS'Greene'
p1626
I1
sS'Bartow'
p1627
I20
sS'Forsyth'
p1628
I136
sS'Clay'
p1629
I2
sS'Fulton'
p1630
I4932
sS'Macon'
p1631
I2
sS'Madison'
p1632
I43
sS'Taylor'
p1633
I1
sS'Evans'
p1634
I1
sS'Clinch'
p1635
I28
sS'Charlton'
p1636
I1
sS'Echols'
p1637
I1
sS'Grady'
p1638
I29
sS'Dawson'
p1639
I37
sS'Hart'
p1640
I7
sS'Baldwin'
p1641
I6
sS'Lumpkin'
p1642
I15
sS'Haralson'
p1643
I9
sS'Rockdale'
p1644
I120
sS'Cherokee'
p1645
I106
sS'Clarke'
p1646
I105
sS'Richmond'
p1647
I294
sS'Cobb'
p1648
I794
sS'Glascock'
p1649
I4
sS'Muscogee'
p1650
I309
sS'Fayette'
p1651
I37
sS'Elbert'
p1652
I1
sS'Early'
p1653
I56
sS'Floyd'
p1654
I109
sS'Chattahoochee'
p1655
I3
sS'Towns'
p1656
I6
sS'Pike'
p1657
I6
sS'Lincoln'
p1658
I31
sS'Dade'
p1659
I5
sS'Long'
p1660
I3
sS'Walker'
p1661
I6
sS'Chattooga'
p1662
I10
sS'Carroll'
p1663
I38
sS'Murray'
p1664
I6
sS'Talbot'
p1665
I4
sS'Tift'
p1666
I11
sS'Crisp'
p1667
I1
sS'Peach'
p1668
I7
sS'Bryan'
p1669
I4
sS'Sumter'
p1670
I10
sS'Douglas'
p1671
I119
sS'Pulaski'
p1672
I1
sS'Atkinson'
p1673
I1
sS'DeKalb'
p1674
I101
sS'Troup'
p1675
I5
sS'Gilmer'
p1676
I1
sS'Bleckley'
p1677
I3
sS'Gwinnett'
p1678
I546
sS'Clayton'
p1679
I24
sS'Brantley'
p1680
I12
sS'Hall'
p1681
I167
sS'Jones'
p1682
I3
sS'Pierce'
p1683
I6
sS'Laurens'
p1684
I50
sS'Dooly'
p1685
I1
sS'Berrien'
p1686
I4
sS'Emanuel'
p1687
I1
sS'Morgan'
p1688
I27
sS'Banks'
p1689
I5
sS'Mitchell'
p1690
I2
sS'Stewart'
p1691
I1
sS'Houston'
p1692
I53
sS'Whitfield'
p1693
I38
sS'Spalding'
p1694
I45
sS'Miller'
p1695
I1
sS'Habersham'
p1696
I62
sS'Rabun'
p1697
I11
sS'Bulloch'
p1698
I26
sS'Fannin'
p1699
I15
sS'Tattnall'
p1700
I34
sS'Turner'
p1701
I7
sS'Twiggs'
p1702
I2
sS'Monroe'
p1703
I1
sS'Franklin'
p1704
I7
ssS'IN'
p1705
(dp1706
S'Daviess'
p1707
I11
sS'Shelby'
p1708
I107
sS'Union'
p1709
I5
sS'Montgomery'
p1710
I7
sS'Wayne'
p1711
I137
sS'Wabash'
p1712
I23
sS'White'
p1713
I74
sS'Porter'
p1714
I65
sS'Brown'
p1715
I15
sS'LaPorte'
p1716
I138
sS'Jay'
p1717
I4
sS'Jennings'
p1718
I4
sS'Dearborn'
p1719
I15
sS'Miami'
p1720
I103
sS'Hancock'
p1721
I42
sS'Henry'
p1722
I14
sS'Vigo'
p1723
I904
sS'Sullivan'
p1724
I6
sS'Dubois'
p1725
I5
sS'Washington'
p1726
I48
sS'Bartholomew'
p1727
I31
sS'Marion'
p1728
I7147
sS'Jasper'
p1729
I6
sS'Vermillion'
p1730
I49
sS'Allen'
p1731
I1239
sS'Perry'
p1732
I12
sS'Jackson'
p1733
I29
sS'Howard'
p1734
I532
sS'Jefferson'
p1735
I7
sS'Hendricks'
p1736
I12
sS'St. Joseph'
p1737
I612
sS'Putnam'
p1738
I6
sS'Hamilton'
p1739
I437
sS'Kosciusko'
p1740
I22
sS'Rush'
p1741
I4
sS'Johnson'
p1742
I121
sS'Whitley'
p1743
I40
sS'Greene'
p1744
I8
sS'Ripley'
p1745
I11
sS'LaGrange'
p1746
I108
sS'Ohio'
p1747
I3
sS'Gibson'
p1748
I20
sS'Spencer'
p1749
I5
sS'Fulton'
p1750
I22
sS'Madison'
p1751
I77
sS'Clinton'
p1752
I70
sS'Clark'
p1753
I51
sS'Owen'
p1754
I6
sS'Huntington'
p1755
I61
sS'Clay'
p1756
I40
sS'Blackford'
p1757
I13
sS'Morgan'
p1758
I30
sS'Delaware'
p1759
I178
sS'Fountain'
p1760
I5
sS'Lawrence'
p1761
I9
sS'Elkhart'
p1762
I133
sS'Grant'
p1763
I103
sS'Fayette'
p1764
I37
sS'Posey'
p1765
I1
sS'Floyd'
p1766
I126
sS'Pike'
p1767
I4
sS'Adams'
p1768
I12
sS'Steuben'
p1769
I47
sS'Switzerland'
p1770
I1
sS'Vanderburgh'
p1771
I711
sS'Marshall'
p1772
I37
sS'Carroll'
p1773
I4
sS'Harrison'
p1774
I25
sS'Boone'
p1775
I34
sS'Starke'
p1776
I14
sS'Lake'
p1777
I433
sS'Pulaski'
p1778
I3
sS'Orange'
p1779
I2
sS'Tippecanoe'
p1780
I334
sS'Parke'
p1781
I7
sS'DeKalb'
p1782
I5
sS'Noble'
p1783
I35
sS'Wells'
p1784
I119
sS'Knox'
p1785
I72
sS'Decatur'
p1786
I15
sS'Tipton'
p1787
I4
sS'Benton'
p1788
I3
sS'Cass'
p1789
I48
sS'Martin'
p1790
I5
sS'Warrick'
p1791
I52
sS'Scott'
p1792
I52
sS'Randolph'
p1793
I13
sS'Monroe'
p1794
I276
sS'Franklin'
p1795
I5
ssS'IA'
p1796
(dp1797
S'Lyon'
p1798
I2
sS'Montgomery'
p1799
I6
sS'Wayne'
p1800
I1
sS'Worth'
p1801
I2
sS'Allamakee'
p1802
I3
sS'Fremont'
p1803
I1
sS'Black Hawk'
p1804
I269
sS'Chickasaw'
p1805
I1
sS'Henry'
p1806
I1
sS'Webster'
p1807
I23
sS'Humboldt'
p1808
I4
sS'Sac'
p1809
I1
sS'Washington'
p1810
I2
sS'Marion'
p1811
I10
sS'Jasper'
p1812
I12
sS'Palo Alto'
p1813
I3
sS'Polk'
p1814
I1790
sS'Warren'
p1815
I12
sS'Jackson'
p1816
I4
sS'Mills'
p1817
I2
sS'Wright'
p1818
I1
sS'Jefferson'
p1819
I67
sS'Wapello'
p1820
I78
sS'Iowa'
p1821
I2
sS'Lee'
p1822
I32
sS'Dubuque'
p1823
I67
sS'Linn'
p1824
I1022
sS'Hamilton'
p1825
I11
sS'Pocahontas'
p1826
I5
sS'Mahaska'
p1827
I7
sS'Sioux'
p1828
I4
sS'Johnson'
p1829
I267
sS'Greene'
p1830
I2
sS'Clay'
p1831
I19
sS'Davis'
p1832
I1
sS'Pottawattamie'
p1833
I158
sS'Madison'
p1834
I12
sS'Taylor'
p1835
I1
sS'Clinton'
p1836
I9
sS'Winneshiek'
p1837
I3
sS'Cerro Gordo'
p1838
I31
sS'Muscatine'
p1839
I67
sS'Story'
p1840
I140
sS'Boone'
p1841
I7
sS'Dallas'
p1842
I34
sS'Clarke'
p1843
I3
sS'Delaware'
p1844
I1
sS'Dickinson'
p1845
I10
sS'Buena Vista'
p1846
I1
sS'Poweshiek'
p1847
I1
sS'Guthrie'
p1848
I2
sS'Fayette'
p1849
I2
sS'Floyd'
p1850
I2
sS'Cedar'
p1851
I3
sS'Emmet'
p1852
I2
sS'Adams'
p1853
I1
sS'Marshall'
p1854
I10
sS'Carroll'
p1855
I9
sS"O'Brien"
p1856
I5
sS'Harrison'
p1857
I4
sS'Grundy'
p1858
I3
sS'Monona'
p1859
I4
sS'Louisa'
p1860
I3
sS'Kossuth'
p1861
I5
sS'Tama'
p1862
I6
sS'Calhoun'
p1863
I10
sS'Crawford'
p1864
I10
sS'Woodbury'
p1865
I124
sS'Winnebago'
p1866
I1
sS'Van Buren'
p1867
I1
sS'Clayton'
p1868
I3
sS'Decatur'
p1869
I5
sS'Jones'
p1870
I7
sS'Hardin'
p1871
I3
sS'Lucas'
p1872
I3
sS'Benton'
p1873
I12
sS'Plymouth'
p1874
I1
sS'Cass'
p1875
I6
sS'Audubon'
p1876
I3
sS'Mitchell'
p1877
I1
sS'Page'
p1878
I4
sS'Ida'
p1879
I3
sS'Appanoose'
p1880
I1
sS'Scott'
p1881
I289
sS'Des Moines'
p1882
I16
sS'Monroe'
p1883
I3
ssS'OK'
p1884
(dp1885
S'Ellis'
p1886
I2
sS'Comanche'
p1887
I141
sS'Grant'
p1888
I1
sS'Cherokee'
p1889
I21
sS'Oklahoma'
p1890
I2727
sS'Delaware'
p1891
I7
sS'Hughes'
p1892
I3
sS'Cotton'
p1893
I4
sS'Pittsburg'
p1894
I8
sS'Marshall'
p1895
I7
sS'Seminole'
p1896
I18
sS'McClain'
p1897
I4
sS'Texas'
p1898
I3
sS'Cimarron'
p1899
I1
sS'Jackson'
p1900
I3
sS'Washita'
p1901
I2
sS'Tulsa'
p1902
I5495
sS'Latimer'
p1903
I4
sS'Tillman'
p1904
I1
sS'Logan'
p1905
I1
sS'Le Flore'
p1906
I51
sS'Payne'
p1907
I9
sS'Kingfisher'
p1908
I6
sS'Haskell'
p1909
I1
sS'Caddo'
p1910
I6
sS'Atoka'
p1911
I1
sS'Pontotoc'
p1912
I38
sS'Harmon'
p1913
I1
sS'Beckham'
p1914
I22
sS'Bryan'
p1915
I42
sS'Lincoln'
p1916
I2
sS'Dewey'
p1917
I1
sS'Rogers'
p1918
I64
sS'Canadian'
p1919
I72
sS'Adair'
p1920
I4
sS'Custer'
p1921
I2
sS'McCurtain'
p1922
I6
sS'Ottawa'
p1923
I31
sS'Coal'
p1924
I2
sS'Kiowa'
p1925
I1
sS'Jefferson'
p1926
I1
sS'Wagoner'
p1927
I9
sS'McIntosh'
p1928
I9
sS'Kay'
p1929
I39
sS'Creek'
p1930
I32
sS'Muskogee'
p1931
I40
sS'Osage'
p1932
I2
sS'Love'
p1933
I1
sS'Carter'
p1934
I48
sS'Stephens'
p1935
I29
sS'Okmulgee'
p1936
I14
sS'Woodward'
p1937
I29
sS'Nowata'
p1938
I1
sS'Roger Mills'
p1939
I1
sS'Washington'
p1940
I46
sS'Sequoyah'
p1941
I22
sS'Murray'
p1942
I4
sS'Craig'
p1943
I1
sS'Garfield'
p1944
I36
sS'Woods'
p1945
I6
sS'Grady'
p1946
I11
sS'Blaine'
p1947
I2
sS'Choctaw'
p1948
I11
sS'Cleveland'
p1949
I439
sS'Beaver'
p1950
I3
sS'Alfalfa'
p1951
I2
sS'Pawnee'
p1952
I12
sS'Pottawatomie'
p1953
I39
sS'Garvin'
p1954
I12
ssS'AZ'
p1955
(dp1956
S'Yuma'
p1957
I1008
sS'Pinal'
p1958
I1318
sS'Greenlee'
p1959
I1
sS'Maricopa'
p1960
I127228
sS'Mohave'
p1961
I2012
sS'Gila'
p1962
I89
sS'Santa Cruz'
p1963
I23
sS'Cochise'
p1964
I196
sS'La Paz'
p1965
I227
sS'Coconino'
p1966
I2964
sS'Pima'
p1967
I24767
sS'Apache'
p1968
I143
sS'Navajo'
p1969
I164
sS'Graham'
p1970
I70
sS'Yavapai'
p1971
I1326
ssS'ID'
p1972
(dp1973
S'Nez Perce'
p1974
I55
sS'Gooding'
p1975
I11
sS'Clearwater'
p1976
I1
sS'Jefferson'
p1977
I4
sS'Ada'
p1978
I4225
sS'Boundary'
p1979
I1
sS'Valley'
p1980
I15
sS'Teton'
p1981
I2
sS'Idaho'
p1982
I30
sS'Bingham'
p1983
I34
sS'Owyhee'
p1984
I11
sS'Custer'
p1985
I11
sS'Fremont'
p1986
I1
sS'Canyon'
p1987
I230
sS'Boise'
p1988
I4
sS'Bonneville'
p1989
I282
sS'Butte'
p1990
I11
sS'Twin Falls'
p1991
I193
sS'Gem'
p1992
I15
sS'Lincoln'
p1993
I1
sS'Adams'
p1994
I1
sS'Benewah'
p1995
I3
sS'Lemhi'
p1996
I1
sS'Bannock'
p1997
I87
sS'Latah'
p1998
I29
sS'Madison'
p1999
I15
sS'Kootenai'
p2000
I327
sS'Power'
p2001
I1
sS'Lewis'
p2002
I15
sS'Minidoka'
p2003
I4
sS'Washington'
p2004
I17
sS'Elmore'
p2005
I12
sS'Payette'
p2006
I9
sS'Blaine'
p2007
I5
sS'Bonner'
p2008
I140
sS'Cassia'
p2009
I15
sS'Bear Lake'
p2010
I1
sS'Jerome'
p2011
I4
sS'Shoshone'
p2012
I5
ssS'CT'
p2013
(dp2014
S'New London'
p2015
I209
sS'New Haven'
p2016
I1748
sS'Middlesex'
p2017
I180
sS'Litchfield'
p2018
I224
sS'Fairfield'
p2019
I1155
sS'Tolland'
p2020
I56
sS'Windham'
p2021
I80
sS'Hartford'
p2022
I907
ssS'ME'
p2023
(dp2024
S'Penobscot'
p2025
I202
sS'Sagadahoc'
p2026
I35
sS'Lincoln'
p2027
I9
sS'Cumberland'
p2028
I606
sS'Waldo'
p2029
I23
sS'Washington'
p2030
I21
sS'Hancock'
p2031
I38
sS'Androscoggin'
p2032
I174
sS'Aroostook'
p2033
I43
sS'Piscataquis'
p2034
I5
sS'York'
p2035
I133
sS'Franklin'
p2036
I9
sS'Oxford'
p2037
I24
sS'Knox'
p2038
I19
sS'Somerset'
p2039
I43
sS'Kennebec'
p2040
I205
ssS'MD'
p2041
(dp2042
S'Howard'
p2043
I179
sS'Carroll'
p2044
I98
sS'Garrett'
p2045
I4
sS'Montgomery'
p2046
I825
sS'Kent'
p2047
I7
sS'Somerset'
p2048
I13
sS'Caroline'
p2049
I26
sS'Dorchester'
p2050
I2
sS'Baltimore (city)'
p2051
I4012
sS"Prince George's"
p2052
I254
sS'Harford'
p2053
I209
sS'Anne Arundel'
p2054
I615
sS'Frederick'
p2055
I104
sS'Allegany'
p2056
I258
sS"St. Mary's"
p2057
I5
sS'Wicomico'
p2058
I60
sS'Baltimore'
p2059
I218
sS"Queen Anne's"
p2060
I18
sS'Charles'
p2061
I122
sS'Washington'
p2062
I236
sS'Worcester'
p2063
I326
sS'Talbot'
p2064
I36
sS'Calvert'
p2065
I26
sS'Cecil'
p2066
I91
ssS'MA'
p2067
(dp2068
S'Hampden'
p2069
I539
sS'Nantucket'
p2070
I21
sS'Essex'
p2071
I389
sS'Barnstable'
p2072
I269
sS'Berkshire'
p2073
I76
sS'Worcester'
p2074
I733
sS'Hampshire'
p2075
I72
sS'Suffolk'
p2076
I2646
sS'Norfolk'
p2077
I289
sS'Plymouth'
p2078
I362
sS'Franklin'
p2079
I25
sS'Bristol'
p2080
I461
sS'Dukes'
p2081
I17
sS'Middlesex'
p2082
I696
ssS'OH'
p2083
(dp2084
S'Preble'
p2085
I49
sS'Richland'
p2086
I137
sS'Shelby'
p2087
I14
sS'Union'
p2088
I7
sS'Paulding'
p2089
I2
sS'Montgomery'
p2090
I812
sS'Wayne'
p2091
I138
sS'Brown'
p2092
I63
sS'Champaign'
p2093
I109
sS'Defiance'
p2094
I82
sS'Miami'
p2095
I88
sS'Hancock'
p2096
I53
sS'Lorain'
p2097
I230
sS'Columbiana'
p2098
I117
sS'Henry'
p2099
I4
sS'Muskingum'
p2100
I79
sS'Washington'
p2101
I37
sS'Gallia'
p2102
I12
sS'Marion'
p2103
I84
sS'Allen'
p2104
I60
sS'Huron'
p2105
I29
sS'Darke'
p2106
I8
sS'Warren'
p2107
I122
sS'Perry'
p2108
I39
sS'Jackson'
p2109
I27
sS'Belmont'
p2110
I95
sS'Wyandot'
p2111
I5
sS'Geauga'
p2112
I10
sS'Jefferson'
p2113
I55
sS'Ashtabula'
p2114
I177
sS'Butler'
p2115
I272
sS'Ross'
p2116
I195
sS'Vinton'
p2117
I4
sS'Hamilton'
p2118
I4230
sS'Scioto'
p2119
I91
sS'Greene'
p2120
I193
sS'Fulton'
p2121
I15
sS'Seneca'
p2122
I36
sS'Madison'
p2123
I34
sS'Clinton'
p2124
I40
sS'Clark'
p2125
I303
sS'Trumbull'
p2126
I163
sS'Erie'
p2127
I59
sS'Cuyahoga'
p2128
I3241
sS'Meigs'
p2129
I63
sS'Delaware'
p2130
I112
sS'Stark'
p2131
I400
sS'Fairfield'
p2132
I133
sS'Morgan'
p2133
I55
sS'Coshocton'
p2134
I20
sS'Lawrence'
p2135
I83
sS'Fayette'
p2136
I12
sS'Medina'
p2137
I123
sS'Van Wert'
p2138
I7
sS'Pike'
p2139
I44
sS'Adams'
p2140
I52
sS'Clermont'
p2141
I117
sS'Licking'
p2142
I312
sS'Athens'
p2143
I25
sS'Morrow'
p2144
I23
sS'Summit'
p2145
I714
sS'Franklin'
p2146
I8566
sS'Guernsey'
p2147
I22
sS'Highland'
p2148
I30
sS'Holmes'
p2149
I3
sS'Carroll'
p2150
I7
sS'Harrison'
p2151
I15
sS'Mercer'
p2152
I3
sS'Mahoning'
p2153
I279
sS'Portage'
p2154
I93
sS'Sandusky'
p2155
I34
sS'Lake'
p2156
I118
sS'Hocking'
p2157
I3
sS'Wood'
p2158
I60
sS'Crawford'
p2159
I117
sS'Williams'
p2160
I10
sS'Noble'
p2161
I3
sS'Tuscarawas'
p2162
I160
sS'Knox'
p2163
I9
sS'Putnam'
p2164
I5
sS'Hardin'
p2165
I12
sS'Lucas'
p2166
I1671
sS'Ottawa'
p2167
I24
sS'Auglaize'
p2168
I24
sS'Ashland'
p2169
I23
sS'Pickaway'
p2170
I114
sS'Logan'
p2171
I15
sS'Monroe'
p2172
I181
ssS'UT'
p2173
(dp2174
S'San Juan'
p2175
I7
sS'Wasatch'
p2176
I6
sS'Utah'
p2177
I709
sS'Millard'
p2178
I2
sS'Cache'
p2179
I38
sS'Wayne'
p2180
I2
sS'Grand'
p2181
I57
sS'Weber'
p2182
I484
sS'Juab'
p2183
I1
sS'Tooele'
p2184
I100
sS'Sevier'
p2185
I16
sS'Sanpete'
p2186
I1
sS'Carbon'
p2187
I15
sS'Emery'
p2188
I18
sS'Duchesne'
p2189
I7
sS'Iron'
p2190
I67
sS'Davis'
p2191
I173
sS'Kane'
p2192
I4
sS'Washington'
p2193
I23
sS'Garfield'
p2194
I2
sS'Summit'
p2195
I25
sS'Salt Lake'
p2196
I6405
sS'Beaver'
p2197
I1
sS'Uintah'
p2198
I37
sS'Box Elder'
p2199
I7
ssS'MO'
p2200
(dp2201
S'Mississippi'
p2202
I5
sS'Shelby'
p2203
I2
sS'Barry'
p2204
I2
sS'Montgomery'
p2205
I5
sS'Dunklin'
p2206
I10
sS'Wayne'
p2207
I10
sS'St. Francois'
p2208
I55
sS'Worth'
p2209
I6
sS'Texas'
p2210
I20
sS'Laclede'
p2211
I22
sS'Hickory'
p2212
I9
sS'Adair'
p2213
I4
sS'Henry'
p2214
I90
sS'Webster'
p2215
I18
sS'New Madrid'
p2216
I3
sS'Gasconade'
p2217
I14
sS'Newton'
p2218
I49
sS'Washington'
p2219
I5
sS'Moniteau'
p2220
I12
sS'Marion'
p2221
I5
sS'Jasper'
p2222
I110
sS'Polk'
p2223
I40
sS'Buchanan'
p2224
I8
sS'Warren'
p2225
I8
sS'Perry'
p2226
I16
sS'Jackson'
p2227
I5014
sS'Howard'
p2228
I1
sS'Caldwell'
p2229
I67
sS'Wright'
p2230
I14
sS'Jefferson'
p2231
I126
sS'Taney'
p2232
I61
sS'Butler'
p2233
I3
sS'Putnam'
p2234
I3
sS'St. Charles'
p2235
I249
sS'Oregon'
p2236
I7
sS'Stoddard'
p2237
I13
sS'Linn'
p2238
I7
sS'Callaway'
p2239
I94
sS'Pettis'
p2240
I19
sS'Camden'
p2241
I45
sS'Stone'
p2242
I9
sS'Johnson'
p2243
I75
sS'Barton'
p2244
I1
sS'Maries'
p2245
I18
sS'Greene'
p2246
I2232
sS'Ripley'
p2247
I10
sS'Clay'
p2248
I91
sS'Macon'
p2249
I1
sS'Madison'
p2250
I2
sS'Clinton'
p2251
I10
sS'Clark'
p2252
I40
sS'McDonald'
p2253
I62
sS'Ray'
p2254
I22
sS'Saline'
p2255
I18
sS'Miller'
p2256
I8
sS'Cooper'
p2257
I7
sS'Cass'
p2258
I80
sS'Dallas'
p2259
I16
sS'Scotland'
p2260
I1
sS'Morgan'
p2261
I13
sS'Lawrence'
p2262
I10
sS'Vernon'
p2263
I29
sS'Cedar'
p2264
I2
sS'Gentry'
p2265
I7
sS'Ozark'
p2266
I3
sS'Pike'
p2267
I3
sS'Lincoln'
p2268
I26
sS'Dade'
p2269
I4
sS'Dent'
p2270
I75
sS'Nodaway'
p2271
I6
sS'Franklin'
p2272
I97
sS'Audrain'
p2273
I15
sS'St. Louis (city)'
p2274
I177
sS'Carroll'
p2275
I12
sS'Schuyler'
p2276
I1
sS'Ralls'
p2277
I1
sS'Grundy'
p2278
I6
sS'Harrison'
p2279
I4
sS'Lewis'
p2280
I68
sS'Cole'
p2281
I79
sS'Shannon'
p2282
I1
sS'Bollinger'
p2283
I3
sS'Iron'
p2284
I10
sS'Pulaski'
p2285
I10
sS'Crawford'
p2286
I25
sS'Christian'
p2287
I25
sS'Phelps'
p2288
I254
sS'Andrew'
p2289
I4
sS'Atchison'
p2290
I7
sS'St. Clair'
p2291
I3
sS'Knox'
p2292
I1
sS'Platte'
p2293
I13
sS'Pemiscot'
p2294
I8
sS'Bates'
p2295
I108
sS'Cape Girardeau'
p2296
I114
sS'Benton'
p2297
I19
sS'Lafayette'
p2298
I16
sS'Howell'
p2299
I33
sS'Boone'
p2300
I2150
sS'St. Louis'
p2301
I304
sS'Carter'
p2302
I4
sS'Randolph'
p2303
I8
sS'Scott'
p2304
I23
sS'Reynolds'
p2305
I11
sS'Monroe'
p2306
I3
ssS'MN'
p2307
(dp2308
S'Le Sueur'
p2309
I5
sS'Lyon'
p2310
I3
sS'Hubbard'
p2311
I10
sS'Goodhue'
p2312
I29
sS'Martin'
p2313
I7
sS'Grant'
p2314
I1
sS'Steele'
p2315
I16
sS'Olmsted'
p2316
I255
sS'Lake'
p2317
I42
sS'Douglas'
p2318
I5
sS'Mower'
p2319
I21
sS'Wright'
p2320
I41
sS'Clearwater'
p2321
I1
sS'Wilkin'
p2322
I3
sS'Nobles'
p2323
I1
sS'Pine'
p2324
I11
sS'Rice'
p2325
I59
sS'Nicollet'
p2326
I3
sS'Morrison'
p2327
I8
sS'Dodge'
p2328
I1
sS'Brown'
p2329
I3
sS'Clay'
p2330
I2
sS'Pennington'
p2331
I3
sS'Norman'
p2332
I4
sS'Stevens'
p2333
I2
sS'Mahnomen'
p2334
I1
sS'Pipestone'
p2335
I1
sS'Wadena'
p2336
I1
sS'Koochiching'
p2337
I22
sS'Winona'
p2338
I10
sS'Faribault'
p2339
I1
sS'Ramsey'
p2340
I253
sS'Watonwan'
p2341
I1
sS'Cook'
p2342
I9
sS'Kittson'
p2343
I3
sS'Wabasha'
p2344
I2
sS'Isanti'
p2345
I17
sS'Mille Lacs'
p2346
I5
sS'Lincoln'
p2347
I2
sS'Stearns'
p2348
I18
sS'Roseau'
p2349
I2
sS'Freeborn'
p2350
I8
sS'Aitkin'
p2351
I33
sS'Benton'
p2352
I1
sS'Traverse'
p2353
I1
sS'Waseca'
p2354
I1
sS'Hennepin'
p2355
I4326
sS'Sherburne'
p2356
I33
sS'Meeker'
p2357
I2
sS'Otter Tail'
p2358
I33
sS'Cass'
p2359
I12
sS'Chisago'
p2360
I19
sS'Becker'
p2361
I6
sS'Anoka'
p2362
I132
sS'Beltrami'
p2363
I67
sS'St. Louis'
p2364
I743
sS'Houston'
p2365
I4
sS'McLeod'
p2366
I3
sS'Carver'
p2367
I42
sS'Fillmore'
p2368
I3
sS'Renville'
p2369
I1
sS'Pope'
p2370
I3
sS'Crow Wing'
p2371
I49
sS'Swift'
p2372
I1
sS'Yellow Medicine'
p2373
I2
sS'Washington'
p2374
I169
sS'Kanabec'
p2375
I3
sS'Carlton'
p2376
I61
sS'Scott'
p2377
I35
sS'Itasca'
p2378
I31
sS'Dakota'
p2379
I413
sS'Blue Earth'
p2380
I36
sS'Polk'
p2381
I13
sS'Sibley'
p2382
I1
sS'Kandiyohi'
p2383
I5
ssS'MI'
p2384
(dp2385
S'Osceola'
p2386
I17
sS'Jackson'
p2387
I240
sS'Branch'
p2388
I33
sS'Isabella'
p2389
I31
sS'Gogebic'
p2390
I22
sS'Ingham'
p2391
I698
sS'Leelanau'
p2392
I12
sS'Dickinson'
p2393
I22
sS'Calhoun'
p2394
I145
sS'Grand Traverse'
p2395
I218
sS'Gladwin'
p2396
I10
sS'Delta'
p2397
I38
sS'Presque Isle'
p2398
I13
sS'Wayne'
p2399
I1939
sS'Montmorency'
p2400
I3
sS'Keweenaw'
p2401
I29
sS'Kent'
p2402
I2422
sS'Ionia'
p2403
I32
sS'Alpena'
p2404
I4
sS'Crawford'
p2405
I15
sS'Benzie'
p2406
I16
sS'Oscoda'
p2407
I4
sS'Mecosta'
p2408
I21
sS'Tuscola'
p2409
I28
sS'Midland'
p2410
I31
sS'Sanilac'
p2411
I36
sS'Baraga'
p2412
I4
sS'St. Clair'
p2413
I39
sS'Manistee'
p2414
I14
sS'Cheboygan'
p2415
I19
sS'Van Buren'
p2416
I25
sS'Ogemaw'
p2417
I13
sS'Macomb'
p2418
I543
sS'Roscommon'
p2419
I12
sS'Lapeer'
p2420
I109
sS'Muskegon'
p2421
I181
sS'Oceana'
p2422
I12
sS'Missaukee'
p2423
I10
sS'Mason'
p2424
I10
sS'Emmet'
p2425
I40
sS'Wexford'
p2426
I11
sS'Iosco'
p2427
I30
sS'St. Joseph'
p2428
I37
sS'Kalkaska'
p2429
I6
sS'Houghton'
p2430
I96
sS'Saginaw'
p2431
I141
sS'Berrien'
p2432
I49
sS'Gratiot'
p2433
I15
sS'Washtenaw'
p2434
I778
sS'Iron'
p2435
I9
sS'Hillsdale'
p2436
I11
sS'Ottawa'
p2437
I315
sS'Bay'
p2438
I70
sS'Allegan'
p2439
I66
sS'Lake'
p2440
I7
sS'Livingston'
p2441
I340
sS'Eaton'
p2442
I64
sS'Alcona'
p2443
I6
sS'Cass'
p2444
I23
sS'Newaygo'
p2445
I151
sS'Montcalm'
p2446
I21
sS'Charlevoix'
p2447
I14
sS'Mackinac'
p2448
I2
sS'Kalamazoo'
p2449
I476
sS'Huron'
p2450
I6
sS'Clinton'
p2451
I12
sS'Alger'
p2452
I16
sS'Luce'
p2453
I3
sS'Clare'
p2454
I13
sS'Schoolcraft'
p2455
I1
sS'Arenac'
p2456
I3
sS'Chippewa'
p2457
I8
sS'Lenawee'
p2458
I43
sS'Genesee'
p2459
I1107
sS'Antrim'
p2460
I32
sS'Barry'
p2461
I29
sS'Shiawassee'
p2462
I52
sS'Otsego'
p2463
I32
sS'Ontonagon'
p2464
I2288
sS'Marquette'
p2465
I54
sS'Menominee'
p2466
I4
sS'Oakland'
p2467
I778
sS'Monroe'
p2468
I154
ssS'RI'
p2469
(dp2470
S'Newport'
p2471
I100
sS'Providence'
p2472
I617
sS'Washington'
p2473
I195
sS'Bristol'
p2474
I4
sS'Kent'
p2475
I311
ssS'KS'
p2476
(dp2477
S'Saline'
p2478
I91
sS'Lyon'
p2479
I23
sS'Ellis'
p2480
I6
sS'Russell'
p2481
I1
sS'Nemaha'
p2482
I4
sS'Cherokee'
p2483
I4
sS'Harvey'
p2484
I17
sS'Finney'
p2485
I16
sS'Lincoln'
p2486
I1
sS'Douglas'
p2487
I407
sS'Montgomery'
p2488
I13
sS'Phillips'
p2489
I10
sS'Wilson'
p2490
I1
sS'Jefferson'
p2491
I2
sS'Republic'
p2492
I1
sS'Dickinson'
p2493
I9
sS'Butler'
p2494
I62
sS'Shawnee'
p2495
I668
sS'McPherson'
p2496
I10
sS'Rice'
p2497
I2
sS'Crawford'
p2498
I11
sS'Bourbon'
p2499
I2
sS'Riley'
p2500
I15
sS'Norton'
p2501
I1
sS'Brown'
p2502
I2
sS'Jackson'
p2503
I6
sS'Labette'
p2504
I11
sS'Gove'
p2505
I1
sS'Sherman'
p2506
I6
sS'Kearny'
p2507
I3
sS'Ness'
p2508
I1
sS'Ford'
p2509
I3
sS'Linn'
p2510
I2
sS'Pratt'
p2511
I22
sS'Osborne'
p2512
I1
sS'Barber'
p2513
I1
sS'Stafford'
p2514
I3
sS'Harper'
p2515
I11
sS'Mitchell'
p2516
I3
sS'Coffey'
p2517
I3
sS'Greenwood'
p2518
I3
sS'Gray'
p2519
I1
sS'Sheridan'
p2520
I1
sS'Rawlins'
p2521
I1
sS'Johnson'
p2522
I1221
sS'Miami'
p2523
I8
sS'Barton'
p2524
I23
sS'Leavenworth'
p2525
I97
sS'Osage'
p2526
I12
sS'Ottawa'
p2527
I6
sS'Wyandotte'
p2528
I409
sS'Franklin'
p2529
I11
sS'Clay'
p2530
I1
sS'Sedgwick'
p2531
I2499
sS'Sumner'
p2532
I12
sS'Cowley'
p2533
I17
sS'Seward'
p2534
I15
sS'Marshall'
p2535
I3
sS'Geary'
p2536
I7
sS'Rush'
p2537
I1
sS'Thomas'
p2538
I21
sS'Rooks'
p2539
I3
sS'Kingman'
p2540
I6
sS'Neosho'
p2541
I22
sS'Washington'
p2542
I1
sS'Wabaunsee'
p2543
I1
sS'Reno'
p2544
I68
sS'Hodgeman'
p2545
I1
sS'Jewell'
p2546
I1
sS'Logan'
p2547
I1
sS'Marion'
p2548
I5
sS'Cloud'
p2549
I2
sS'Allen'
p2550
I2
sS'Morton'
p2551
I1
sS'Graham'
p2552
I1
sS'Pawnee'
p2553
I3
sS'Pottawatomie'
p2554
I4
sS'Chase'
p2555
I1
ssS'MT'
p2556
(dp2557
S'Judith Basin'
p2558
I1
sS'Richland'
p2559
I3
sS'Glacier'
p2560
I21
sS'Silver Bow'
p2561
I300
sS'Daniels'
p2562
I2
sS'Petroleum'
p2563
I1
sS'Lake'
p2564
I17
sS'Phillips'
p2565
I6
sS'Jefferson'
p2566
I8
sS'Hill'
p2567
I78
sS'Valley'
p2568
I3
sS'Powell'
p2569
I6
sS'Sanders'
p2570
I11
sS'Custer'
p2571
I6
sS'Park'
p2572
I23
sS'Chouteau'
p2573
I4
sS'Meagher'
p2574
I3
sS'Wheatland'
p2575
I1
sS'Yellowstone'
p2576
I474
sS'Carbon'
p2577
I5
sS'Stillwater'
p2578
I4
sS'Flathead'
p2579
I531
sS'Lincoln'
p2580
I25
sS'Mineral'
p2581
I8
sS'Fallon'
p2582
I3
sS'Fergus'
p2583
I7
sS'Big Horn'
p2584
I19
sS'Ravalli'
p2585
I54
sS'Missoula'
p2586
I751
sS'Cascade'
p2587
I469
sS'Roosevelt'
p2588
I37
sS'Madison'
p2589
I2
sS'Beaverhead'
p2590
I7
sS'Lewis and Clark'
p2591
I141
sS'Sweet Grass'
p2592
I1
sS'Pondera'
p2593
I7
sS'Deer Lodge'
p2594
I4
sS'Rosebud'
p2595
I3
sS'Prairie'
p2596
I1
sS'Blaine'
p2597
I7
sS'Dawson'
p2598
I1
sS'Toole'
p2599
I3
sS'Gallatin'
p2600
I618
ssS'MS'
p2601
(dp2602
S'Yalobusha'
p2603
I3
sS'Yazoo'
p2604
I13
sS'Jackson'
p2605
I67
sS'Sunflower'
p2606
I2
sS'Lamar'
p2607
I19
sS'Tate'
p2608
I3
sS'Carroll'
p2609
I2
sS'Pontotoc'
p2610
I16
sS'Smith'
p2611
I2
sS'Calhoun'
p2612
I1
sS'Hinds'
p2613
I266
sS'Bolivar'
p2614
I1
sS'Tishomingo'
p2615
I2
sS'Covington'
p2616
I3
sS'Perry'
p2617
I11
sS'Tippah'
p2618
I1
sS'Webster'
p2619
I1
sS'Stone'
p2620
I1
sS'Wilkinson'
p2621
I3
sS'Adams'
p2622
I18
sS'Leflore'
p2623
I11
sS'Newton'
p2624
I3
sS'Lee'
p2625
I139
sS'Pearl River'
p2626
I17
sS'Leake'
p2627
I3
sS'Rankin'
p2628
I55
sS'Union'
p2629
I1
sS'Walthall'
p2630
I1
sS'Amite'
p2631
I3
sS'Scott'
p2632
I1
sS'DeSoto'
p2633
I36
sS'Winston'
p2634
I2
sS'Prentiss'
p2635
I5
sS'Clarke'
p2636
I17
sS'Alcorn'
p2637
I10
sS'Jones'
p2638
I29
sS'Pike'
p2639
I10
sS'Lincoln'
p2640
I2
sS'Choctaw'
p2641
I1
sS'Neshoba'
p2642
I6
sS'Humphreys'
p2643
I3
sS'Hancock'
p2644
I4
sS'Coahoma'
p2645
I6
sS'Chickasaw'
p2646
I1
sS'Tallahatchie'
p2647
I1
sS'Lafayette'
p2648
I8
sS'Franklin'
p2649
I6
sS'Grenada'
p2650
I6
sS'Noxubee'
p2651
I1
sS'Simpson'
p2652
I13
sS'Kemper'
p2653
I1
sS'Lauderdale'
p2654
I20
sS'Madison'
p2655
I14
sS'Tunica'
p2656
I4
sS'Quitman'
p2657
I2
sS'Copiah'
p2658
I2
sS'Panola'
p2659
I9
sS'Washington'
p2660
I3
sS'Itawamba'
p2661
I11
sS'George'
p2662
I6
sS'Holmes'
p2663
I1
sS'Wayne'
p2664
I1
sS'Marion'
p2665
I18
sS'Jasper'
p2666
I1
sS'Harrison'
p2667
I287
sS'Attala'
p2668
I3
sS'Jefferson Davis'
p2669
I1
sS'Oktibbeha'
p2670
I29
sS'Lowndes'
p2671
I19
sS'Forrest'
p2672
I70
sS'Marshall'
p2673
I4
sS'Monroe'
p2674
I3
sS'Warren'
p2675
I36
ssS'SC'
p2676
(dp2677
S'Lancaster'
p2678
I27
sS'Colleton'
p2679
I14
sS'Richland'
p2680
I717
sS'Cherokee'
p2681
I18
sS'Sumter'
p2682
I121
sS'Greenville'
p2683
I394
sS'Fairfield'
p2684
I191
sS'Kershaw'
p2685
I9
sS'Anderson'
p2686
I92
sS'Abbeville'
p2687
I3
sS'Union'
p2688
I3
sS'Horry'
p2689
I10801
sS'Spartanburg'
p2690
I84
sS'Pickens'
p2691
I79
sS'Georgetown'
p2692
I292
sS'Lee'
p2693
I4
sS'Bamberg'
p2694
I1
sS'Clarendon'
p2695
I4
sS'Marlboro'
p2696
I2
sS'Saluda'
p2697
I3
sS'Oconee'
p2698
I10
sS'Newberry'
p2699
I9
sS'York'
p2700
I270
sS'Berkeley'
p2701
I122
sS'Beaufort'
p2702
I38
sS'Greenwood'
p2703
I13
sS'Orangeburg'
p2704
I10
sS'Laurens'
p2705
I20
sS'Williamsburg'
p2706
I12
sS'Lexington'
p2707
I141
sS'Chester'
p2708
I11
sS'Charleston'
p2709
I925
sS'Chesterfield'
p2710
I3
sS'Dorchester'
p2711
I278
sS'Hampton'
p2712
I3
sS'Aiken'
p2713
I55
sS'Dillon'
p2714
I5
sS'Jasper'
p2715
I6
sS'Darlington'
p2716
I32
sS'Barnwell'
p2717
I17
sS'Florence'
p2718
I96
ssS'KY'
p2719
(dp2720
S'Metcalfe'
p2721
I6
sS'Daviess'
p2722
I122
sS'Russell'
p2723
I38
sS'Shelby'
p2724
I4
sS'Union'
p2725
I7
sS'Montgomery'
p2726
I8
sS'Wayne'
p2727
I10
sS'Bourbon'
p2728
I15
sS'Powell'
p2729
I7
sS'Boyle'
p2730
I15
sS'Henderson'
p2731
I25
sS'Breckinridge'
p2732
I2
sS'Casey'
p2733
I6
sS'Adair'
p2734
I11
sS'McCreary'
p2735
I2
sS'Nelson'
p2736
I47
sS'Henry'
p2737
I3
sS'Barren'
p2738
I8
sS'Webster'
p2739
I1
sS'Bullitt'
p2740
I22
sS'Trimble'
p2741
I1
sS'Marion'
p2742
I3
sS'Allen'
p2743
I45
sS'Warren'
p2744
I407
sS'Perry'
p2745
I40
sS'Graves'
p2746
I18
sS'Grant'
p2747
I7
sS'Oldham'
p2748
I29
sS'Mason'
p2749
I10
sS'Wolfe'
p2750
I1
sS'Anderson'
p2751
I3
sS'Jefferson'
p2752
I6909
sS'Breathitt'
p2753
I3
sS'Kenton'
p2754
I61
sS'Boyd'
p2755
I121
sS'McLean'
p2756
I1
sS'Johnson'
p2757
I16
sS'Hopkins'
p2758
I35
sS'Whitley'
p2759
I19
sS'Woodford'
p2760
I4
sS'Green'
p2761
I7
sS'Clay'
p2762
I5
sS'Ohio'
p2763
I2
sS'Spencer'
p2764
I3
sS'Fulton'
p2765
I4
sS'Madison'
p2766
I213
sS'Taylor'
p2767
I10
sS'Clark'
p2768
I19
sS'Todd'
p2769
I8
sS'Grayson'
p2770
I3
sS'Hart'
p2771
I1
sS'Lyon'
p2772
I9
sS'Morgan'
p2773
I4
sS'Magoffin'
p2774
I3
sS'Jessamine'
p2775
I29
sS'Letcher'
p2776
I19
sS'Jackson'
p2777
I3
sS'Lawrence'
p2778
I30
sS'Trigg'
p2779
I1
sS'McCracken'
p2780
I106
sS'Fayette'
p2781
I1167
sS'Floyd'
p2782
I3
sS'Pike'
p2783
I34
sS'Lincoln'
p2784
I6
sS'Ballard'
p2785
I1
sS'Livingston'
p2786
I25
sS'Harlan'
p2787
I16
sS'Franklin'
p2788
I10
sS'Larue'
p2789
I1
sS'Bell'
p2790
I16
sS'Marshall'
p2791
I19
sS'Carroll'
p2792
I1
sS'Bath'
p2793
I2
sS'Campbell'
p2794
I10
sS'Laurel'
p2795
I19
sS'Mercer'
p2796
I25
sS'Gallatin'
p2797
I3
sS'Cumberland'
p2798
I3
sS'Pulaski'
p2799
I8
sS'Rowan'
p2800
I106
sS'Elliott'
p2801
I2
sS'Christian'
p2802
I59
sS'Greenup'
p2803
I21
sS'Leslie'
p2804
I1
sS'Knox'
p2805
I11
sS'Hancock'
p2806
I6
sS'Hardin'
p2807
I123
sS'Meade'
p2808
I10
sS'Boone'
p2809
I118
sS'Martin'
p2810
I1
sS'Garrard'
p2811
I22
sS'Edmonson'
p2812
I2
sS'Simpson'
p2813
I6
sS'Muhlenberg'
p2814
I111
sS'Carter'
p2815
I9
sS'Knott'
p2816
I6
sS'Lewis'
p2817
I4
sS'Calloway'
p2818
I50
sS'Fleming'
p2819
I14
sS'Logan'
p2820
I5
sS'Scott'
p2821
I19
sS'Monroe'
p2822
I4
ssS'OR'
p2823
(dp2824
S'Sherman'
p2825
I2
sS'Jackson'
p2826
I946
sS'Grant'
p2827
I5
sS'Union'
p2828
I38
sS'Wheeler'
p2829
I1
sS'Umatilla'
p2830
I52
sS'Lane'
p2831
I4328
sS'Lake'
p2832
I48
sS'Douglas'
p2833
I225
sS'Klamath'
p2834
I131
sS'Wasco'
p2835
I85
sS'Jefferson'
p2836
I31
sS'Hood River'
p2837
I29
sS'Coos'
p2838
I103
sS'Multnomah'
p2839
I48610
sS'Columbia'
p2840
I54
sS'Crook'
p2841
I78
sS'Clackamas'
p2842
I791
sS'Linn'
p2843
I414
sS'Lincoln'
p2844
I344
sS'Wallowa'
p2845
I1
sS'Baker'
p2846
I56
sS'Clatsop'
p2847
I89
sS'Benton'
p2848
I474
sS'Yamhill'
p2849
I185
sS'Morrow'
p2850
I3
sS'Malheur'
p2851
I17
sS'Deschutes'
p2852
I618
sS'Curry'
p2853
I98
sS'Harney'
p2854
I4
sS'Josephine'
p2855
I453
sS'Washington'
p2856
I1922
sS'Tillamook'
p2857
I56
sS'Marion'
p2858
I3903
sS'Polk'
p2859
I44
ssS'SD'
p2860
(dp2861
S'Bon Homme'
p2862
I2
sS'Bennett'
p2863
I1
sS'Jackson'
p2864
I1
sS'Lyman'
p2865
I1
sS'Grant'
p2866
I1
sS'Union'
p2867
I2
sS'Lake'
p2868
I2
sS'McCook'
p2869
I2
sS'Brookings'
p2870
I1
sS'Lincoln'
p2871
I2
sS'Brown'
p2872
I3
sS'Minnehaha'
p2873
I535
sS'Pennington'
p2874
I329
sS'Custer'
p2875
I1
sS'Lawrence'
p2876
I11
sS'Yankton'
p2877
I45
sS'Codington'
p2878
I11
sS'Haakon'
p2879
I2
sS'Butte'
p2880
I1
sS'Day'
p2881
I1
sS'Moody'
p2882
I10
sS'Davison'
p2883
I15
sS'Hughes'
p2884
I10
sS'Hutchinson'
p2885
I1
sS'Edmunds'
p2886
I3
sS'Roberts'
p2887
I8
sS'Meade'
p2888
I7
sS'Clay'
p2889
I4
sS'Gregory'
p2890
I1
sS'Brule'
p2891
I1
sS'Fall River'
p2892
I3
sS'Marshall'
p2893
I1
sS'Beadle'
p2894
I10
sS'Charles Mix'
p2895
I4
sS'Hyde'
p2896
I1
sS'Kingsbury'
p2897
I2
sS'Todd'
p2898
I9
sS'Turner'
p2899
I2
sS'Dewey'
p2900
I28
sS'Shannon'
p2901
I6
ss.