(dp0
S'WA'
p1
(dp2
S'San Juan'
p3
I34
sS'Pend Oreille'
p4
I10
sS'Snohomish'
p5
I5993
sS'Grant'
p6
I375
sS'Lincoln'
p7
I48
sS'Douglas'
p8
I46
sS'Kittitas'
p9
I106
sS'Jefferson'
p10
I60
sS'Wahkiakum'
p11
I1
sS'Whatcom'
p12
I2160
sS'Adams'
p13
I4
sS'Cowlitz'
p14
I241
sS'Thurston'
p15
I1457
sS'Yakima'
p16
I2779
sS'Klickitat'
p17
I139
sS'Okanogan'
p18
I71
sS'Kitsap'
p19
I2108
sS'Clallam'
p20
I572
sS'King'
p21
I85961
sS'Pierce'
p22
I5386
sS'Spokane'
p23
I3367
sS'Whitman'
p24
I9
sS'Grays Harbor'
p25
I61
sS'Island'
p26
I106
sS'Benton'
p27
I879
sS'Franklin'
p28
I37
sS'Ferry'
p29
I16
sS'Mason'
p30
I110
sS'Skagit'
p31
I217
sS'Skamania'
p32
I4
sS'Clark'
p33
I6211
sS'Walla Walla'
p34
I142
sS'Lewis'
p35
I142
sS'Stevens'
p36
I69
sS'Pacific'
p37
I17
sS'Chelan'
p38
I953
sS'Asotin'
p39
I22
ssS'DE'
p40
(dp41
S'New Castle'
p42
I429
sS'Sussex'
p43
I89
sS'Kent'
p44
I119
ssS'WI'
p45
(dp46
S'Marinette'
p47
I7
sS'Jackson'
p48
I9
sS'Richland'
p49
I7
sS'Grant'
p50
I6
sS'Iron'
p51
I3
sS'Portage'
p52
I92
sS'Rock'
p53
I52
sS'Trempealeau'
p54
I6
sS'Douglas'
p55
I30
sS'Ozaukee'
p56
I37
sS'Bayfield'
p57
I6
sS'St. Croix'
p58
I35
sS'Jefferson'
p59
I12
sS'Forest'
p60
I2
sS'Vilas'
p61
I11
sS'Waushara'
p62
I33
sS'Fond du Lac'
p63
I80
sS'Lincoln'
p64
I32
sS'Racine'
p65
I113
sS'Waupaca'
p66
I13
sS'Dodge'
p67
I17
sS'Brown'
p68
I260
sS'Iowa'
p69
I2
sS'Dunn'
p70
I5
sS'Barron'
p71
I14
sS'Winnebago'
p72
I130
sS'Manitowoc'
p73
I33
sS'Oconto'
p74
I4
sS'Walworth'
p75
I69
sS'Vernon'
p76
I4
sS'Columbia'
p77
I110
sS'Sheboygan'
p78
I76
sS'Waukesha'
p79
I279
sS'Rusk'
p80
I1
sS'Pierce'
p81
I35
sS'Langlade'
p82
I9
sS'Adams'
p83
I28
sS'Oneida'
p84
I10
sS'Sawyer'
p85
I25
sS'Green'
p86
I5
sS'Kenosha'
p87
I249
sS'Burnett'
p88
I4
sS'Sauk'
p89
I14
sS'Door'
p90
I34
sS'Dane'
p91
I965
sS'Eau Claire'
p92
I37
sS'Buffalo'
p93
I4
sS'Menominee'
p94
I1
sS'La Crosse'
p95
I135
sS'Taylor'
p96
I1
sS'Green Lake'
p97
I18
sS'Calumet'
p98
I4
sS'Clark'
p99
I10
sS'Chippewa'
p100
I15
sS'Washington'
p101
I85
sS'Outagamie'
p102
I73
sS'Ashland'
p103
I4
sS'Shawano'
p104
I11
sS'Wood'
p105
I31
sS'Marathon'
p106
I36
sS'Juneau'
p107
I4
sS'Milwaukee'
p108
I1443
sS'Washburn'
p109
I4
sS'Polk'
p110
I16
sS'Monroe'
p111
I10
sS'Kewaunee'
p112
I5
ssS'WV'
p113
(dp114
S'Summers'
p115
I1
sS'Jackson'
p116
I16
sS'Morgan'
p117
I3
sS'Grant'
p118
I11
sS'Pendleton'
p119
I1
sS'Calhoun'
p120
I10
sS'Hampshire'
p121
I12
sS'Mason'
p122
I6
sS'Roane'
p123
I5
sS'Wirt'
p124
I2
sS'Jefferson'
p125
I7
sS'Webster'
p126
I1
sS'Nicholas'
p127
I22
sS'Putnam'
p128
I5
sS'McDowell'
p129
I1
sS'Greenbrier'
p130
I7
sS'Gilmer'
p131
I1
sS'Fayette'
p132
I32
sS'Tucker'
p133
I1
sS'Wetzel'
p134
I7
sS'Barbour'
p135
I4
sS'Berkeley'
p136
I107
sS'Brooke'
p137
I6
sS'Ritchie'
p138
I8
sS'Pocahontas'
p139
I3
sS'Randolph'
p140
I11
sS'Wayne'
p141
I5
sS'Lincoln'
p142
I2
sS'Mineral'
p143
I3
sS'Braxton'
p144
I4
sS'Hancock'
p145
I16
sS'Pleasants'
p146
I4
sS'Raleigh'
p147
I44
sS'Boone'
p148
I1
sS'Ohio'
p149
I79
sS'Monongalia'
p150
I234
sS'Upshur'
p151
I3
sS'Taylor'
p152
I15
sS'Lewis'
p153
I1
sS'Marshall'
p154
I17
sS'Mingo'
p155
I3
sS'Cabell'
p156
I192
sS'Tyler'
p157
I3
sS'Logan'
p158
I5
sS'Wood'
p159
I56
sS'Marion'
p160
I16
sS'Harrison'
p161
I19
sS'Kanawha'
p162
I69
sS'Mercer'
p163
I11
sS'Preston'
p164
I5
ssS'HI'
p165
(dp166
S'Maui'
p167
I61
sS'Kauai'
p168
I5
sS'Hawaii'
p169
I37
sS'Honolulu'
p170
I1608
ssS'FL'
p171
(dp172
S'Alachua'
p173
I826
sS'Pasco'
p174
I514
sS'Jackson'
p175
I6
sS'Santa Rosa'
p176
I342
sS'Gulf'
p177
I3
sS'Union'
p178
I1
sS'Volusia'
p179
I652
sS'Duval'
p180
I4885
sS'Sumter'
p181
I8
sS'Lake'
p182
I175
sS'Hillsborough'
p183
I5257
sS'Flagler'
p184
I263
sS'Okaloosa'
p185
I439
sS'Miami-Dade'
p186
I15985
sS'Seminole'
p187
I359
sS'Orange'
p188
I13470
sS'Indian River'
p189
I154
sS'Levy'
p190
I16
sS'Hardee'
p191
I4
sS'Columbia'
p192
I13
sS'Lee'
p193
I1054
sS'Sarasota'
p194
I2713
sS'Okeechobee'
p195
I66
sS'Manatee'
p196
I693
sS'Walton'
p197
I17
sS'Hernando'
p198
I205
sS'Hamilton'
p199
I3
sS'Nassau'
p200
I25
sS'Broward'
p201
I1818
sS'Putnam'
p202
I12
sS'Wakulla'
p203
I11
sS'Bradford'
p204
I12
sS'Suwannee'
p205
I13
sS'Highlands'
p206
I56
sS'Gadsden'
p207
I4
sS'Osceola'
p208
I164
sS'St. Johns'
p209
I14
sS'Taylor'
p210
I4
sS'Glades'
p211
I4
sS'Clay'
p212
I23
sS'Pinellas'
p213
I684
sS'Martin'
p214
I125
sS'Bay'
p215
I187
sS'DeSoto'
p216
I28
sS'Holmes'
p217
I34
sS'Charlotte'
p218
I185
sS'Palm Beach'
p219
I2370
sS'Dixie'
p220
I1
sS'Washington'
p221
I6
sS'Gilchrist'
p222
I1
sS'Leon'
p223
I619
sS'Jefferson'
p224
I1
sS'Citrus'
p225
I51
sS'Brevard'
p226
I921
sS'Marion'
p227
I516
sS'St. Lucie'
p228
I110
sS'Escambia'
p229
I833
sS'Collier'
p230
I904
sS'Polk'
p231
I560
sS'Monroe'
p232
I240
sS'Franklin'
p233
I7
ssS'WY'
p234
(dp235
S'Goshen'
p236
I2
sS'Albany'
p237
I109
sS'Sheridan'
p238
I10
sS'Converse'
p239
I6
sS'Natrona'
p240
I107
sS'Johnson'
p241
I1
sS'Crook'
p242
I1
sS'Fremont'
p243
I10
sS'Bear Lake'
p244
I1
sS'Sweetwater'
p245
I69
sS'Park'
p246
I19
sS'Lincoln'
p247
I4
sS'Laramie'
p248
I171
sS'Hot Springs'
p249
I1
sS'Washakie'
p250
I3
sS'Uinta'
p251
I12
sS'Sublette'
p252
I2
sS'Campbell'
p253
I36
sS'Carbon'
p254
I9
sS'Platte'
p255
I1
sS'Teton'
p256
I1
ssS'NH'
p257
(dp258
S'Coos'
p259
I41
sS'Belknap'
p260
I131
sS'Strafford'
p261
I100
sS'Sullivan'
p262
I9
sS'Grafton'
p263
I67
sS'Carroll'
p264
I32
sS'Merrimack'
p265
I87
sS'Hillsborough'
p266
I246
sS'Rockingham'
p267
I281
sS'Cheshire'
p268
I36
ssS'NJ'
p269
(dp270
S'Burlington'
p271
I98
sS'Hudson'
p272
I358
sS'Middlesex'
p273
I350
sS'Cumberland'
p274
I59
sS'Monmouth'
p275
I217
sS'Union'
p276
I159
sS'Mercer'
p277
I66
sS'Sussex'
p278
I111
sS'Essex'
p279
I194
sS'Ocean'
p280
I206
sS'Morris'
p281
I138
sS'Salem'
p282
I15
sS'Camden'
p283
I253
sS'Somerset'
p284
I134
sS'Atlantic'
p285
I172
sS'Cape May'
p286
I129
sS'Gloucester'
p287
I65
sS'Passaic'
p288
I140
sS'Bergen'
p289
I172
sS'Hunterdon'
p290
I111
sS'Warren'
p291
I24
ssS'NM'
p292
(dp293
S'San Juan'
p294
I82
sS'San Miguel'
p295
I21
sS'Otero'
p296
I23
sS'Bernalillo'
p297
I9598
sS'Grant'
p298
I127
sS'Rio Arriba'
p299
I21
sS'Guadalupe'
p300
I4
sS'Eddy'
p301
I55
sS'Sierra'
p302
I28
sS'Valencia'
p303
I16
sS'Torrance'
p304
I5
sS'Taos'
p305
I86
sS'Lea'
p306
I13
sS'Cibola'
p307
I9
sS'Quay'
p308
I3
sS'Chaves'
p309
I232
sS'Catron'
p310
I11
sS'Sandoval'
p311
I119
sS'Socorro'
p312
I19
sS'Lincoln'
p313
I8
sS'Colfax'
p314
I7
sS'Roosevelt'
p315
I2
sS'Los Alamos'
p316
I3
sS'Curry'
p317
I25
sS'De Baca'
p318
I6
sS'Santa Fe'
p319
I1006
sS'Luna'
p320
I66
sS'Do\xc3\xb1a Ana'
p321
I607
sS'McKinley'
p322
I39
ssS'TX'
p323
(dp324
S'Wilson'
p325
I2
sS'Sherman'
p326
I1
sS'Zapata'
p327
I1
sS'Bowie'
p328
I164
sS'Brewster'
p329
I19
sS'Gonzales'
p330
I16
sS'Burnet'
p331
I48
sS'Duval'
p332
I9
sS'Smith'
p333
I68
sS'Chambers'
p334
I10
sS'Montgomery'
p335
I101
sS'Tyler'
p336
I3
sS'Hill'
p337
I6
sS'Schleicher'
p338
I3
sS'Robertson'
p339
I3
sS'Hudspeth'
p340
I1
sS'La Salle'
p341
I24
sS'Trinity'
p342
I6
sS'Henderson'
p343
I35
sS'Brown'
p344
I32
sS'Sabine'
p345
I4
sS'Angelina'
p346
I15
sS'Goliad'
p347
I3
sS'Upton'
p348
I4
sS'Blanco'
p349
I2
sS'Pecos'
p350
I1
sS'Live Oak'
p351
I2
sS'Hockley'
p352
I2
sS'Victoria'
p353
I16
sS'Montague'
p354
I6
sS'El Paso'
p355
I1892
sS'Harris'
p356
I24213
sS'Coryell'
p357
I78
sS'Kendall'
p358
I7
sS'Shackelford'
p359
I3
sS'Reagan'
p360
I1
sS'Matagorda'
p361
I12
sS'Palo Pinto'
p362
I7
sS'Uvalde'
p363
I1
sS'Titus'
p364
I24
sS'Camp'
p365
I1
sS'Navarro'
p366
I12
sS'Jeff Davis'
p367
I11
sS'Burleson'
p368
I2
sS'Tarrant'
p369
I2950
sS'San Jacinto'
p370
I30
sS'Erath'
p371
I40
sS'Upshur'
p372
I6
sS'Colorado'
p373
I5
sS'Parker'
p374
I40
sS'Aransas'
p375
I7
sS'Stephens'
p376
I2
sS'Armstrong'
p377
I1
sS'Freestone'
p378
I15
sS'Panola'
p379
I7
sS'Potter'
p380
I300
sS'Hall'
p381
I7
sS'Milam'
p382
I24
sS'Marion'
p383
I1
sS'Jasper'
p384
I2
sS'Lampasas'
p385
I2
sS'Hemphill'
p386
I1
sS'San Augustine'
p387
I1
sS'Polk'
p388
I19
sS'Newton'
p389
I4
sS'Jackson'
p390
I1
sS'Kent'
p391
I1
sS'Rusk'
p392
I18
sS'Caldwell'
p393
I2
sS'Washington'
p394
I4
sS'Deaf Smith'
p395
I2
sS'Mills'
p396
I8
sS'Webb'
p397
I45
sS'Liberty'
p398
I10
sS'Mason'
p399
I3
sS'Anderson'
p400
I16
sS'Jefferson'
p401
I64
sS'Dickens'
p402
I2
sS'Orange'
p403
I47
sS'Hardin'
p404
I7
sS'Howard'
p405
I6
sS'Nacogdoches'
p406
I61
sS'Lamar'
p407
I25
sS'Lee'
p408
I3
sS'Maverick'
p409
I15
sS'DeWitt'
p410
I3
sS'Crockett'
p411
I3
sS'Wilbarger'
p412
I1
sS'Hamilton'
p413
I18
sS'Terry'
p414
I6
sS'Randall'
p415
I10
sS'Ward'
p416
I1
sS'Reeves'
p417
I4
sS'Hays'
p418
I114
sS'Johnson'
p419
I62
sS'Hopkins'
p420
I75
sS'Kerr'
p421
I3
sS'Stonewall'
p422
I1
sS'Archer'
p423
I1
sS'Clay'
p424
I1
sS'Comal'
p425
I87
sS'Borden'
p426
I92
sS'Winkler'
p427
I6
sS'Madison'
p428
I11
sS'Taylor'
p429
I411
sS'Van Zandt'
p430
I23
sS'Briscoe'
p431
I1
sS'Collingsworth'
p432
I1
sS'Travis'
p433
I10316
sS'Cameron'
p434
I89
sS'Nueces'
p435
I749
sS'Bastrop'
p436
I41
sS'Hidalgo'
p437
I105
sS'Gillespie'
p438
I6
sS'Lamb'
p439
I1
sS'Bexar'
p440
I10163
sS'McCulloch'
p441
I2
sS'Midland'
p442
I78
sS'Dallas'
p443
I6081
sS'Cherokee'
p444
I12
sS'Collin'
p445
I859
sS'Red River'
p446
I8
sS'Guadalupe'
p447
I18
sS'McLennan'
p448
I115
sS'Starr'
p449
I3
sS'Shelby'
p450
I11
sS'Tom Green'
p451
I79
sS'Frio'
p452
I1
sS'Gregg'
p453
I49
sS'Wheeler'
p454
I1
sS'Fayette'
p455
I7
sS'Medina'
p456
I8
sS'Wharton'
p457
I5
sS'San Saba'
p458
I6
sS'Zavala'
p459
I1
sS'Garza'
p460
I6
sS'Bosque'
p461
I5
sS'Jim Wells'
p462
I29
sS'Kinney'
p463
I1
sS'Galveston'
p464
I272
sS'Eastland'
p465
I14
sS'Jack'
p466
I1
sS'Hutchinson'
p467
I5
sS'Jim Hogg'
p468
I1
sS'Bee'
p469
I3
sS'Lavaca'
p470
I2
sS'Rains'
p471
I6
sS'Cooke'
p472
I8
sS'Franklin'
p473
I67
sS'Fisher'
p474
I21
sS'Walker'
p475
I15
sS'Austin'
p476
I4
sS'Llano'
p477
I5
sS'Bell'
p478
I131
sS'Floyd'
p479
I3
sS'Brazoria'
p480
I123
sS'Leon'
p481
I29
sS'Kaufman'
p482
I32
sS'Bandera'
p483
I9
sS'Harrison'
p484
I9
sS'Hardeman'
p485
I1
sS'San Patricio'
p486
I10
sS'Hood'
p487
I11
sS'Denton'
p488
I620
sS'Rockwall'
p489
I19
sS'Ellis'
p490
I88
sS'Sutton'
p491
I1
sS'Lubbock'
p492
I191
sS'Edwards'
p493
I1
sS'Wood'
p494
I35
sS'Roberts'
p495
I1
sS'Coleman'
p496
I13
sS'Real'
p497
I6
sS'Williamson'
p498
I580
sS'Runnels'
p499
I13
sS'Brazos'
p500
I202
sS'Falls'
p501
I2
sS'Hale'
p502
I4
sS'Andrews'
p503
I3
sS'Ector'
p504
I78
sS'Jones'
p505
I7
sS'Lynn'
p506
I1
sS'Wise'
p507
I23
sS'Fort Bend'
p508
I22
sS'Hunt'
p509
I7
sS'Wichita'
p510
I140
sS'Willacy'
p511
I1
sS'Concho'
p512
I3
sS'Grayson'
p513
I51
sS'Cass'
p514
I6
sS'Waller'
p515
I254
sS'Yoakum'
p516
I1
sS'Gray'
p517
I3
sS'Kleberg'
p518
I15
sS'Mitchell'
p519
I3
sS'Dawson'
p520
I1
sS'Grimes'
p521
I3
sS'Comanche'
p522
I39
sS'Houston'
p523
I28
sS'Limestone'
p524
I32
sS'Val Verde'
p525
I16
sS'Presidio'
p526
I7
sS'Atascosa'
p527
I2
sS'Fannin'
p528
I12
sS'Kimble'
p529
I10
sS'Haskell'
p530
I3
sS'Callahan'
p531
I302
sS'Somervell'
p532
I15
ssS'LA'
p533
(dp534
S'Orleans'
p535
I326
sS'Jackson'
p536
I4
sS'Richland'
p537
I1
sS'Grant'
p538
I1
sS'Union'
p539
I33
sS'Plaquemines'
p540
I5
sS'Tangipahoa'
p541
I19
sS'Jefferson'
p542
I55
sS'St. John the Baptist'
p543
I3
sS'Jefferson Davis'
p544
I10
sS'St. Mary'
p545
I13
sS'Webster'
p546
I9
sS'La Salle'
p547
I1
sS'Allen'
p548
I1
sS'Terrebonne'
p549
I3
sS'Ouachita'
p550
I39
sS'Pointe Coupee'
p551
I1
sS'East Feliciana'
p552
I3
sS'Caldwell'
p553
I3
sS'St. James'
p554
I1
sS'St. Tammany'
p555
I153
sS'St. Bernard'
p556
I5
sS'Acadia'
p557
I15
sS'De Soto'
p558
I1
sS'Caddo'
p559
I81
sS'Sabine'
p560
I3
sS'Lincoln'
p561
I7
sS'Natchitoches'
p562
I51
sS'Iberia'
p563
I16
sS'St. Landry'
p564
I14
sS'St. Charles'
p565
I5
sS'East Carroll'
p566
I1
sS'Lafourche'
p567
I9
sS'Cameron'
p568
I1
sS'Calcasieu'
p569
I208
sS'Rapides'
p570
I58
sS'Livingston'
p571
I78
sS'Lafayette'
p572
I94
sS'Franklin'
p573
I1
sS'Avoyelles'
p574
I5
sS'Morehouse'
p575
I15
sS'Beauregard'
p576
I5
sS'Bossier'
p577
I49
sS'West Baton Rouge'
p578
I2
sS'East Baton Rouge'
p579
I358
sS'Washington'
p580
I8
sS'Vermilion'
p581
I6
sS'Bienville'
p582
I1
sS'Assumption'
p583
I15
sS'Ascension'
p584
I28
sS'St. Martin'
p585
I2
sS'Iberville'
p586
I1
ssS'NC'
p587
(dp588
S'Wilson'
p589
I70
sS'Currituck'
p590
I9
sS'Union'
p591
I47
sS'Bladen'
p592
I5
sS'Montgomery'
p593
I7
sS'Wayne'
p594
I16
sS'Robeson'
p595
I14
sS'Brunswick'
p596
I443
sS'Henderson'
p597
I117
sS'Anson'
p598
I49
sS'Catawba'
p599
I116
sS'Yadkin'
p600
I7
sS'Stokes'
p601
I14
sS'Pasquotank'
p602
I16
sS'Hoke'
p603
I16
sS'Wilkes'
p604
I32
sS'Alamance'
p605
I54
sS'Moore'
p606
I14
sS'Washington'
p607
I2
sS'Duplin'
p608
I63
sS'Cabarrus'
p609
I102
sS'Camden'
p610
I4
sS'New Hanover'
p611
I932
sS'Polk'
p612
I6
sS'Warren'
p613
I6
sS'Watauga'
p614
I32
sS'Jackson'
p615
I5
sS'Transylvania'
p616
I5
sS'Caldwell'
p617
I12
sS'Onslow'
p618
I166
sS'Granville'
p619
I3
sS'Orange'
p620
I58
sS'Burke'
p621
I61
sS'Lee'
p622
I22
sS'Avery'
p623
I9
sS'Buncombe'
p624
I473
sS'Guilford'
p625
I768
sS'Durham'
p626
I278
sS'Wake'
p627
I1865
sS'Chatham'
p628
I16
sS'Beaufort'
p629
I13
sS'Vance'
p630
I1
sS'Rutherford'
p631
I72
sS'Harnett'
p632
I21
sS'Davie'
p633
I13
sS'Pender'
p634
I23
sS'Forsyth'
p635
I68
sS'Clay'
p636
I1
sS'Macon'
p637
I22
sS'Madison'
p638
I63
sS'Gaston'
p639
I214
sS'Northampton'
p640
I1
sS'Hyde'
p641
I2
sS'Stanly'
p642
I6
sS'Lenoir'
p643
I4
sS'Cherokee'
p644
I9
sS'Scotland'
p645
I5
sS'Richmond'
p646
I2
sS'Davidson'
p647
I48
sS'Columbus'
p648
I7
sS'Mecklenburg'
p649
I6636
sS'Bertie'
p650
I3
sS'Alexander'
p651
I4
sS'Lincoln'
p652
I19
sS'Sampson'
p653
I56
sS'Edgecombe'
p654
I9
sS'Ashe'
p655
I5
sS'Craven'
p656
I75
sS'Iredell'
p657
I76
sS'Franklin'
p658
I21
sS'Carteret'
p659
I98
sS'Johnston'
p660
I74
sS'Nash'
p661
I132
sS'Caswell'
p662
I1
sS'Cleveland'
p663
I37
sS'Halifax'
p664
I9
sS'Cumberland'
p665
I269
sS'Rockingham'
p666
I17
sS'Rowan'
p667
I119
sS'McDowell'
p668
I17
sS'Haywood'
p669
I4
sS'Pamlico'
p670
I5
sS'Dare'
p671
I148
sS'Jones'
p672
I8
sS'Pitt'
p673
I55
sS'Martin'
p674
I2
sS'Mitchell'
p675
I19
sS'Gates'
p676
I4
sS'Person'
p677
I56
sS'Yancey'
p678
I102
sS'Surry'
p679
I29
sS'Perquimans'
p680
I3
sS'Randolph'
p681
I32
ssS'ND'
p682
(dp683
S'Stutsman'
p684
I1
sS'Richland'
p685
I4
sS'Kidder'
p686
I1
sS'Stark'
p687
I5
sS'Grand Forks'
p688
I28
sS'Williams'
p689
I14
sS'Dunn'
p690
I1
sS'Ramsey'
p691
I4
sS'Ward'
p692
I55
sS'Benson'
p693
I1
sS'McLean'
p694
I6
sS'Sioux'
p695
I1
sS'Rolette'
p696
I3
sS'Cass'
p697
I69
sS'Cavalier'
p698
I1
sS'Steele'
p699
I1
sS'Logan'
p700
I3
sS'Traill'
p701
I1
sS'Emmons'
p702
I2
sS'Morton'
p703
I5
sS'Mercer'
p704
I1
sS'Burleigh'
p705
I45
ssS'NE'
p706
(dp707
S'Lancaster'
p708
I955
sS'Box Butte'
p709
I1
sS'Frontier'
p710
I1
sS'Pierce'
p711
I1
sS'Cherry'
p712
I2
sS'Clay'
p713
I1
sS'Otoe'
p714
I7
sS'Douglas'
p715
I4670
sS'Gage'
p716
I7
sS'Wayne'
p717
I3
sS'Dixon'
p718
I1
sS'Hooker'
p719
I1
sS'Valley'
p720
I1
sS'Dodge'
p721
I1
sS'Brown'
p722
I11
sS'Stanton'
p723
I1
sS'Sarpy'
p724
I75
sS'Thurston'
p725
I1
sS'Buffalo'
p726
I21
sS'Holt'
p727
I1
sS'Burt'
p728
I1
sS'Merrick'
p729
I2
sS'Hamilton'
p730
I1
sS'York'
p731
I2
sS'Cedar'
p732
I1
sS'Knox'
p733
I2
sS'Keith'
p734
I11
sS'Hall'
p735
I16
sS'Scotts Bluff'
p736
I21
sS'Lincoln'
p737
I49
sS'Hitchcock'
p738
I1
sS'Adams'
p739
I7
sS'Johnson'
p740
I1
sS'Custer'
p741
I1
sS'Kearney'
p742
I1
sS'Arthur'
p743
I1
sS'Franklin'
p744
I1
sS'Cass'
p745
I6
sS'Cuming'
p746
I3
sS'Richardson'
p747
I1
sS'Seward'
p748
I10
sS'Keya Paha'
p749
I3
sS'Fillmore'
p750
I7
sS'Saunders'
p751
I4
sS'Platte'
p752
I7
sS'Greeley'
p753
I1
sS'Red Willow'
p754
I3
sS'Washington'
p755
I3
sS'Boyd'
p756
I1
sS'Garfield'
p757
I1
sS'Dawes'
p758
I1
sS'Dakota'
p759
I1
sS'Polk'
p760
I1
sS'Cheyenne'
p761
I1
ssS'TN'
p762
(dp763
S'Wilson'
p764
I21
sS'Blount'
p765
I51
sS'Shelby'
p766
I1931
sS'Union'
p767
I1
sS'Smith'
p768
I4
sS'Montgomery'
p769
I213
sS'Wayne'
p770
I4
sS'Robertson'
p771
I10
sS'White'
p772
I52
sS'Hamblen'
p773
I78
sS'Henderson'
p774
I70
sS'Weakley'
p775
I2
sS'Dickson'
p776
I8
sS'Bedford'
p777
I65
sS'Obion'
p778
I1
sS'Humphreys'
p779
I7
sS'Henry'
p780
I5
sS'Trousdale'
p781
I22
sS'Moore'
p782
I1
sS'Sullivan'
p783
I335
sS'Maury'
p784
I62
sS'Washington'
p785
I311
sS'Bradley'
p786
I46
sS'Marion'
p787
I1
sS'Hickman'
p788
I1
sS'Polk'
p789
I5
sS'Warren'
p790
I29
sS'Perry'
p791
I3
sS'Jackson'
p792
I21
sS'Anderson'
p793
I67
sS'Jefferson'
p794
I20
sS'Rhea'
p795
I3
sS'Tipton'
p796
I34
sS'Putnam'
p797
I14
sS'Coffee'
p798
I73
sS'Sevier'
p799
I49
sS'Crockett'
p800
I7
sS'Hamilton'
p801
I355
sS'Lauderdale'
p802
I2
sS'Johnson'
p803
I13
sS'Rutherford'
p804
I588
sS'Greene'
p805
I62
sS'Overton'
p806
I2
sS'Clay'
p807
I9
sS'McMinn'
p808
I9
sS'Gibson'
p809
I56
sS'Macon'
p810
I6
sS'Madison'
p811
I175
sS'Grainger'
p812
I7
sS'Hawkins'
p813
I14
sS'Meigs'
p814
I3
sS'Davidson'
p815
I2461
sS'Cheatham'
p816
I26
sS'Bledsoe'
p817
I2
sS'Lawrence'
p818
I32
sS'Fayette'
p819
I1
sS'Claiborne'
p820
I8
sS'Lincoln'
p821
I1
sS'Franklin'
p822
I13
sS'Dyer'
p823
I17
sS'Sumner'
p824
I124
sS'Marshall'
p825
I31
sS'Carroll'
p826
I25
sS'Grundy'
p827
I1
sS'Campbell'
p828
I4
sS'Hardeman'
p829
I1
sS'Cumberland'
p830
I20
sS'Roane'
p831
I12
sS'DeKalb'
p832
I23
sS'Loudon'
p833
I31
sS'Haywood'
p834
I82
sS'Williamson'
p835
I182
sS'Cannon'
p836
I3
sS'Giles'
p837
I4
sS'Knox'
p838
I2195
sS'Hardin'
p839
I30
sS'Benton'
p840
I1
sS'Pickett'
p841
I24
sS'Morgan'
p842
I2
sS'Stewart'
p843
I3
sS'Houston'
p844
I51
sS'Fentress'
p845
I4
sS'Carter'
p846
I74
sS'Cocke'
p847
I4
sS'Lewis'
p848
I7
sS'Scott'
p849
I1
sS'Monroe'
p850
I10
ssS'NY'
p851
(dp852
S'Orleans'
p853
I9
sS'Ontario'
p854
I62
sS'Albany'
p855
I478
sS'Delaware'
p856
I12
sS'Broome'
p857
I348
sS'Montgomery'
p858
I22
sS'Richmond'
p859
I70
sS'St. Lawrence'
p860
I45
sS'Jefferson'
p861
I58
sS'Orange'
p862
I202
sS'Genesee'
p863
I27
sS'Cattaraugus'
p864
I23
sS'Putnam'
p865
I21
sS'Chautauqua'
p866
I41
sS'Tioga'
p867
I18
sS'Cortland'
p868
I24
sS'Columbia'
p869
I25
sS'Dutchess'
p870
I191
sS'Cayuga'
p871
I70
sS'Otsego'
p872
I56
sS'Rockland'
p873
I35
sS'Herkimer'
p874
I39
sS'Hamilton'
p875
I5
sS'Franklin'
p876
I27
sS'Nassau'
p877
I358
sS'Westchester'
p878
I189
sS'Chenango'
p879
I6
sS'Queens'
p880
I191
sS'Chemung'
p881
I52
sS'Wyoming'
p882
I5
sS'Yates'
p883
I15
sS'Saratoga'
p884
I173
sS'Allegany'
p885
I14
sS'Oneida'
p886
I186
sS'Greene'
p887
I112
sS'Livingston'
p888
I21
sS'Rensselaer'
p889
I47
sS'Steuben'
p890
I16
sS'Bronx'
p891
I25
sS'New York'
p892
I72
sS'Tompkins'
p893
I182
sS'Fulton'
p894
I5
sS'Seneca'
p895
I14
sS'Madison'
p896
I15
sS'Clinton'
p897
I22
sS'Ulster'
p898
I132
sS'Schuyler'
p899
I32
sS'Sullivan'
p900
I25
sS'Lewis'
p901
I11
sS'Oswego'
p902
I75
sS'Washington'
p903
I75
sS'Essex'
p904
I47
sS'Suffolk'
p905
I761
sS'Wayne'
p906
I16
sS'Niagara'
p907
I83
sS'Onondaga'
p908
I454
sS'Kings'
p909
I1
sS'Erie'
p910
I1947
sS'Schenectady'
p911
I82
sS'Schoharie'
p912
I4
sS'Monroe'
p913
I1419
sS'Warren'
p914
I60
ssS'PA'
p915
(dp916
S'Lancaster'
p917
I489
sS'Elk'
p918
I3
sS'Susquehanna'
p919
I7
sS'Perry'
p920
I3
sS'Cumberland'
p921
I126
sS'Bedford'
p922
I8
sS'Union'
p923
I149
sS'Lebanon'
p924
I182
sS'Delaware'
p925
I82
sS'Philadelphia'
p926
I3361
sS'Montgomery'
p927
I286
sS'Jefferson'
p928
I7
sS'Forest'
p929
I7
sS'Butler'
p930
I37
sS'Indiana'
p931
I51
sS'Somerset'
p932
I12
sS'Warren'
p933
I8
sS'Dauphin'
p934
I384
sS'Juniata'
p935
I3
sS'Tioga'
p936
I9
sS'Montour'
p937
I2
sS'Columbia'
p938
I40
sS'Lawrence'
p939
I51
sS'McKean'
p940
I15
sS'Crawford'
p941
I45
sS'Blair'
p942
I47
sS'Lycoming'
p943
I92
sS'Cambria'
p944
I191
sS'York'
p945
I493
sS'Franklin'
p946
I185
sS'Carbon'
p947
I22
sS'Potter'
p948
I4
sS'Venango'
p949
I32
sS'Luzerne'
p950
I133
sS'Pike'
p951
I26
sS'Wyoming'
p952
I13
sS'Adams'
p953
I70
sS'Northumberland'
p954
I52
sS'Clarion'
p955
I80
sS'Greene'
p956
I33
sS'Westmoreland'
p957
I145
sS'Bucks'
p958
I371
sS'Berks'
p959
I572
sS'Lackawanna'
p960
I83
sS'Erie'
p961
I672
sS'Clinton'
p962
I5
sS'Fayette'
p963
I17
sS'Armstrong'
p964
I55
sS'Sullivan'
p965
I1
sS'Mifflin'
p966
I9
sS'Huntingdon'
p967
I6
sS'Northampton'
p968
I233
sS'Washington'
p969
I105
sS'Snyder'
p970
I4
sS'Bradford'
p971
I20
sS'Centre'
p972
I217
sS'Schuylkill'
p973
I121
sS'Lehigh'
p974
I347
sS'Wayne'
p975
I28
sS'Cameron'
p976
I3
sS'Beaver'
p977
I110
sS'Allegheny'
p978
I2346
sS'Clearfield'
p979
I112
sS'Mercer'
p980
I77
sS'Monroe'
p981
I60
sS'Chester'
p982
I518
ssS'CA'
p983
(dp984
S'Santa Clara'
p985
I15215
sS'Lake'
p986
I71
sS'Imperial'
p987
I101
sS'Sierra'
p988
I3
sS'Madera'
p989
I51
sS'Shasta'
p990
I1034
sS'Plumas'
p991
I86
sS'Tuolumne'
p992
I573
sS'Napa'
p993
I393
sS'San Francisco'
p994
I12090
sS'Orange'
p995
I6414
sS'Tulare'
p996
I643
sS'Riverside'
p997
I5546
sS'Alameda'
p998
I3924
sS'San Mateo'
p999
I323
sS'Trinity'
p1000
I16
sS'Solano'
p1001
I607
sS'Sacramento'
p1002
I13178
sS'San Diego'
p1003
I39598
sS'Colusa'
p1004
I6
sS'Marin'
p1005
I276
sS'Santa Cruz'
p1006
I669
sS'Amador'
p1007
I5
sS'Los Angeles'
p1008
I49893
sS'Modoc'
p1009
I89
sS'Lassen'
p1010
I58
sS'Butte'
p1011
I537
sS'Stanislaus'
p1012
I4501
sS'Alpine'
p1013
I5
sS'Mendocino'
p1014
I170
sS'Mariposa'
p1015
I1254
sS'Siskiyou'
p1016
I55
sS'Placer'
p1017
I681
sS'Mono'
p1018
I22
sS'Contra Costa'
p1019
I1789
sS'Del Norte'
p1020
I31
sS'Glenn'
p1021
I108
sS'Kern'
p1022
I1835
sS'Ventura'
p1023
I3231
sS'Calaveras'
p1024
I37
sS'Inyo'
p1025
I62
sS'San Bernardino'
p1026
I3208
sS'Sutter'
p1027
I68
sS'Monterey'
p1028
I435
sS'Sonoma'
p1029
I1929
sS'San Joaquin'
p1030
I642
sS'Humboldt'
p1031
I2845
sS'Fresno'
p1032
I3586
sS'Merced'
p1033
I144
sS'Yolo'
p1034
I973
sS'Yuba'
p1035
I45
sS'El Dorado'
p1036
I316
sS'San Luis Obispo'
p1037
I347
sS'San Benito'
p1038
I85
sS'Tehama'
p1039
I65
sS'Kings'
p1040
I71
sS'Nevada'
p1041
I358
sS'Santa Barbara'
p1042
I1701
ssS'NV'
p1043
(dp1044
S'White Pine'
p1045
I9
sS'Lyon'
p1046
I13
sS'Churchill'
p1047
I15
sS'Humboldt'
p1048
I22
sS'Clark'
p1049
I39640
sS'Pershing'
p1050
I2
sS'Elko'
p1051
I109
sS'Douglas'
p1052
I20
sS'Carson City (city)'
p1053
I21
sS'Washoe'
p1054
I2903
sS'Mineral'
p1055
I1
sS'Storey'
p1056
I1
sS'Eureka'
p1057
I6
sS'Lincoln'
p1058
I47
sS'Nye'
p1059
I154
ssS'VA'
p1060
(dp1061
S'Roanoke'
p1062
I17
sS'Powhatan'
p1063
I11
sS'Russell'
p1064
I13
sS'Arlington'
p1065
I154
sS'Charlottesville (city)'
p1066
I92
sS'Montgomery'
p1067
I31
sS'Salem (city)'
p1068
I113
sS'Fauquier'
p1069
I91
sS'Williamsburg (city)'
p1070
I91
sS'Franklin (city)'
p1071
I10
sS'Virginia Beach (city)'
p1072
I2600
sS'Tazewell'
p1073
I7
sS'King George'
p1074
I10
sS'York'
p1075
I76
sS'Chesapeake (city)'
p1076
I213
sS'Bedford'
p1077
I16
sS'Roanoke (city)'
p1078
I173
sS'Augusta'
p1079
I7
sS'Chesterfield'
p1080
I82
sS'Nelson'
p1081
I8
sS'Henry'
p1082
I1
sS'Prince William'
p1083
I184
sS'Portsmouth (city)'
p1084
I21
sS'Nottoway'
p1085
I4
sS'Gloucester'
p1086
I7
sS'Waynesboro (city)'
p1087
I10
sS'Charlotte'
p1088
I1
sS'Washington'
p1089
I45
sS'Craig'
p1090
I1
sS'Prince George'
p1091
I12
sS'Warren'
p1092
I37
sS'Albemarle'
p1093
I70
sS'Fredericksburg (city)'
p1094
I190
sS'Orange'
p1095
I7
sS'Lynchburg (city)'
p1096
I120
sS'Caroline'
p1097
I3
sS'Smyth'
p1098
I24
sS'Culpeper'
p1099
I27
sS'Petersburg (city)'
p1100
I1
sS'Lee'
p1101
I2
sS'Spotsylvania'
p1102
I34
sS'Buena Vista (city)'
p1103
I1
sS'Richmond (city)'
p1104
I1596
sS'Southampton'
p1105
I1
sS'Henrico'
p1106
I20
sS'Bedford (city)'
p1107
I10
sS'Northumberland'
p1108
I9
sS'Greene'
p1109
I2
sS'Westmoreland'
p1110
I55
sS'Isle of Wight'
p1111
I5
sS'King and Queen'
p1112
I2
sS'Alexandria (city)'
p1113
I703
sS'Fairfax (city)'
p1114
I55
sS'Madison'
p1115
I4
sS'Goochland'
p1116
I5
sS'Loudoun'
p1117
I141
sS'Bristol (city)'
p1118
I2
sS'Essex'
p1119
I1
sS'Newport News (city)'
p1120
I91
sS'Amherst'
p1121
I35
sS'Falls Church (city)'
p1122
I55
sS'Hampton (city)'
p1123
I120
sS'Clarke'
p1124
I5
sS'Richmond'
p1125
I1
sS'Northampton'
p1126
I367
sS'Wythe'
p1127
I3
sS'Hopewell (city)'
p1128
I174
sS'Accomack'
p1129
I7
sS'New Kent'
p1130
I2
sS'Shenandoah'
p1131
I17
sS'Staunton (city)'
p1132
I15
sS'Pittsylvania'
p1133
I48
sS'Covington (city)'
p1134
I3
sS'Patrick'
p1135
I4
sS'Winchester (city)'
p1136
I45
sS'Greensville'
p1137
I1
sS'Franklin'
p1138
I10
sS'Fairfax'
p1139
I258
sS'Floyd'
p1140
I1
sS'Carroll'
p1141
I17
sS'Bath'
p1142
I1
sS'Botetourt'
p1143
I5
sS'Campbell'
p1144
I13
sS'Halifax'
p1145
I3
sS'Manassas (city)'
p1146
I55
sS'Lancaster'
p1147
I2
sS'Poquoson (city)'
p1148
I1
sS'Louisa'
p1149
I44
sS'Middlesex'
p1150
I5
sS'Colonial Heights (city)'
p1151
I2
sS'Norton (city)'
p1152
I1
sS'Rockbridge'
p1153
I277
sS'Pulaski'
p1154
I5
sS'Rockingham'
p1155
I24
sS'Alleghany'
p1156
I12
sS'Radford (city)'
p1157
I9
sS'Prince Edward'
p1158
I1
sS'Giles'
p1159
I1
sS'Dickenson'
p1160
I1
sS'Harrisonburg (city)'
p1161
I45
sS'Danville (city)'
p1162
I100
sS'Stafford'
p1163
I17
sS'Hanover'
p1164
I24
sS'Wise'
p1165
I17
sS'Norfolk (city)'
p1166
I136
sS'Frederick'
p1167
I4
sS'Mecklenburg'
p1168
I10
sS'Page'
p1169
I100
sS'Suffolk (city)'
p1170
I15
sS'Surry'
p1171
I2
sS'Martinsville (city)'
p1172
I3
sS'Lexington (city)'
p1173
I1
sS'Scott'
p1174
I2
sS'King William'
p1175
I2
sS'Fluvanna'
p1176
I1
ssS'CO'
p1177
(dp1178
S'San Juan'
p1179
I1
sS'San Miguel'
p1180
I1
sS'Otero'
p1181
I3
sS'Chaffee'
p1182
I9
sS'Elbert'
p1183
I4
sS'Fremont'
p1184
I1
sS'Grand'
p1185
I9
sS'Dolores'
p1186
I3
sS'Douglas'
p1187
I168
sS'Ouray'
p1188
I2
sS'Jefferson'
p1189
I695
sS'Cheyenne'
p1190
I1
sS'Gunnison'
p1191
I8
sS'Boulder'
p1192
I2018
sS'Eagle'
p1193
I53
sS'La Plata'
p1194
I45
sS'Custer'
p1195
I1
sS'Archuleta'
p1196
I3
sS'Clear Creek'
p1197
I3
sS'Montrose'
p1198
I16
sS'Park'
p1199
I24
sS'Saguache'
p1200
I6
sS'Kit Carson'
p1201
I4
sS'El Paso'
p1202
I3818
sS'Costilla'
p1203
I7
sS'Delta'
p1204
I17
sS'Conejos'
p1205
I1
sS'Arapahoe'
p1206
I1255
sS'Mesa'
p1207
I542
sS'Yuma'
p1208
I2
sS'Teller'
p1209
I23
sS'Broomfield'
p1210
I66
sS'Pueblo'
p1211
I540
sS'Lincoln'
p1212
I2
sS'Alamosa'
p1213
I28
sS'Weld'
p1214
I125
sS'Adams'
p1215
I1060
sS'Montezuma'
p1216
I12
sS'Kiowa'
p1217
I1
sS'Summit'
p1218
I11
sS'Denver'
p1219
I8385
sS'Morgan'
p1220
I4
sS'Routt'
p1221
I10
sS'Huerfano'
p1222
I10
sS'Bent'
p1223
I2
sS'Rio Blanco'
p1224
I1
sS'Baca'
p1225
I3
sS'Pitkin'
p1226
I9
sS'Prowers'
p1227
I1
sS'Washington'
p1228
I1
sS'Moffat'
p1229
I15
sS'Rio Grande'
p1230
I2
sS'Logan'
p1231
I1
sS'Garfield'
p1232
I25
sS'Larimer'
p1233
I1672
sS'Las Animas'
p1234
I12
ssS'AK'
p1235
(dp1236
S'Southeast Fairbanks (CA)'
p1237
I2
sS'Yukon-Koyukuk (CA)'
p1238
I2
sS'Denali'
p1239
I1
sS'Valdez-Cordova (CA)'
p1240
I3
sS'Fairbanks North Star'
p1241
I511
sS'Lake and Peninsula'
p1242
I2
sS'Haines'
p1243
I1
sS'Kenai Peninsula'
p1244
I37
sS'Yakutat'
p1245
I1
sS'North Slope'
p1246
I2
sS'Petersburg (CA)'
p1247
I1
sS'Kodiak Island'
p1248
I1
sS'Wade Hampton (CA)'
p1249
I1
sS'Anchorage'
p1250
I1806
sS'Juneau'
p1251
I15
sS'Ketchikan Gateway'
p1252
I6
sS'Prince of Wales-Hyder (CA)'
p1253
I3
sS'Nome (CA)'
p1254
I7
sS'Matanuska-Susitna'
p1255
I84
sS'Bethel (CA)'
p1256
I16
sS'Northwest Arctic'
p1257
I1
sS'Wrangell'
p1258
I3
ssS'AL'
p1259
(dp1260
S'Bibb'
p1261
I1
sS'Jackson'
p1262
I7
sS'Russell'
p1263
I6
sS'Blount'
p1264
I8
sS'Shelby'
p1265
I26
sS'Coosa'
p1266
I2
sS'Clarke'
p1267
I2
sS'Colbert'
p1268
I5
sS'Calhoun'
p1269
I45
sS'Cullman'
p1270
I63
sS'Covington'
p1271
I15
sS'Jefferson'
p1272
I967
sS'Butler'
p1273
I3
sS'DeKalb'
p1274
I11
sS'Pickens'
p1275
I4
sS'Cleburne'
p1276
I7
sS'Dale'
p1277
I7
sS'Coffee'
p1278
I14
sS'Lee'
p1279
I29
sS'Lawrence'
p1280
I4
sS'Dallas'
p1281
I3
sS'Fayette'
p1282
I1
sS'Cherokee'
p1283
I3
sS'Chilton'
p1284
I13
sS'Hale'
p1285
I10
sS'Lauderdale'
p1286
I21
sS'Tallapoosa'
p1287
I1
sS'St. Clair'
p1288
I6
sS'Barbour'
p1289
I6
sS'Conecuh'
p1290
I2
sS'Pike'
p1291
I1
sS'Crenshaw'
p1292
I2
sS'Mobile'
p1293
I136
sS'Sumter'
p1294
I1
sS'Lamar'
p1295
I1
sS'Franklin'
p1296
I2
sS'Morgan'
p1297
I7
sS'Henry'
p1298
I3
sS'Walker'
p1299
I16
sS'Montgomery'
p1300
I234
sS'Etowah'
p1301
I24
sS'Houston'
p1302
I56
sS'Madison'
p1303
I588
sS'Limestone'
p1304
I40
sS'Randolph'
p1305
I2
sS'Marshall'
p1306
I16
sS'Winston'
p1307
I9
sS'Washington'
p1308
I1
sS'Talladega'
p1309
I8
sS'Tuscaloosa'
p1310
I66
sS'Elmore'
p1311
I6
sS'Marion'
p1312
I8
sS'Escambia'
p1313
I2
sS'Chambers'
p1314
I5
sS'Lowndes'
p1315
I1
sS'Baldwin'
p1316
I93
sS'Monroe'
p1317
I3
sS'Autauga'
p1318
I4
ssS'AR'
p1319
(dp1320
S'Saline'
p1321
I18
sS'Mississippi'
p1322
I4
sS'Perry'
p1323
I11
sS'Jackson'
p1324
I3
sS'Howard'
p1325
I1
sS'Union'
p1326
I39
sS'Carroll'
p1327
I20
sS'Calhoun'
p1328
I6
sS'Montgomery'
p1329
I4
sS'Pulaski'
p1330
I603
sS'Phillips'
p1331
I1
sS'Jefferson'
p1332
I4
sS'Crittenden'
p1333
I14
sS'Stone'
p1334
I4
sS'White'
p1335
I70
sS'Crawford'
p1336
I29
sS'Faulkner'
p1337
I113
sS'Independence'
p1338
I32
sS'Newton'
p1339
I7
sS'Columbia'
p1340
I6
sS'Lee'
p1341
I1
sS'Garland'
p1342
I73
sS'Lawrence'
p1343
I1
sS'Grant'
p1344
I2
sS'Van Buren'
p1345
I11
sS'Drew'
p1346
I1
sS'Cleburne'
p1347
I24
sS'Izard'
p1348
I1
sS'Little River'
p1349
I4
sS'Pike'
p1350
I1
sS'Poinsett'
p1351
I13
sS'Ashley'
p1352
I1
sS'Sevier'
p1353
I2
sS'Johnson'
p1354
I20
sS'Hot Spring'
p1355
I2
sS'Dallas'
p1356
I1
sS'Benton'
p1357
I104
sS'Cross'
p1358
I3
sS'Greene'
p1359
I6
sS'Searcy'
p1360
I4
sS'Lafayette'
p1361
I1
sS'Franklin'
p1362
I6
sS'Boone'
p1363
I21
sS'Clay'
p1364
I1
sS'Ouachita'
p1365
I3
sS'Yell'
p1366
I8
sS'Sebastian'
p1367
I304
sS'Fulton'
p1368
I1
sS'Hempstead'
p1369
I1
sS'Baxter'
p1370
I49
sS'Woodruff'
p1371
I4
sS'Madison'
p1372
I2
sS'Lincoln'
p1373
I1
sS'Lonoke'
p1374
I31
sS'Clark'
p1375
I1
sS'Pope'
p1376
I182
sS'Conway'
p1377
I9
sS'Polk'
p1378
I15
sS'Craighead'
p1379
I17
sS'Washington'
p1380
I222
sS'Bradley'
p1381
I1
sS'Logan'
p1382
I3
sS'Prairie'
p1383
I1
sS'Marion'
p1384
I3
sS'Miller'
p1385
I4
sS'Sharp'
p1386
I2
sS'Chicot'
p1387
I4
sS'Nevada'
p1388
I1
sS'Randolph'
p1389
I21
ssS'VT'
p1390
(dp1391
S'Addison'
p1392
I16
sS'Grand Isle'
p1393
I5
sS'Orleans'
p1394
I1
sS'Bennington'
p1395
I42
sS'Lamoille'
p1396
I13
sS'Washington'
p1397
I45
sS'Essex'
p1398
I7
sS'Chittenden'
p1399
I164
sS'Windham'
p1400
I29
sS'Franklin'
p1401
I5
sS'Orange'
p1402
I7
sS'Rutland'
p1403
I45
sS'Caledonia'
p1404
I9
sS'Windsor'
p1405
I22
ssS'IL'
p1406
(dp1407
S'Richland'
p1408
I3
sS'Shelby'
p1409
I10
sS'Union'
p1410
I1
sS'Jo Daviess'
p1411
I4
sS'McDonough'
p1412
I22
sS'Wayne'
p1413
I1
sS'Bureau'
p1414
I7
sS'Wabash'
p1415
I1
sS'Champaign'
p1416
I59
sS'Tazewell'
p1417
I12
sS'De Witt'
p1418
I2
sS'Hancock'
p1419
I5
sS'Coles'
p1420
I14
sS'Henry'
p1421
I8
sS'Montgomery'
p1422
I7
sS'Jersey'
p1423
I2
sS'Washington'
p1424
I4
sS'LaSalle'
p1425
I27
sS'Marion'
p1426
I25
sS'Jasper'
p1427
I108
sS'Ogle'
p1428
I24
sS'Effingham'
p1429
I7
sS'Warren'
p1430
I1
sS'Jackson'
p1431
I39
sS'Mason'
p1432
I5
sS'Jefferson'
p1433
I6
sS'Lee'
p1434
I29
sS'DuPage'
p1435
I786
sS'Peoria'
p1436
I202
sS'Ford'
p1437
I2
sS'Cook'
p1438
I36356
sS'Rock Island'
p1439
I92
sS'McLean'
p1440
I239
sS'Johnson'
p1441
I4
sS'Menard'
p1442
I7
sS'Woodford'
p1443
I3
sS'Greene'
p1444
I16
sS'Clay'
p1445
I1
sS'Fulton'
p1446
I57
sS'Macon'
p1447
I61
sS'Kendall'
p1448
I44
sS'Madison'
p1449
I123
sS'Clinton'
p1450
I4
sS'Clark'
p1451
I3
sS'Moultrie'
p1452
I6
sS'Kane'
p1453
I332
sS'Saline'
p1454
I6
sS'Morgan'
p1455
I18
sS'Stark'
p1456
I1
sS'McHenry'
p1457
I287
sS'Lawrence'
p1458
I10
sS'Fayette'
p1459
I2
sS'Sangamon'
p1460
I323
sS'Alexander'
p1461
I1
sS'Pike'
p1462
I4
sS'Adams'
p1463
I35
sS'Stephenson'
p1464
I25
sS'Livingston'
p1465
I10
sS'Franklin'
p1466
I131
sS'Marshall'
p1467
I3
sS'Carroll'
p1468
I1
sS'Schuyler'
p1469
I9
sS'Grundy'
p1470
I45
sS'Mercer'
p1471
I10
sS'Gallatin'
p1472
I11
sS'Cumberland'
p1473
I1
sS'Edwards'
p1474
I6
sS'Lake'
p1475
I339
sS'Douglas'
p1476
I2
sS'Pulaski'
p1477
I2
sS'DeKalb'
p1478
I8
sS'Williamson'
p1479
I30
sS'Christian'
p1480
I11
sS'Winnebago'
p1481
I5441
sS'Macoupin'
p1482
I2
sS'St. Clair'
p1483
I140
sS'Knox'
p1484
I106
sS'Kankakee'
p1485
I50
sS'Whiteside'
p1486
I26
sS'Will'
p1487
I864
sS'Boone'
p1488
I10
sS'Cass'
p1489
I7
sS'Iroquois'
p1490
I4
sS'Vermilion'
p1491
I9
sS'Logan'
p1492
I6
sS'Randolph'
p1493
I7
sS'Monroe'
p1494
I4
ssS'GA'
p1495
(dp1496
S'Union'
p1497
I16
sS'Paulding'
p1498
I17
sS'Montgomery'
p1499
I1
sS'Wayne'
p1500
I1
sS'Screven'
p1501
I11
sS'Pickens'
p1502
I1
sS'Ben Hill'
p1503
I3
sS'Worth'
p1504
I1
sS'McDuffie'
p1505
I3
sS'Dodge'
p1506
I1
sS'Columbia'
p1507
I37
sS'Bibb'
p1508
I66
sS'Brooks'
p1509
I1
sS'Walton'
p1510
I27
sS'Harris'
p1511
I7
sS'Coweta'
p1512
I16
sS'Dougherty'
p1513
I12
sS'Meriwether'
p1514
I18
sS'Hancock'
p1515
I3
sS'Cook'
p1516
I1
sS'Gordon'
p1517
I15
sS'Henry'
p1518
I81
sS'Wilkes'
p1519
I1
sS'Thomas'
p1520
I2
sS'Ware'
p1521
I11
sS'Stephens'
p1522
I2
sS'Newton'
p1523
I34
sS'Washington'
p1524
I12
sS'Decatur'
p1525
I3
sS'Heard'
p1526
I3
sS'Camden'
p1527
I29
sS'Jasper'
p1528
I6
sS'Effingham'
p1529
I10
sS'Lowndes'
p1530
I31
sS'Polk'
p1531
I2
sS'Jackson'
p1532
I24
sS'McIntosh'
p1533
I1
sS'Liberty'
p1534
I22
sS'Jefferson'
p1535
I1
sS'White'
p1536
I3
sS'Burke'
p1537
I3
sS'Putnam'
p1538
I16
sS'Coffee'
p1539
I7
sS'Glynn'
p1540
I7
sS'Lee'
p1541
I21
sS'Catoosa'
p1542
I37
sS'Butts'
p1543
I4
sS'Oconee'
p1544
I2
sS'Toombs'
p1545
I2
sS'Chatham'
p1546
I307
sS'Colquitt'
p1547
I23
sS'Barrow'
p1548
I35
sS'Schley'
p1549
I3
sS'Johnson'
p1550
I1
sS'Candler'
p1551
I1
sS'Oglethorpe'
p1552
I6
sS'Irwin'
p1553
I4
sS'Greene'
p1554
I1
sS'Bartow'
p1555
I19
sS'Forsyth'
p1556
I105
sS'Clay'
p1557
I2
sS'Fulton'
p1558
I2647
sS'Macon'
p1559
I1
sS'Madison'
p1560
I31
sS'Taylor'
p1561
I1
sS'Evans'
p1562
I1
sS'Clinch'
p1563
I15
sS'Echols'
p1564
I1
sS'Grady'
p1565
I16
sS'Dawson'
p1566
I28
sS'Hart'
p1567
I4
sS'Baldwin'
p1568
I3
sS'Lumpkin'
p1569
I10
sS'Haralson'
p1570
I4
sS'Rockdale'
p1571
I105
sS'Cherokee'
p1572
I85
sS'Clarke'
p1573
I91
sS'Richmond'
p1574
I205
sS'Cobb'
p1575
I622
sS'Glascock'
p1576
I4
sS'Muscogee'
p1577
I214
sS'Fayette'
p1578
I37
sS'Elbert'
p1579
I1
sS'Early'
p1580
I46
sS'Floyd'
p1581
I57
sS'Towns'
p1582
I1
sS'Pike'
p1583
I6
sS'Lincoln'
p1584
I18
sS'Dade'
p1585
I5
sS'Long'
p1586
I3
sS'Walker'
p1587
I6
sS'Chattooga'
p1588
I3
sS'Carroll'
p1589
I22
sS'Murray'
p1590
I6
sS'Talbot'
p1591
I4
sS'Tift'
p1592
I7
sS'Peach'
p1593
I3
sS'Bryan'
p1594
I4
sS'Sumter'
p1595
I7
sS'Douglas'
p1596
I88
sS'Atkinson'
p1597
I1
sS'DeKalb'
p1598
I54
sS'Troup'
p1599
I5
sS'Bleckley'
p1600
I3
sS'Gwinnett'
p1601
I445
sS'Clayton'
p1602
I10
sS'Brantley'
p1603
I12
sS'Hall'
p1604
I133
sS'Jones'
p1605
I1
sS'Pierce'
p1606
I6
sS'Laurens'
p1607
I37
sS'Dooly'
p1608
I1
sS'Berrien'
p1609
I4
sS'Emanuel'
p1610
I1
sS'Morgan'
p1611
I21
sS'Banks'
p1612
I4
sS'Mitchell'
p1613
I2
sS'Houston'
p1614
I43
sS'Whitfield'
p1615
I30
sS'Spalding'
p1616
I10
sS'Miller'
p1617
I1
sS'Habersham'
p1618
I34
sS'Rabun'
p1619
I6
sS'Bulloch'
p1620
I21
sS'Fannin'
p1621
I15
sS'Tattnall'
p1622
I17
sS'Turner'
p1623
I4
sS'Twiggs'
p1624
I2
sS'Monroe'
p1625
I1
sS'Franklin'
p1626
I7
ssS'IN'
p1627
(dp1628
S'Daviess'
p1629
I7
sS'Shelby'
p1630
I71
sS'Union'
p1631
I5
sS'Montgomery'
p1632
I6
sS'Wayne'
p1633
I113
sS'Wabash'
p1634
I23
sS'White'
p1635
I74
sS'Porter'
p1636
I45
sS'Brown'
p1637
I6
sS'LaPorte'
p1638
I104
sS'Jay'
p1639
I4
sS'Jennings'
p1640
I3
sS'Dearborn'
p1641
I14
sS'Miami'
p1642
I67
sS'Hancock'
p1643
I26
sS'Henry'
p1644
I12
sS'Vigo'
p1645
I435
sS'Sullivan'
p1646
I3
sS'Dubois'
p1647
I5
sS'Washington'
p1648
I24
sS'Bartholomew'
p1649
I22
sS'Marion'
p1650
I4470
sS'Jasper'
p1651
I4
sS'Vermillion'
p1652
I24
sS'Allen'
p1653
I786
sS'Perry'
p1654
I4
sS'Jackson'
p1655
I11
sS'Howard'
p1656
I465
sS'Jefferson'
p1657
I4
sS'Hendricks'
p1658
I10
sS'St. Joseph'
p1659
I494
sS'Putnam'
p1660
I6
sS'Hamilton'
p1661
I305
sS'Kosciusko'
p1662
I18
sS'Rush'
p1663
I3
sS'Johnson'
p1664
I101
sS'Whitley'
p1665
I32
sS'Greene'
p1666
I8
sS'Ripley'
p1667
I10
sS'LaGrange'
p1668
I94
sS'Ohio'
p1669
I3
sS'Gibson'
p1670
I19
sS'Spencer'
p1671
I4
sS'Fulton'
p1672
I11
sS'Madison'
p1673
I32
sS'Clinton'
p1674
I59
sS'Clark'
p1675
I23
sS'Owen'
p1676
I6
sS'Huntington'
p1677
I42
sS'Clay'
p1678
I38
sS'Blackford'
p1679
I11
sS'Morgan'
p1680
I15
sS'Delaware'
p1681
I140
sS'Fountain'
p1682
I5
sS'Lawrence'
p1683
I8
sS'Elkhart'
p1684
I88
sS'Grant'
p1685
I58
sS'Fayette'
p1686
I28
sS'Floyd'
p1687
I39
sS'Pike'
p1688
I2
sS'Adams'
p1689
I7
sS'Steuben'
p1690
I25
sS'Switzerland'
p1691
I1
sS'Vanderburgh'
p1692
I372
sS'Marshall'
p1693
I13
sS'Carroll'
p1694
I4
sS'Harrison'
p1695
I25
sS'Boone'
p1696
I34
sS'Starke'
p1697
I10
sS'Lake'
p1698
I278
sS'Pulaski'
p1699
I1
sS'Orange'
p1700
I2
sS'Tippecanoe'
p1701
I278
sS'Parke'
p1702
I5
sS'DeKalb'
p1703
I4
sS'Noble'
p1704
I20
sS'Wells'
p1705
I102
sS'Knox'
p1706
I31
sS'Decatur'
p1707
I10
sS'Tipton'
p1708
I3
sS'Benton'
p1709
I2
sS'Cass'
p1710
I47
sS'Martin'
p1711
I5
sS'Warrick'
p1712
I42
sS'Scott'
p1713
I43
sS'Randolph'
p1714
I7
sS'Monroe'
p1715
I210
sS'Franklin'
p1716
I4
ssS'IA'
p1717
(dp1718
S'Story'
p1719
I124
sS'Louisa'
p1720
I1
sS'Jackson'
p1721
I2
sS'Cass'
p1722
I6
sS'Kossuth'
p1723
I4
sS'Dallas'
p1724
I33
sS'Carroll'
p1725
I4
sS'Clarke'
p1726
I1
sS'Tama'
p1727
I6
sS'Mills'
p1728
I2
sS'Lyon'
p1729
I1
sS'Monroe'
p1730
I3
sS'Montgomery'
p1731
I1
sS'Clayton'
p1732
I1
sS'Jefferson'
p1733
I29
sS'Dickinson'
p1734
I3
sS'Wapello'
p1735
I66
sS'Crawford'
p1736
I7
sS'Worth'
p1737
I1
sS'Sioux'
p1738
I2
sS'Allamakee'
p1739
I2
sS'Buena Vista'
p1740
I1
sS'Iowa'
p1741
I2
sS'Lee'
p1742
I25
sS'Woodbury'
p1743
I94
sS'Winnebago'
p1744
I1
sS'Guthrie'
p1745
I1
sS'Van Buren'
p1746
I1
sS'Fayette'
p1747
I1
sS'Dubuque'
p1748
I56
sS'Linn'
p1749
I728
sS'Floyd'
p1750
I2
sS'Hamilton'
p1751
I7
sS"O'Brien"
p1752
I5
sS'Marion'
p1753
I8
sS'Ida'
p1754
I3
sS'Pocahontas'
p1755
I5
sS'Emmet'
p1756
I2
sS'Jasper'
p1757
I8
sS'Jones'
p1758
I2
sS'Black Hawk'
p1759
I232
sS'Delaware'
p1760
I1
sS'Hardin'
p1761
I3
sS'Adams'
p1762
I1
sS'Johnson'
p1763
I92
sS'Cedar'
p1764
I3
sS'Benton'
p1765
I7
sS'Calhoun'
p1766
I10
sS'Greene'
p1767
I1
sS'Chickasaw'
p1768
I1
sS'Plymouth'
p1769
I1
sS'Boone'
p1770
I6
sS'Clay'
p1771
I14
sS'Davis'
p1772
I1
sS'Webster'
p1773
I23
sS'Harrison'
p1774
I2
sS'Page'
p1775
I2
sS'Mahaska'
p1776
I7
sS'Pottawattamie'
p1777
I81
sS'Madison'
p1778
I11
sS'Clinton'
p1779
I9
sS'Humboldt'
p1780
I1
sS'Audubon'
p1781
I3
sS'Winneshiek'
p1782
I3
sS'Sac'
p1783
I1
sS'Monona'
p1784
I2
sS'Marshall'
p1785
I10
sS'Washington'
p1786
I2
sS'Decatur'
p1787
I4
sS'Scott'
p1788
I186
sS'Grundy'
p1789
I3
sS'Palo Alto'
p1790
I2
sS'Des Moines'
p1791
I16
sS'Warren'
p1792
I5
sS'Polk'
p1793
I1308
sS'Muscatine'
p1794
I55
sS'Cerro Gordo'
p1795
I18
ssS'OK'
p1796
(dp1797
S'Ellis'
p1798
I2
sS'Comanche'
p1799
I110
sS'Grant'
p1800
I1
sS'Cherokee'
p1801
I3
sS'Oklahoma'
p1802
I1809
sS'Delaware'
p1803
I7
sS'Hughes'
p1804
I3
sS'Cotton'
p1805
I3
sS'Pittsburg'
p1806
I1
sS'Marshall'
p1807
I4
sS'Seminole'
p1808
I18
sS'McClain'
p1809
I2
sS'Texas'
p1810
I3
sS'Cimarron'
p1811
I1
sS'Jackson'
p1812
I1
sS'Washita'
p1813
I2
sS'Tulsa'
p1814
I3463
sS'Latimer'
p1815
I2
sS'Logan'
p1816
I1
sS'Le Flore'
p1817
I33
sS'Payne'
p1818
I5
sS'Kingfisher'
p1819
I6
sS'Haskell'
p1820
I1
sS'Caddo'
p1821
I5
sS'Pontotoc'
p1822
I21
sS'Harmon'
p1823
I1
sS'Beckham'
p1824
I22
sS'Bryan'
p1825
I40
sS'Lincoln'
p1826
I2
sS'Rogers'
p1827
I54
sS'Canadian'
p1828
I46
sS'Adair'
p1829
I2
sS'Custer'
p1830
I2
sS'McCurtain'
p1831
I5
sS'Ottawa'
p1832
I24
sS'Coal'
p1833
I2
sS'Kiowa'
p1834
I1
sS'Jefferson'
p1835
I1
sS'Wagoner'
p1836
I2
sS'McIntosh'
p1837
I9
sS'Kay'
p1838
I16
sS'Creek'
p1839
I19
sS'Muskogee'
p1840
I32
sS'Osage'
p1841
I1
sS'Love'
p1842
I1
sS'Carter'
p1843
I47
sS'Stephens'
p1844
I16
sS'Okmulgee'
p1845
I11
sS'Woodward'
p1846
I22
sS'Nowata'
p1847
I1
sS'Roger Mills'
p1848
I1
sS'Washington'
p1849
I22
sS'Sequoyah'
p1850
I16
sS'Murray'
p1851
I2
sS'Craig'
p1852
I1
sS'Garfield'
p1853
I10
sS'Woods'
p1854
I3
sS'Grady'
p1855
I7
sS'Blaine'
p1856
I2
sS'Choctaw'
p1857
I11
sS'Cleveland'
p1858
I211
sS'Beaver'
p1859
I1
sS'Alfalfa'
p1860
I1
sS'Pawnee'
p1861
I6
sS'Pottawatomie'
p1862
I19
sS'Garvin'
p1863
I9
ssS'AZ'
p1864
(dp1865
S'Yuma'
p1866
I642
sS'Pinal'
p1867
I864
sS'Greenlee'
p1868
I1
sS'Maricopa'
p1869
I78843
sS'Mohave'
p1870
I1667
sS'Gila'
p1871
I73
sS'Santa Cruz'
p1872
I23
sS'Cochise'
p1873
I86
sS'La Paz'
p1874
I148
sS'Coconino'
p1875
I1668
sS'Pima'
p1876
I15779
sS'Apache'
p1877
I73
sS'Navajo'
p1878
I75
sS'Graham'
p1879
I48
sS'Yavapai'
p1880
I826
ssS'ID'
p1881
(dp1882
S'Nez Perce'
p1883
I45
sS'Gooding'
p1884
I11
sS'Jefferson'
p1885
I4
sS'Ada'
p1886
I2777
sS'Boundary'
p1887
I1
sS'Valley'
p1888
I8
sS'Teton'
p1889
I1
sS'Idaho'
p1890
I14
sS'Bingham'
p1891
I18
sS'Owyhee'
p1892
I10
sS'Custer'
p1893
I11
sS'Fremont'
p1894
I1
sS'Canyon'
p1895
I144
sS'Boise'
p1896
I2
sS'Bonneville'
p1897
I108
sS'Butte'
p1898
I4
sS'Twin Falls'
p1899
I156
sS'Gem'
p1900
I10
sS'Lincoln'
p1901
I1
sS'Benewah'
p1902
I3
sS'Lemhi'
p1903
I1
sS'Bannock'
p1904
I63
sS'Latah'
p1905
I21
sS'Madison'
p1906
I10
sS'Kootenai'
p1907
I238
sS'Lewis'
p1908
I3
sS'Minidoka'
p1909
I1
sS'Washington'
p1910
I17
sS'Elmore'
p1911
I7
sS'Payette'
p1912
I7
sS'Blaine'
p1913
I3
sS'Bonner'
p1914
I47
sS'Cassia'
p1915
I15
sS'Bear Lake'
p1916
I1
sS'Jerome'
p1917
I4
sS'Shoshone'
p1918
I5
ssS'CT'
p1919
(dp1920
S'New London'
p1921
I143
sS'New Haven'
p1922
I1062
sS'Middlesex'
p1923
I97
sS'Litchfield'
p1924
I196
sS'Fairfield'
p1925
I704
sS'Tolland'
p1926
I49
sS'Windham'
p1927
I71
sS'Hartford'
p1928
I603
ssS'ME'
p1929
(dp1930
S'Penobscot'
p1931
I119
sS'Sagadahoc'
p1932
I18
sS'Lincoln'
p1933
I9
sS'Cumberland'
p1934
I406
sS'Waldo'
p1935
I14
sS'Washington'
p1936
I8
sS'Hancock'
p1937
I24
sS'Androscoggin'
p1938
I145
sS'Aroostook'
p1939
I24
sS'Piscataquis'
p1940
I4
sS'York'
p1941
I94
sS'Franklin'
p1942
I9
sS'Oxford'
p1943
I18
sS'Knox'
p1944
I19
sS'Somerset'
p1945
I28
sS'Kennebec'
p1946
I125
ssS'MD'
p1947
(dp1948
S'Howard'
p1949
I148
sS'Carroll'
p1950
I91
sS'Garrett'
p1951
I2
sS'Montgomery'
p1952
I472
sS'Kent'
p1953
I7
sS'Somerset'
p1954
I9
sS'Caroline'
p1955
I21
sS'Dorchester'
p1956
I2
sS'Baltimore (city)'
p1957
I2152
sS"Prince George's"
p1958
I168
sS'Harford'
p1959
I143
sS'Anne Arundel'
p1960
I396
sS'Frederick'
p1961
I94
sS'Allegany'
p1962
I146
sS"St. Mary's"
p1963
I5
sS'Wicomico'
p1964
I31
sS'Baltimore'
p1965
I169
sS"Queen Anne's"
p1966
I17
sS'Charles'
p1967
I55
sS'Washington'
p1968
I179
sS'Worcester'
p1969
I254
sS'Talbot'
p1970
I18
sS'Calvert'
p1971
I14
sS'Cecil'
p1972
I37
ssS'MA'
p1973
(dp1974
S'Hampden'
p1975
I288
sS'Nantucket'
p1976
I21
sS'Essex'
p1977
I264
sS'Barnstable'
p1978
I197
sS'Berkshire'
p1979
I42
sS'Worcester'
p1980
I419
sS'Hampshire'
p1981
I47
sS'Suffolk'
p1982
I1665
sS'Norfolk'
p1983
I209
sS'Plymouth'
p1984
I224
sS'Franklin'
p1985
I18
sS'Bristol'
p1986
I275
sS'Dukes'
p1987
I10
sS'Middlesex'
p1988
I382
ssS'OH'
p1989
(dp1990
S'Preble'
p1991
I12
sS'Richland'
p1992
I33
sS'Shelby'
p1993
I6
sS'Union'
p1994
I5
sS'Paulding'
p1995
I1
sS'Montgomery'
p1996
I359
sS'Wayne'
p1997
I76
sS'Brown'
p1998
I34
sS'Champaign'
p1999
I58
sS'Defiance'
p2000
I39
sS'Miami'
p2001
I63
sS'Hancock'
p2002
I50
sS'Lorain'
p2003
I158
sS'Columbiana'
p2004
I64
sS'Muskingum'
p2005
I56
sS'Washington'
p2006
I20
sS'Gallia'
p2007
I12
sS'Marion'
p2008
I35
sS'Allen'
p2009
I33
sS'Huron'
p2010
I12
sS'Darke'
p2011
I5
sS'Warren'
p2012
I102
sS'Perry'
p2013
I20
sS'Jackson'
p2014
I15
sS'Belmont'
p2015
I67
sS'Wyandot'
p2016
I2
sS'Geauga'
p2017
I8
sS'Jefferson'
p2018
I42
sS'Ashtabula'
p2019
I106
sS'Butler'
p2020
I160
sS'Ross'
p2021
I138
sS'Vinton'
p2022
I4
sS'Hamilton'
p2023
I2521
sS'Scioto'
p2024
I61
sS'Greene'
p2025
I128
sS'Fulton'
p2026
I12
sS'Seneca'
p2027
I27
sS'Madison'
p2028
I33
sS'Clinton'
p2029
I35
sS'Clark'
p2030
I168
sS'Trumbull'
p2031
I69
sS'Erie'
p2032
I29
sS'Cuyahoga'
p2033
I1733
sS'Meigs'
p2034
I33
sS'Delaware'
p2035
I100
sS'Stark'
p2036
I172
sS'Fairfield'
p2037
I104
sS'Morgan'
p2038
I28
sS'Coshocton'
p2039
I20
sS'Lawrence'
p2040
I38
sS'Fayette'
p2041
I12
sS'Medina'
p2042
I55
sS'Van Wert'
p2043
I6
sS'Pike'
p2044
I44
sS'Adams'
p2045
I34
sS'Clermont'
p2046
I85
sS'Licking'
p2047
I259
sS'Athens'
p2048
I18
sS'Morrow'
p2049
I12
sS'Summit'
p2050
I351
sS'Franklin'
p2051
I4595
sS'Guernsey'
p2052
I10
sS'Highland'
p2053
I30
sS'Holmes'
p2054
I3
sS'Carroll'
p2055
I7
sS'Harrison'
p2056
I15
sS'Mercer'
p2057
I3
sS'Mahoning'
p2058
I141
sS'Portage'
p2059
I47
sS'Sandusky'
p2060
I13
sS'Lake'
p2061
I51
sS'Hocking'
p2062
I3
sS'Wood'
p2063
I53
sS'Crawford'
p2064
I75
sS'Williams'
p2065
I10
sS'Noble'
p2066
I3
sS'Tuscarawas'
p2067
I116
sS'Knox'
p2068
I7
sS'Putnam'
p2069
I3
sS'Hardin'
p2070
I6
sS'Lucas'
p2071
I925
sS'Ottawa'
p2072
I24
sS'Auglaize'
p2073
I23
sS'Ashland'
p2074
I3
sS'Pickaway'
p2075
I61
sS'Logan'
p2076
I9
sS'Monroe'
p2077
I90
ssS'UT'
p2078
(dp2079
S'San Juan'
p2080
I3
sS'Wasatch'
p2081
I6
sS'Utah'
p2082
I424
sS'Millard'
p2083
I1
sS'Cache'
p2084
I17
sS'Wayne'
p2085
I2
sS'Grand'
p2086
I22
sS'Weber'
p2087
I415
sS'Juab'
p2088
I1
sS'Tooele'
p2089
I68
sS'Sevier'
p2090
I15
sS'Sanpete'
p2091
I1
sS'Carbon'
p2092
I15
sS'Emery'
p2093
I9
sS'Duchesne'
p2094
I6
sS'Iron'
p2095
I56
sS'Davis'
p2096
I131
sS'Kane'
p2097
I2
sS'Washington'
p2098
I18
sS'Garfield'
p2099
I1
sS'Summit'
p2100
I14
sS'Salt Lake'
p2101
I3120
sS'Beaver'
p2102
I1
sS'Uintah'
p2103
I21
sS'Box Elder'
p2104
I3
ssS'MO'
p2105
(dp2106
S'Mississippi'
p2107
I5
sS'Shelby'
p2108
I1
sS'Barry'
p2109
I1
sS'Montgomery'
p2110
I1
sS'Dunklin'
p2111
I6
sS'Wayne'
p2112
I7
sS'St. Francois'
p2113
I29
sS'Worth'
p2114
I6
sS'Texas'
p2115
I16
sS'Laclede'
p2116
I6
sS'Hickory'
p2117
I9
sS'Adair'
p2118
I1
sS'Henry'
p2119
I62
sS'Webster'
p2120
I12
sS'New Madrid'
p2121
I2
sS'Gasconade'
p2122
I8
sS'Newton'
p2123
I31
sS'Washington'
p2124
I4
sS'Moniteau'
p2125
I12
sS'Marion'
p2126
I3
sS'Jasper'
p2127
I81
sS'Polk'
p2128
I32
sS'Buchanan'
p2129
I8
sS'Warren'
p2130
I5
sS'Perry'
p2131
I15
sS'Jackson'
p2132
I3168
sS'Howard'
p2133
I1
sS'Caldwell'
p2134
I46
sS'Wright'
p2135
I9
sS'Jefferson'
p2136
I93
sS'Taney'
p2137
I51
sS'Butler'
p2138
I3
sS'Putnam'
p2139
I1
sS'St. Charles'
p2140
I212
sS'Oregon'
p2141
I7
sS'Stoddard'
p2142
I9
sS'Linn'
p2143
I4
sS'Callaway'
p2144
I44
sS'Pettis'
p2145
I14
sS'Camden'
p2146
I28
sS'Stone'
p2147
I6
sS'Johnson'
p2148
I61
sS'Barton'
p2149
I1
sS'Maries'
p2150
I11
sS'Greene'
p2151
I1444
sS'Ripley'
p2152
I6
sS'Clay'
p2153
I59
sS'Macon'
p2154
I1
sS'Madison'
p2155
I1
sS'Clinton'
p2156
I6
sS'Clark'
p2157
I18
sS'McDonald'
p2158
I46
sS'Ray'
p2159
I20
sS'Saline'
p2160
I6
sS'Miller'
p2161
I6
sS'Cooper'
p2162
I2
sS'Cass'
p2163
I50
sS'Dallas'
p2164
I16
sS'Scotland'
p2165
I1
sS'Morgan'
p2166
I10
sS'Lawrence'
p2167
I7
sS'Vernon'
p2168
I21
sS'Cedar'
p2169
I2
sS'Gentry'
p2170
I7
sS'Ozark'
p2171
I2
sS'Pike'
p2172
I2
sS'Lincoln'
p2173
I17
sS'Dent'
p2174
I51
sS'Nodaway'
p2175
I6
sS'Franklin'
p2176
I55
sS'Audrain'
p2177
I7
sS'St. Louis (city)'
p2178
I142
sS'Carroll'
p2179
I4
sS'Ralls'
p2180
I1
sS'Grundy'
p2181
I3
sS'Harrison'
p2182
I4
sS'Lewis'
p2183
I46
sS'Cole'
p2184
I46
sS'Shannon'
p2185
I1
sS'Bollinger'
p2186
I1
sS'Iron'
p2187
I6
sS'Pulaski'
p2188
I10
sS'Crawford'
p2189
I9
sS'Christian'
p2190
I16
sS'Phelps'
p2191
I180
sS'Andrew'
p2192
I3
sS'Atchison'
p2193
I7
sS'St. Clair'
p2194
I3
sS'Knox'
p2195
I1
sS'Platte'
p2196
I10
sS'Pemiscot'
p2197
I5
sS'Bates'
p2198
I108
sS'Cape Girardeau'
p2199
I63
sS'Benton'
p2200
I6
sS'Lafayette'
p2201
I12
sS'Howell'
p2202
I14
sS'Boone'
p2203
I1562
sS'St. Louis'
p2204
I191
sS'Carter'
p2205
I4
sS'Randolph'
p2206
I7
sS'Scott'
p2207
I11
sS'Reynolds'
p2208
I11
sS'Monroe'
p2209
I3
ssS'MN'
p2210
(dp2211
S'Le Sueur'
p2212
I5
sS'Lyon'
p2213
I3
sS'Hubbard'
p2214
I8
sS'Goodhue'
p2215
I17
sS'Martin'
p2216
I5
sS'Grant'
p2217
I1
sS'Steele'
p2218
I16
sS'Olmsted'
p2219
I191
sS'Lake'
p2220
I39
sS'Douglas'
p2221
I2
sS'Mower'
p2222
I10
sS'Wright'
p2223
I40
sS'Wilkin'
p2224
I1
sS'Nobles'
p2225
I1
sS'Pine'
p2226
I8
sS'Rice'
p2227
I32
sS'Nicollet'
p2228
I3
sS'Morrison'
p2229
I5
sS'Dodge'
p2230
I1
sS'Brown'
p2231
I3
sS'Clay'
p2232
I1
sS'Pennington'
p2233
I1
sS'Norman'
p2234
I2
sS'Mahnomen'
p2235
I1
sS'Koochiching'
p2236
I16
sS'Winona'
p2237
I5
sS'Faribault'
p2238
I1
sS'Ramsey'
p2239
I234
sS'Watonwan'
p2240
I1
sS'Cook'
p2241
I6
sS'Kittson'
p2242
I1
sS'Wabasha'
p2243
I2
sS'Isanti'
p2244
I17
sS'Mille Lacs'
p2245
I5
sS'Lincoln'
p2246
I2
sS'Stearns'
p2247
I18
sS'Roseau'
p2248
I1
sS'Freeborn'
p2249
I5
sS'Aitkin'
p2250
I32
sS'Traverse'
p2251
I1
sS'Hennepin'
p2252
I2361
sS'Sherburne'
p2253
I24
sS'Meeker'
p2254
I2
sS'Otter Tail'
p2255
I25
sS'Cass'
p2256
I11
sS'Chisago'
p2257
I12
sS'Becker'
p2258
I5
sS'Anoka'
p2259
I75
sS'Beltrami'
p2260
I37
sS'St. Louis'
p2261
I512
sS'Houston'
p2262
I4
sS'McLeod'
p2263
I3
sS'Carver'
p2264
I35
sS'Fillmore'
p2265
I2
sS'Renville'
p2266
I1
sS'Pope'
p2267
I3
sS'Crow Wing'
p2268
I32
sS'Yellow Medicine'
p2269
I2
sS'Washington'
p2270
I149
sS'Kanabec'
p2271
I3
sS'Carlton'
p2272
I47
sS'Scott'
p2273
I35
sS'Itasca'
p2274
I24
sS'Dakota'
p2275
I323
sS'Blue Earth'
p2276
I15
sS'Polk'
p2277
I10
sS'Sibley'
p2278
I1
sS'Kandiyohi'
p2279
I5
ssS'MI'
p2280
(dp2281
S'Osceola'
p2282
I11
sS'Jackson'
p2283
I131
sS'Branch'
p2284
I22
sS'Isabella'
p2285
I27
sS'Gogebic'
p2286
I18
sS'Ingham'
p2287
I452
sS'Leelanau'
p2288
I12
sS'Dickinson'
p2289
I22
sS'Calhoun'
p2290
I112
sS'Grand Traverse'
p2291
I84
sS'Gladwin'
p2292
I6
sS'Delta'
p2293
I38
sS'Presque Isle'
p2294
I12
sS'Wayne'
p2295
I974
sS'Montmorency'
p2296
I1
sS'Keweenaw'
p2297
I10
sS'Kent'
p2298
I1057
sS'Ionia'
p2299
I24
sS'Alpena'
p2300
I2
sS'Crawford'
p2301
I3
sS'Benzie'
p2302
I7
sS'Oscoda'
p2303
I4
sS'Mecosta'
p2304
I7
sS'Tuscola'
p2305
I20
sS'Midland'
p2306
I31
sS'Sanilac'
p2307
I23
sS'Baraga'
p2308
I3
sS'St. Clair'
p2309
I22
sS'Manistee'
p2310
I5
sS'Cheboygan'
p2311
I14
sS'Van Buren'
p2312
I16
sS'Ogemaw'
p2313
I13
sS'Macomb'
p2314
I399
sS'Roscommon'
p2315
I6
sS'Lapeer'
p2316
I78
sS'Muskegon'
p2317
I96
sS'Oceana'
p2318
I9
sS'Missaukee'
p2319
I10
sS'Mason'
p2320
I9
sS'Emmet'
p2321
I11
sS'Wexford'
p2322
I11
sS'Iosco'
p2323
I14
sS'St. Joseph'
p2324
I16
sS'Kalkaska'
p2325
I1
sS'Houghton'
p2326
I58
sS'Saginaw'
p2327
I62
sS'Berrien'
p2328
I31
sS'Gratiot'
p2329
I10
sS'Washtenaw'
p2330
I550
sS'Iron'
p2331
I6
sS'Hillsdale'
p2332
I7
sS'Ottawa'
p2333
I212
sS'Bay'
p2334
I70
sS'Allegan'
p2335
I47
sS'Lake'
p2336
I3
sS'Livingston'
p2337
I167
sS'Eaton'
p2338
I46
sS'Alcona'
p2339
I5
sS'Cass'
p2340
I22
sS'Newaygo'
p2341
I112
sS'Montcalm'
p2342
I12
sS'Charlevoix'
p2343
I14
sS'Mackinac'
p2344
I2
sS'Kalamazoo'
p2345
I172
sS'Huron'
p2346
I6
sS'Clinton'
p2347
I10
sS'Alger'
p2348
I10
sS'Luce'
p2349
I3
sS'Clare'
p2350
I8
sS'Schoolcraft'
p2351
I1
sS'Arenac'
p2352
I3
sS'Chippewa'
p2353
I8
sS'Lenawee'
p2354
I34
sS'Genesee'
p2355
I607
sS'Antrim'
p2356
I9
sS'Barry'
p2357
I18
sS'Shiawassee'
p2358
I44
sS'Otsego'
p2359
I19
sS'Ontonagon'
p2360
I994
sS'Marquette'
p2361
I28
sS'Menominee'
p2362
I3
sS'Oakland'
p2363
I477
sS'Monroe'
p2364
I136
ssS'RI'
p2365
(dp2366
S'Newport'
p2367
I73
sS'Providence'
p2368
I434
sS'Washington'
p2369
I133
sS'Bristol'
p2370
I2
sS'Kent'
p2371
I165
ssS'KS'
p2372
(dp2373
S'Saline'
p2374
I66
sS'Lyon'
p2375
I8
sS'Ellis'
p2376
I3
sS'Russell'
p2377
I1
sS'Nemaha'
p2378
I2
sS'Cherokee'
p2379
I4
sS'Harvey'
p2380
I11
sS'Finney'
p2381
I16
sS'Lincoln'
p2382
I1
sS'Douglas'
p2383
I325
sS'Montgomery'
p2384
I10
sS'Phillips'
p2385
I10
sS'Jefferson'
p2386
I1
sS'Dickinson'
p2387
I1
sS'Butler'
p2388
I30
sS'Shawnee'
p2389
I563
sS'McPherson'
p2390
I7
sS'Rice'
p2391
I1
sS'Crawford'
p2392
I3
sS'Bourbon'
p2393
I1
sS'Riley'
p2394
I15
sS'Brown'
p2395
I2
sS'Jackson'
p2396
I3
sS'Labette'
p2397
I11
sS'Gove'
p2398
I1
sS'Sherman'
p2399
I6
sS'Kearny'
p2400
I1
sS'Ness'
p2401
I1
sS'Ford'
p2402
I3
sS'Linn'
p2403
I2
sS'Pratt'
p2404
I22
sS'Barber'
p2405
I1
sS'Harper'
p2406
I4
sS'Mitchell'
p2407
I3
sS'Coffey'
p2408
I3
sS'Greenwood'
p2409
I3
sS'Gray'
p2410
I1
sS'Sheridan'
p2411
I1
sS'Rawlins'
p2412
I1
sS'Johnson'
p2413
I785
sS'Miami'
p2414
I8
sS'Barton'
p2415
I11
sS'Leavenworth'
p2416
I56
sS'Osage'
p2417
I8
sS'Ottawa'
p2418
I6
sS'Wyandotte'
p2419
I174
sS'Franklin'
p2420
I7
sS'Clay'
p2421
I1
sS'Sedgwick'
p2422
I1498
sS'Sumner'
p2423
I4
sS'Cowley'
p2424
I8
sS'Seward'
p2425
I1
sS'Marshall'
p2426
I3
sS'Geary'
p2427
I4
sS'Rush'
p2428
I1
sS'Thomas'
p2429
I21
sS'Rooks'
p2430
I3
sS'Kingman'
p2431
I3
sS'Neosho'
p2432
I16
sS'Reno'
p2433
I47
sS'Hodgeman'
p2434
I1
sS'Logan'
p2435
I1
sS'Marion'
p2436
I1
sS'Cloud'
p2437
I1
sS'Allen'
p2438
I2
sS'Morton'
p2439
I1
sS'Graham'
p2440
I1
sS'Pawnee'
p2441
I3
sS'Pottawatomie'
p2442
I3
ssS'MT'
p2443
(dp2444
S'Judith Basin'
p2445
I1
sS'Glacier'
p2446
I21
sS'Silver Bow'
p2447
I171
sS'Daniels'
p2448
I2
sS'Petroleum'
p2449
I1
sS'Lake'
p2450
I10
sS'Phillips'
p2451
I6
sS'Jefferson'
p2452
I8
sS'Hill'
p2453
I78
sS'Valley'
p2454
I3
sS'Powell'
p2455
I3
sS'Sanders'
p2456
I8
sS'Custer'
p2457
I6
sS'Park'
p2458
I12
sS'Chouteau'
p2459
I1
sS'Meagher'
p2460
I3
sS'Wheatland'
p2461
I1
sS'Yellowstone'
p2462
I179
sS'Carbon'
p2463
I5
sS'Stillwater'
p2464
I4
sS'Flathead'
p2465
I266
sS'Lincoln'
p2466
I15
sS'Mineral'
p2467
I3
sS'Fergus'
p2468
I7
sS'Big Horn'
p2469
I15
sS'Ravalli'
p2470
I25
sS'Missoula'
p2471
I568
sS'Cascade'
p2472
I235
sS'Roosevelt'
p2473
I29
sS'Beaverhead'
p2474
I4
sS'Lewis and Clark'
p2475
I92
sS'Sweet Grass'
p2476
I1
sS'Pondera'
p2477
I6
sS'Deer Lodge'
p2478
I4
sS'Rosebud'
p2479
I3
sS'Prairie'
p2480
I1
sS'Blaine'
p2481
I6
sS'Dawson'
p2482
I1
sS'Toole'
p2483
I1
sS'Gallatin'
p2484
I455
ssS'MS'
p2485
(dp2486
S'Yalobusha'
p2487
I1
sS'Yazoo'
p2488
I4
sS'Jackson'
p2489
I46
sS'Sunflower'
p2490
I1
sS'Lamar'
p2491
I9
sS'Tate'
p2492
I3
sS'Pontotoc'
p2493
I16
sS'Smith'
p2494
I2
sS'Calhoun'
p2495
I1
sS'Hinds'
p2496
I111
sS'Bolivar'
p2497
I1
sS'Tishomingo'
p2498
I2
sS'Covington'
p2499
I3
sS'Perry'
p2500
I10
sS'Webster'
p2501
I1
sS'Wilkinson'
p2502
I3
sS'Adams'
p2503
I2
sS'Leflore'
p2504
I10
sS'Newton'
p2505
I2
sS'Lee'
p2506
I47
sS'Pearl River'
p2507
I16
sS'Leake'
p2508
I1
sS'Rankin'
p2509
I42
sS'Walthall'
p2510
I1
sS'Amite'
p2511
I1
sS'Scott'
p2512
I1
sS'DeSoto'
p2513
I33
sS'Winston'
p2514
I2
sS'Prentiss'
p2515
I1
sS'Clarke'
p2516
I6
sS'Alcorn'
p2517
I10
sS'Jones'
p2518
I14
sS'Pike'
p2519
I8
sS'Choctaw'
p2520
I1
sS'Humphreys'
p2521
I1
sS'Hancock'
p2522
I2
sS'Coahoma'
p2523
I3
sS'Lafayette'
p2524
I7
sS'Franklin'
p2525
I6
sS'Grenada'
p2526
I1
sS'Noxubee'
p2527
I1
sS'Simpson'
p2528
I9
sS'Kemper'
p2529
I1
sS'Lauderdale'
p2530
I10
sS'Madison'
p2531
I10
sS'Tunica'
p2532
I4
sS'Quitman'
p2533
I1
sS'Copiah'
p2534
I2
sS'Panola'
p2535
I6
sS'Washington'
p2536
I1
sS'Itawamba'
p2537
I11
sS'George'
p2538
I6
sS'Holmes'
p2539
I1
sS'Wayne'
p2540
I1
sS'Marion'
p2541
I13
sS'Jasper'
p2542
I1
sS'Harrison'
p2543
I171
sS'Attala'
p2544
I1
sS'Jefferson Davis'
p2545
I1
sS'Oktibbeha'
p2546
I28
sS'Lowndes'
p2547
I12
sS'Forrest'
p2548
I22
sS'Marshall'
p2549
I4
sS'Monroe'
p2550
I3
sS'Warren'
p2551
I28
ssS'SC'
p2552
(dp2553
S'Lancaster'
p2554
I18
sS'Colleton'
p2555
I14
sS'Richland'
p2556
I447
sS'Cherokee'
p2557
I15
sS'Sumter'
p2558
I70
sS'Greenville'
p2559
I273
sS'Fairfield'
p2560
I137
sS'Kershaw'
p2561
I6
sS'Anderson'
p2562
I68
sS'Abbeville'
p2563
I3
sS'Horry'
p2564
I9953
sS'Spartanburg'
p2565
I52
sS'Pickens'
p2566
I59
sS'Georgetown'
p2567
I253
sS'Lee'
p2568
I4
sS'Clarendon'
p2569
I2
sS'Marlboro'
p2570
I2
sS'Saluda'
p2571
I3
sS'Oconee'
p2572
I6
sS'Newberry'
p2573
I1
sS'York'
p2574
I192
sS'Berkeley'
p2575
I85
sS'Beaufort'
p2576
I38
sS'Greenwood'
p2577
I7
sS'Orangeburg'
p2578
I6
sS'Laurens'
p2579
I14
sS'Williamsburg'
p2580
I10
sS'Lexington'
p2581
I117
sS'Chester'
p2582
I5
sS'Charleston'
p2583
I505
sS'Chesterfield'
p2584
I1
sS'Dorchester'
p2585
I192
sS'Hampton'
p2586
I2
sS'Aiken'
p2587
I38
sS'Dillon'
p2588
I5
sS'Jasper'
p2589
I4
sS'Darlington'
p2590
I22
sS'Barnwell'
p2591
I17
sS'Florence'
p2592
I57
ssS'KY'
p2593
(dp2594
S'Metcalfe'
p2595
I6
sS'Daviess'
p2596
I56
sS'Russell'
p2597
I38
sS'Shelby'
p2598
I4
sS'Union'
p2599
I5
sS'Montgomery'
p2600
I8
sS'Wayne'
p2601
I6
sS'Bourbon'
p2602
I15
sS'Powell'
p2603
I2
sS'Boyle'
p2604
I10
sS'Henderson'
p2605
I16
sS'Breckinridge'
p2606
I1
sS'Casey'
p2607
I1
sS'Adair'
p2608
I7
sS'McCreary'
p2609
I2
sS'Nelson'
p2610
I29
sS'Henry'
p2611
I3
sS'Barren'
p2612
I8
sS'Bullitt'
p2613
I22
sS'Trimble'
p2614
I1
sS'Marion'
p2615
I3
sS'Allen'
p2616
I10
sS'Warren'
p2617
I171
sS'Perry'
p2618
I30
sS'Graves'
p2619
I3
sS'Grant'
p2620
I6
sS'Oldham'
p2621
I4
sS'Mason'
p2622
I6
sS'Wolfe'
p2623
I1
sS'Anderson'
p2624
I1
sS'Jefferson'
p2625
I3744
sS'Breathitt'
p2626
I3
sS'Kenton'
p2627
I45
sS'Boyd'
p2628
I56
sS'McLean'
p2629
I1
sS'Johnson'
p2630
I15
sS'Hopkins'
p2631
I28
sS'Whitley'
p2632
I5
sS'Woodford'
p2633
I4
sS'Green'
p2634
I3
sS'Clay'
p2635
I4
sS'Ohio'
p2636
I2
sS'Spencer'
p2637
I1
sS'Fulton'
p2638
I2
sS'Madison'
p2639
I174
sS'Taylor'
p2640
I6
sS'Clark'
p2641
I9
sS'Todd'
p2642
I3
sS'Grayson'
p2643
I2
sS'Hart'
p2644
I1
sS'Lyon'
p2645
I9
sS'Morgan'
p2646
I2
sS'Magoffin'
p2647
I1
sS'Jessamine'
p2648
I7
sS'Letcher'
p2649
I3
sS'Jackson'
p2650
I2
sS'Lawrence'
p2651
I30
sS'Trigg'
p2652
I1
sS'McCracken'
p2653
I92
sS'Fayette'
p2654
I870
sS'Floyd'
p2655
I3
sS'Pike'
p2656
I26
sS'Lincoln'
p2657
I4
sS'Ballard'
p2658
I1
sS'Livingston'
p2659
I9
sS'Harlan'
p2660
I14
sS'Franklin'
p2661
I10
sS'Larue'
p2662
I1
sS'Bell'
p2663
I9
sS'Marshall'
p2664
I7
sS'Carroll'
p2665
I1
sS'Bath'
p2666
I2
sS'Campbell'
p2667
I9
sS'Laurel'
p2668
I11
sS'Mercer'
p2669
I19
sS'Gallatin'
p2670
I1
sS'Cumberland'
p2671
I1
sS'Pulaski'
p2672
I4
sS'Rowan'
p2673
I79
sS'Elliott'
p2674
I2
sS'Christian'
p2675
I32
sS'Greenup'
p2676
I18
sS'Leslie'
p2677
I1
sS'Knox'
p2678
I7
sS'Hancock'
p2679
I1
sS'Hardin'
p2680
I80
sS'Meade'
p2681
I3
sS'Boone'
p2682
I90
sS'Garrard'
p2683
I16
sS'Edmonson'
p2684
I2
sS'Simpson'
p2685
I3
sS'Muhlenberg'
p2686
I83
sS'Carter'
p2687
I7
sS'Knott'
p2688
I6
sS'Lewis'
p2689
I4
sS'Calloway'
p2690
I49
sS'Fleming'
p2691
I13
sS'Logan'
p2692
I5
sS'Scott'
p2693
I12
sS'Monroe'
p2694
I2
ssS'OR'
p2695
(dp2696
S'Sherman'
p2697
I1
sS'Jackson'
p2698
I551
sS'Grant'
p2699
I1
sS'Union'
p2700
I21
sS'Umatilla'
p2701
I29
sS'Lane'
p2702
I3304
sS'Lake'
p2703
I17
sS'Douglas'
p2704
I132
sS'Klamath'
p2705
I83
sS'Wasco'
p2706
I34
sS'Jefferson'
p2707
I17
sS'Hood River'
p2708
I22
sS'Coos'
p2709
I45
sS'Multnomah'
p2710
I30593
sS'Columbia'
p2711
I37
sS'Crook'
p2712
I55
sS'Clackamas'
p2713
I315
sS'Linn'
p2714
I178
sS'Lincoln'
p2715
I238
sS'Wallowa'
p2716
I1
sS'Baker'
p2717
I37
sS'Clatsop'
p2718
I75
sS'Benton'
p2719
I384
sS'Yamhill'
p2720
I99
sS'Morrow'
p2721
I3
sS'Malheur'
p2722
I17
sS'Deschutes'
p2723
I424
sS'Curry'
p2724
I76
sS'Harney'
p2725
I4
sS'Josephine'
p2726
I309
sS'Washington'
p2727
I1172
sS'Tillamook'
p2728
I36
sS'Marion'
p2729
I1954
sS'Polk'
p2730
I44
ssS'SD'
p2731
(dp2732
S'Bon Homme'
p2733
I1
sS'Lyman'
p2734
I1
sS'Union'
p2735
I1
sS'Lake'
p2736
I1
sS'Brookings'
p2737
I1
sS'Lincoln'
p2738
I2
sS'Brown'
p2739
I1
sS'Minnehaha'
p2740
I329
sS'Pennington'
p2741
I255
sS'Custer'
p2742
I1
sS'Lawrence'
p2743
I11
sS'Yankton'
p2744
I28
sS'Codington'
p2745
I11
sS'Day'
p2746
I1
sS'Moody'
p2747
I6
sS'Davison'
p2748
I15
sS'Hughes'
p2749
I6
sS'Hutchinson'
p2750
I1
sS'Edmunds'
p2751
I3
sS'Roberts'
p2752
I7
sS'Meade'
p2753
I3
sS'Clay'
p2754
I4
sS'Gregory'
p2755
I1
sS'Brule'
p2756
I1
sS'Fall River'
p2757
I1
sS'Marshall'
p2758
I1
sS'Beadle'
p2759
I10
sS'Charles Mix'
p2760
I3
sS'Hyde'
p2761
I1
sS'Kingsbury'
p2762
I2
sS'Todd'
p2763
I9
sS'Turner'
p2764
I1
sS'Dewey'
p2765
I10
sS'Shannon'
p2766
I4
ss.